
Audio_Synthesizer.elf:     file format elf32-littlenios2
Audio_Synthesizer.elf
architecture: nios2:r1, flags 0x00000112:
EXEC_P, HAS_SYMS, D_PAGED
start address 0x00040230

Program Header:
    LOAD off    0x00001000 vaddr 0x00040000 paddr 0x00040000 align 2**12
         filesz 0x00000020 memsz 0x00000020 flags r-x
    LOAD off    0x00001020 vaddr 0x00040020 paddr 0x00040020 align 2**12
         filesz 0x0002bc14 memsz 0x0002bc14 flags r-x
    LOAD off    0x0002cc34 vaddr 0x0006bc34 paddr 0x0006ee28 align 2**12
         filesz 0x000031f4 memsz 0x000031f4 flags rw-
    LOAD off    0x0003001c vaddr 0x0007201c paddr 0x0007201c align 2**12
         filesz 0x00000000 memsz 0x000002b8 flags rw-

Sections:
Idx Name          Size      VMA       LMA       File off  Algn
  0 .entry        00000020  00040000  00040000  00001000  2**5
                  CONTENTS, ALLOC, LOAD, READONLY, CODE
  1 .exceptions   00000210  00040020  00040020  00001020  2**2
                  CONTENTS, ALLOC, LOAD, READONLY, CODE
  2 .text         00024ae0  00040230  00040230  00001230  2**2
                  CONTENTS, ALLOC, LOAD, READONLY, CODE
  3 .rodata       00006f24  00064d10  00064d10  00025d10  2**2
                  CONTENTS, ALLOC, LOAD, READONLY, DATA
  4 .rwdata       000031f4  0006bc34  0006ee28  0002cc34  2**2
                  CONTENTS, ALLOC, LOAD, DATA, SMALL_DATA
  5 .bss          000002b8  0007201c  0007201c  0003001c  2**2
                  ALLOC, SMALL_DATA
  6 .onchip_memory2_0 00000000  000722d4  000722d4  0002fe28  2**0
                  CONTENTS
  7 .comment      00000023  00000000  00000000  0002fe28  2**0
                  CONTENTS, READONLY
  8 .debug_aranges 00001ad8  00000000  00000000  0002fe50  2**3
                  CONTENTS, READONLY, DEBUGGING
  9 .debug_info   00053af2  00000000  00000000  00031928  2**0
                  CONTENTS, READONLY, DEBUGGING
 10 .debug_abbrev 0001100b  00000000  00000000  0008541a  2**0
                  CONTENTS, READONLY, DEBUGGING
 11 .debug_line   00015ae2  00000000  00000000  00096425  2**0
                  CONTENTS, READONLY, DEBUGGING
 12 .debug_frame  00005ac0  00000000  00000000  000abf08  2**2
                  CONTENTS, READONLY, DEBUGGING
 13 .debug_str    00010076  00000000  00000000  000b19c8  2**0
                  CONTENTS, READONLY, DEBUGGING
 14 .debug_loc    00025010  00000000  00000000  000c1a3e  2**0
                  CONTENTS, READONLY, DEBUGGING
 15 .debug_alt_sim_info 00000070  00000000  00000000  000e6a50  2**2
                  CONTENTS, READONLY, DEBUGGING
 16 .debug_ranges 00002dd0  00000000  00000000  000e6ac0  2**3
                  CONTENTS, READONLY, DEBUGGING
 17 .thread_model 00000003  00000000  00000000  001024c2  2**0
                  CONTENTS, READONLY
 18 .cpu          0000000c  00000000  00000000  001024c5  2**0
                  CONTENTS, READONLY
 19 .qsys         00000001  00000000  00000000  001024d1  2**0
                  CONTENTS, READONLY
 20 .simulation_enabled 00000001  00000000  00000000  001024d2  2**0
                  CONTENTS, READONLY
 21 .sysid_hash   00000004  00000000  00000000  001024d3  2**0
                  CONTENTS, READONLY
 22 .sysid_base   00000004  00000000  00000000  001024d7  2**0
                  CONTENTS, READONLY
 23 .sysid_time   00000004  00000000  00000000  001024db  2**0
                  CONTENTS, READONLY
 24 .stderr_dev   0000000b  00000000  00000000  001024df  2**0
                  CONTENTS, READONLY
 25 .stdin_dev    0000000b  00000000  00000000  001024ea  2**0
                  CONTENTS, READONLY
 26 .stdout_dev   0000000b  00000000  00000000  001024f5  2**0
                  CONTENTS, READONLY
 27 .sopc_system_name 00000015  00000000  00000000  00102500  2**0
                  CONTENTS, READONLY
 28 .quartus_project_dir 00000029  00000000  00000000  00102515  2**0
                  CONTENTS, READONLY
 29 .jdi          00005c4e  00000000  00000000  0010253e  2**0
                  CONTENTS, READONLY
 30 .sopcinfo     000888be  00000000  00000000  0010818c  2**0
                  CONTENTS, READONLY
SYMBOL TABLE:
00040000 l    d  .entry	00000000 .entry
00040020 l    d  .exceptions	00000000 .exceptions
00040230 l    d  .text	00000000 .text
00064d10 l    d  .rodata	00000000 .rodata
0006bc34 l    d  .rwdata	00000000 .rwdata
0007201c l    d  .bss	00000000 .bss
000722d4 l    d  .onchip_memory2_0	00000000 .onchip_memory2_0
00000000 l    d  .comment	00000000 .comment
00000000 l    d  .debug_aranges	00000000 .debug_aranges
00000000 l    d  .debug_info	00000000 .debug_info
00000000 l    d  .debug_abbrev	00000000 .debug_abbrev
00000000 l    d  .debug_line	00000000 .debug_line
00000000 l    d  .debug_frame	00000000 .debug_frame
00000000 l    d  .debug_str	00000000 .debug_str
00000000 l    d  .debug_loc	00000000 .debug_loc
00000000 l    d  .debug_alt_sim_info	00000000 .debug_alt_sim_info
00000000 l    d  .debug_ranges	00000000 .debug_ranges
00000000 l    df *ABS*	00000000 ../Audio_Synthesizer_bsp//obj/HAL/src/crt0.o
00040268 l       .text	00000000 alt_after_alt_main
00000000 l    df *ABS*	00000000 alt_irq_handler.c
00000000 l    df *ABS*	00000000 alt_instruction_exception_entry.c
00000000 l    df *ABS*	00000000 Port.cpp
00000000 l    df *ABS*	00000000 SPI.cpp
0006d718 l     O .rwdata	00000001 _ZL9SPI_MODE0
0006d719 l     O .rwdata	00000001 _ZL9SPI_MODE1
0006d71a l     O .rwdata	00000001 _ZL9SPI_MODE2
0006d71b l     O .rwdata	00000001 _ZL9SPI_MODE3
00000000 l    df *ABS*	00000000 Usb.cpp
0006d71c l     O .rwdata	00000001 _ZL9SPI_MODE0
0006d71d l     O .rwdata	00000001 _ZL9SPI_MODE1
0006d71e l     O .rwdata	00000001 _ZL9SPI_MODE2
0006d71f l     O .rwdata	00000001 _ZL9SPI_MODE3
0007201c l     O .bss	00000001 _ZL9usb_error
0007201d l     O .bss	00000001 _ZL14usb_task_state
00072020 l     O .bss	00000004 _ZZN3USB4TaskEvE5delay
00000000 l    df *ABS*	00000000 XBOXONE.cpp
0006d728 l     O .rwdata	00000001 _ZL9SPI_MODE0
0006d729 l     O .rwdata	00000001 _ZL9SPI_MODE1
0006d72a l     O .rwdata	00000001 _ZL9SPI_MODE2
0006d72b l     O .rwdata	00000001 _ZL9SPI_MODE3
0006d72c l     O .rwdata	00000006 _ZL9XBOX_LEDS
00064e1a l     O .rodata	00000024 _ZL12XBOX_BUTTONS
00043d04 l     F .text	0000013c .LTHUNK0
00000000 l    df *ABS*	00000000 audio_synth.cpp
0006d74c l     O .rwdata	00000004 _ZL5synth
00000000 l    df *ABS*	00000000 hidboot.cpp
0006d750 l     O .rwdata	00000001 _ZL9SPI_MODE0
0006d751 l     O .rwdata	00000001 _ZL9SPI_MODE1
0006d752 l     O .rwdata	00000001 _ZL9SPI_MODE2
0006d753 l     O .rwdata	00000001 _ZL9SPI_MODE3
0006d754 l     O .rwdata	00000002 _ZL9pstrSpace
0006d758 l     O .rwdata	00000003 _ZL8pstrCRLF
0006d75c l     O .rwdata	00000002 _ZL13pstrSingleTab
0006d760 l     O .rwdata	00000003 _ZL13pstrDoubleTab
0006d764 l     O .rwdata	00000004 _ZL13pstrTripleTab
0006d768 l     O .rwdata	00000006 _ZL22pstrUsagePageUndefined
00064f68 l     O .rodata	00000012 _ZL35pstrUsagePageGenericDesktopControls
00064f7c l     O .rodata	0000000b _ZL31pstrUsagePageSimulationControls
00064f88 l     O .rodata	00000009 _ZL23pstrUsagePageVRControls
00064f94 l     O .rodata	0000000c _ZL26pstrUsagePageSportControls
00064fa0 l     O .rodata	0000000b _ZL25pstrUsagePageGameControls
00064fac l     O .rodata	0000000e _ZL34pstrUsagePageGenericDeviceControls
00064fbc l     O .rodata	0000000c _ZL27pstrUsagePageKeyboardKeypad
0006d770 l     O .rwdata	00000005 _ZL17pstrUsagePageLEDs
0006d778 l     O .rwdata	00000007 _ZL19pstrUsagePageButton
0006d780 l     O .rwdata	00000008 _ZL20pstrUsagePageOrdinal
0006d788 l     O .rwdata	00000004 _ZL22pstrUsagePageTelephone
00064fc8 l     O .rodata	00000009 _ZL21pstrUsagePageConsumer
00064fd4 l     O .rodata	0000000a _ZL22pstrUsagePageDigitizer
0006d78c l     O .rwdata	00000004 _ZL16pstrUsagePagePID
0006d790 l     O .rwdata	00000008 _ZL20pstrUsagePageUnicode
00064fe0 l     O .rodata	0000000f _ZL32pstrUsagePageAlphaNumericDisplay
00064ff0 l     O .rodata	0000000e _ZL31pstrUsagePageMedicalInstruments
0006d798 l     O .rwdata	00000008 _ZL20pstrUsagePageMonitor
0006d7a0 l     O .rwdata	00000006 _ZL18pstrUsagePagePower
00065000 l     O .rodata	0000000e _ZL27pstrUsagePageBarCodeScanner
0006d7a8 l     O .rwdata	00000006 _ZL18pstrUsagePageScale
00065010 l     O .rodata	00000015 _ZL23pstrUsagePageMSRDevices
0006d7b0 l     O .rwdata	00000004 _ZL24pstrUsagePagePointOfSale
00065028 l     O .rodata	00000009 _ZL26pstrUsagePageCameraControl
0006d7b4 l     O .rwdata	00000007 _ZL19pstrUsagePageArcade
00065034 l     O .rodata	00000009 _ZL21pstrUsagePageReserved
00065040 l     O .rodata	0000000b _ZL26pstrUsagePageVendorDefined
0006d7bc l     O .rwdata	00000008 _ZL16pstrUsagePointer
0006d7c4 l     O .rwdata	00000006 _ZL14pstrUsageMouse
0006504c l     O .rodata	00000009 _ZL17pstrUsageJoystick
00065058 l     O .rodata	00000009 _ZL16pstrUsageGamePad
0006d7cc l     O .rwdata	00000005 _ZL17pstrUsageKeyboard
0006d7d4 l     O .rwdata	00000007 _ZL15pstrUsageKeypad
00065064 l     O .rodata	00000010 _ZL28pstrUsageMultiAxisController
00065074 l     O .rodata	00000014 _ZL31pstrUsageTabletPCSystemControls
0006d7dc l     O .rwdata	00000002 _ZL10pstrUsageX
0006d7e0 l     O .rwdata	00000002 _ZL10pstrUsageY
0006d7e4 l     O .rwdata	00000002 _ZL10pstrUsageZ
0006d7e8 l     O .rwdata	00000003 _ZL11pstrUsageRx
0006d7ec l     O .rwdata	00000003 _ZL11pstrUsageRy
0006d7f0 l     O .rwdata	00000003 _ZL11pstrUsageRz
0006d7f4 l     O .rwdata	00000007 _ZL15pstrUsageSlider
0006d7fc l     O .rwdata	00000005 _ZL13pstrUsageDial
0006d804 l     O .rwdata	00000006 _ZL14pstrUsageWheel
00065088 l     O .rodata	0000000b _ZL18pstrUsageHatSwitch
00065094 l     O .rodata	0000000c _ZL22pstrUsageCountedBuffer
000650a0 l     O .rodata	0000000b _ZL18pstrUsageByteCount
000650ac l     O .rodata	0000000e _ZL21pstrUsageMotionWakeup
0006d80c l     O .rwdata	00000006 _ZL14pstrUsageStart
0006d814 l     O .rwdata	00000004 _ZL15pstrUsageSelect
0006d818 l     O .rwdata	00000003 _ZL11pstrUsageVx
0006d81c l     O .rwdata	00000003 _ZL11pstrUsageVy
0006d820 l     O .rwdata	00000003 _ZL11pstrUsageVz
0006d824 l     O .rwdata	00000005 _ZL13pstrUsageVbrx
0006d82c l     O .rwdata	00000005 _ZL13pstrUsageVbry
0006d834 l     O .rwdata	00000005 _ZL13pstrUsageVbrz
0006d83c l     O .rwdata	00000004 _ZL12pstrUsageVno
000650bc l     O .rodata	0000000e _ZL28pstrUsageFeatureNotification
000650cc l     O .rodata	00000009 _ZL29pstrUsageResolutionMultiplier
000650d8 l     O .rodata	00000009 _ZL22pstrUsageSystemControl
000650e4 l     O .rodata	0000000d _ZL24pstrUsageSystemPowerDown
000650f4 l     O .rodata	0000000a _ZL20pstrUsageSystemSleep
00065100 l     O .rodata	0000000b _ZL21pstrUsageSystemWakeup
0006510c l     O .rodata	00000011 _ZL26pstrUsageSystemContextMenu
00065120 l     O .rodata	0000000e _ZL23pstrUsageSystemMainMenu
00065130 l     O .rodata	0000000d _ZL22pstrUsageSystemAppMenu
00065140 l     O .rodata	0000000e _ZL23pstrUsageSystemMenuHelp
00065150 l     O .rodata	0000000e _ZL23pstrUsageSystemMenuExit
00065160 l     O .rodata	00000010 _ZL25pstrUsageSystemMenuSelect
00065170 l     O .rodata	0000000f _ZL24pstrUsageSystemMenuRight
00065180 l     O .rodata	0000000e _ZL23pstrUsageSystemMenuLeft
00065190 l     O .rodata	0000000c _ZL21pstrUsageSystemMenuUp
0006519c l     O .rodata	0000000e _ZL23pstrUsageSystemMenuDown
000651ac l     O .rodata	00000011 _ZL26pstrUsageSystemColdRestart
000651c0 l     O .rodata	00000011 _ZL26pstrUsageSystemWarmRestart
000651d4 l     O .rodata	00000009 _ZL15pstrUsageDPadUp
000651e0 l     O .rodata	0000000b _ZL17pstrUsageDPadDown
000651ec l     O .rodata	0000000c _ZL18pstrUsageDPadRight
000651f8 l     O .rodata	0000000b _ZL17pstrUsageDPadLeft
00065204 l     O .rodata	00000009 _ZL19pstrUsageSystemDock
00065210 l     O .rodata	0000000b _ZL21pstrUsageSystemUndock
0006521c l     O .rodata	0000000a _ZL20pstrUsageSystemSetup
00065228 l     O .rodata	0000000a _ZL20pstrUsageSystemBreak
00065234 l     O .rodata	0000000c _ZL28pstrUsageSystemDebuggerBreak
00065240 l     O .rodata	0000000a _ZL25pstrUsageApplicationBreak
0006524c l     O .rodata	0000000c _ZL33pstrUsageApplicationDebuggerBreak
00065258 l     O .rodata	0000000d _ZL26pstrUsageSystemSpeakerMute
00065268 l     O .rodata	0000000a _ZL24pstrUsageSystemHibernate
00065274 l     O .rodata	0000000d _ZL28pstrUsageSystemDisplayInvert
00065284 l     O .rodata	0000000d _ZL30pstrUsageSystemDisplayInternal
00065294 l     O .rodata	0000000d _ZL30pstrUsageSystemDisplayExternal
000652a4 l     O .rodata	0000000e _ZL26pstrUsageSystemDisplayBoth
000652b4 l     O .rodata	0000000e _ZL26pstrUsageSystemDisplayDual
000652c4 l     O .rodata	00000015 _ZL34pstrUsageSystemDisplayToggleIntExt
000652dc l     O .rodata	00000016 _ZL32pstrUsageSystemDisplaySwapPriSec
000652f4 l     O .rodata	00000017 _ZL34pstrUsageSystemDisplayLCDAutoscale
0006530c l     O .rodata	00000010 _ZL31pstrUsageFlightSimulationDevice
0006531c l     O .rodata	0000000e _ZL35pstrUsageAutomobileSimulationDevice
0006532c l     O .rodata	0000000e _ZL29pstrUsageTankSimulationDevice
0006533c l     O .rodata	0000000f _ZL34pstrUsageSpaceshipSimulationDevice
0006534c l     O .rodata	0000000e _ZL34pstrUsageSubmarineSimulationDevice
0006535c l     O .rodata	0000000e _ZL32pstrUsageSailingSimulationDevice
0006536c l     O .rodata	0000000e _ZL34pstrUsageMotocicleSimulationDevice
0006537c l     O .rodata	0000000f _ZL31pstrUsageSportsSimulationDevice
0006538c l     O .rodata	0000000e _ZL33pstrUsageAirplaneSimulationDevice
0006539c l     O .rodata	0000000e _ZL35pstrUsageHelicopterSimulationDevice
000653ac l     O .rodata	00000016 _ZL36pstrUsageMagicCarpetSimulationDevice
000653c4 l     O .rodata	0000000e _ZL32pstrUsageBicycleSimulationDevice
000653d4 l     O .rodata	00000012 _ZL27pstrUsageFlightControlStick
000653e8 l     O .rodata	0000000d _ZL20pstrUsageFlightStick
000653f8 l     O .rodata	0000000c _ZL22pstrUsageCyclicControl
00065404 l     O .rodata	0000000c _ZL19pstrUsageCyclicTrim
00065410 l     O .rodata	0000000c _ZL19pstrUsageFlightYoke
0006541c l     O .rodata	0000000b _ZL21pstrUsageTrackControl
0006d840 l     O .rwdata	00000008 _ZL16pstrUsageAileron
00065428 l     O .rodata	0000000d _ZL20pstrUsageAileronTrim
00065438 l     O .rodata	00000011 _ZL26pstrUsageAntiTorqueControl
0006544c l     O .rodata	00000011 _ZL24pstrUsageAutopilotEnable
00065460 l     O .rodata	0000000e _ZL21pstrUsageChaffRelease
00065470 l     O .rodata	00000010 _ZL26pstrUsageCollectiveControl
00065480 l     O .rodata	0000000b _ZL18pstrUsageDiveBrake
0006548c l     O .rodata	00000013 _ZL34pstrUsageElectronicCountermeasures
000654a0 l     O .rodata	00000009 _ZL17pstrUsageElevator
000654ac l     O .rodata	0000000e _ZL21pstrUsageElevatorTrim
0006d848 l     O .rwdata	00000007 _ZL15pstrUsageRudder
000654bc l     O .rodata	00000009 _ZL17pstrUsageThrottle
000654c8 l     O .rodata	0000000c _ZL29pstrUsageFlightCommunications
000654d4 l     O .rodata	0000000e _ZL21pstrUsageFlareRelease
000654e4 l     O .rodata	0000000d _ZL20pstrUsageLandingGear
000654f4 l     O .rodata	0000000a _ZL17pstrUsageToeBrake
0006d850 l     O .rwdata	00000008 _ZL16pstrUsageTrigger
00065500 l     O .rodata	0000000c _ZL19pstrUsageWeaponsArm
0006550c l     O .rodata	0000000c _ZL22pstrUsageWeaponsSelect
00065518 l     O .rodata	0000000b _ZL18pstrUsageWingFlaps
0006d858 l     O .rwdata	00000006 _ZL20pstrUsageAccelerator
0006d860 l     O .rwdata	00000006 _ZL14pstrUsageBrake
0006d868 l     O .rwdata	00000007 _ZL15pstrUsageClutch
0006d870 l     O .rwdata	00000008 _ZL16pstrUsageShifter
00065524 l     O .rodata	00000009 _ZL17pstrUsageSteering
00065530 l     O .rodata	0000000b _ZL24pstrUsageTurretDirection
0006553c l     O .rodata	0000000b _ZL24pstrUsageBarrelElevation
00065548 l     O .rodata	0000000b _ZL18pstrUsageDivePlane
0006d878 l     O .rwdata	00000008 _ZL16pstrUsageBallast
00065554 l     O .rodata	0000000e _ZL21pstrUsageBicycleCrank
00065564 l     O .rodata	0000000c _ZL19pstrUsageHandleBars
00065570 l     O .rodata	0000000c _ZL19pstrUsageFrontBrake
0006557c l     O .rodata	0000000b _ZL18pstrUsageRearBrake
0006d880 l     O .rwdata	00000005 _ZL13pstrUsageBelt
00065588 l     O .rodata	0000000a _ZL17pstrUsageBodySuit
0006d888 l     O .rwdata	00000007 _ZL15pstrUsageFlexor
0006d890 l     O .rwdata	00000006 _ZL14pstrUsageGlove
00065594 l     O .rodata	0000000b _ZL20pstrUsageHeadTracker
000655a0 l     O .rodata	0000000a _ZL27pstrUsageHeadMountedDisplay
000655ac l     O .rodata	0000000b _ZL20pstrUsageHandTracker
000655b8 l     O .rodata	0000000b _ZL19pstrUsageOculometer
0006d898 l     O .rwdata	00000005 _ZL13pstrUsageVest
000655c4 l     O .rodata	0000000b _ZL26pstrUsageAnimatronicDevice
000655d0 l     O .rodata	0000000c _ZL21pstrUsageStereoEnable
000655dc l     O .rodata	0000000d _ZL22pstrUsageDisplayEnable
000655ec l     O .rodata	0000000d _ZL20pstrUsageBaseballBat
000655fc l     O .rodata	0000000a _ZL17pstrUsageGolfClub
00065608 l     O .rodata	0000000c _ZL22pstrUsageRowingMachine
00065614 l     O .rodata	0000000a _ZL18pstrUsageTreadmill
0006d8a0 l     O .rwdata	00000004 _ZL12pstrUsageOar
0006d8a4 l     O .rwdata	00000006 _ZL14pstrUsageSlope
0006d8ac l     O .rwdata	00000005 _ZL13pstrUsageRate
00065620 l     O .rodata	0000000c _ZL19pstrUsageStickSpeed
0006562c l     O .rodata	0000000f _ZL23pstrUsageStickFaceAngle
0006563c l     O .rodata	0000000f _ZL21pstrUsageStickHeelToe
0006564c l     O .rodata	0000000f _ZL26pstrUsageStickFollowThough
0006565c l     O .rodata	0000000c _ZL19pstrUsageStickTempo
00065668 l     O .rodata	0000000b _ZL18pstrUsageStickType
00065674 l     O .rodata	0000000b _ZL20pstrUsageStickHeight
0006d8b4 l     O .rwdata	00000007 _ZL15pstrUsagePutter
0006d8bc l     O .rwdata	00000007 _ZL14pstrUsage1Iron
0006d8c4 l     O .rwdata	00000007 _ZL14pstrUsage2Iron
0006d8cc l     O .rwdata	00000007 _ZL14pstrUsage3Iron
0006d8d4 l     O .rwdata	00000007 _ZL14pstrUsage4Iron
0006d8dc l     O .rwdata	00000007 _ZL14pstrUsage5Iron
0006d8e4 l     O .rwdata	00000007 _ZL14pstrUsage6Iron
0006d8ec l     O .rwdata	00000007 _ZL14pstrUsage7Iron
0006d8f4 l     O .rwdata	00000007 _ZL14pstrUsage8Iron
0006d8fc l     O .rwdata	00000007 _ZL14pstrUsage9Iron
0006d904 l     O .rwdata	00000008 _ZL15pstrUsage10Iron
0006d90c l     O .rwdata	00000008 _ZL15pstrUsage11Iron
00065680 l     O .rodata	0000000b _ZL18pstrUsageSandWedge
0006568c l     O .rodata	0000000b _ZL18pstrUsageLoftWedge
00065698 l     O .rodata	0000000a _ZL19pstrUsagePowerWedge
0006d914 l     O .rwdata	00000007 _ZL14pstrUsage1Wood
0006d91c l     O .rwdata	00000007 _ZL14pstrUsage3Wood
0006d924 l     O .rwdata	00000007 _ZL14pstrUsage5Wood
0006d92c l     O .rwdata	00000007 _ZL14pstrUsage7Wood
0006d934 l     O .rwdata	00000007 _ZL14pstrUsage9Wood
000656a4 l     O .rodata	0000000d _ZL25pstrUsage3DGameController
000656b4 l     O .rodata	0000000c _ZL22pstrUsagePinballDevice
0006d93c l     O .rwdata	00000008 _ZL18pstrUsageGunDevice
0006d944 l     O .rwdata	00000004 _ZL20pstrUsagePointOfView
000656c0 l     O .rodata	00000010 _ZL22pstrUsageTurnRightLeft
000656d0 l     O .rodata	0000000f _ZL29pstrUsagePitchForwardBackward
000656e0 l     O .rodata	00000010 _ZL22pstrUsageRollRightLeft
000656f0 l     O .rodata	00000010 _ZL22pstrUsageMoveRightLeft
00065700 l     O .rodata	0000000e _ZL28pstrUsageMoveForwardBackward
00065710 l     O .rodata	0000000d _ZL19pstrUsageMoveUpDown
00065720 l     O .rodata	00000010 _ZL22pstrUsageLeanRightLeft
00065730 l     O .rodata	0000000e _ZL28pstrUsageLeanForwardBackward
00065740 l     O .rodata	0000000e _ZL20pstrUsageHeightOfPOV
0006d948 l     O .rwdata	00000008 _ZL16pstrUsageFlipper
00065750 l     O .rodata	0000000f _ZL25pstrUsageSecondaryFlipper
0006d950 l     O .rwdata	00000005 _ZL13pstrUsageBump
00065760 l     O .rodata	00000009 _ZL16pstrUsageNewGame
0006576c l     O .rodata	0000000b _ZL18pstrUsageShootBall
0006d958 l     O .rwdata	00000007 _ZL15pstrUsagePlayer
00065778 l     O .rodata	00000009 _ZL16pstrUsageGunBolt
00065784 l     O .rodata	00000009 _ZL16pstrUsageGunClip
0006d960 l     O .rwdata	00000008 _ZL20pstrUsageGunSelector
00065790 l     O .rodata	0000000e _ZL22pstrUsageGunSingleShot
000657a0 l     O .rodata	0000000a _ZL17pstrUsageGunBurst
000657ac l     O .rodata	00000009 _ZL21pstrUsageGunAutomatic
000657b8 l     O .rodata	0000000b _ZL18pstrUsageGunSafety
000657c4 l     O .rodata	00000012 _ZL24pstrUsageGamepadFireJump
000657d8 l     O .rodata	0000000d _ZL23pstrUsageGamepadTrigger
000657e8 l     O .rodata	0000000d _ZL24pstrUsageBatteryStrength
000657f8 l     O .rodata	0000000c _ZL24pstrUsageWirelessChannel
00065804 l     O .rodata	0000000c _ZL19pstrUsageWirelessID
00065810 l     O .rodata	00000017 _ZL32pstrUsageDiscoverWirelessControl
00065828 l     O .rodata	00000014 _ZL32pstrUsageSecurityCodeCharEntered
0006583c l     O .rodata	00000015 _ZL31pstrUsageSecurityCodeCharErased
00065854 l     O .rodata	00000011 _ZL28pstrUsageSecurityCodeCleared
00065868 l     O .rodata	00000009 _ZL16pstrUsageNumLock
00065874 l     O .rodata	0000000a _ZL17pstrUsageCapsLock
00065880 l     O .rodata	0000000c _ZL19pstrUsageScrollLock
0006d968 l     O .rwdata	00000008 _ZL16pstrUsageCompose
0006d970 l     O .rwdata	00000005 _ZL13pstrUsageKana
0006d978 l     O .rwdata	00000004 _ZL14pstrUsagePower
0006d97c l     O .rwdata	00000006 _ZL14pstrUsageShift
0006d984 l     O .rwdata	00000004 _ZL21pstrUsageDoNotDisturb
0006d988 l     O .rwdata	00000005 _ZL13pstrUsageMute
0006588c l     O .rodata	0000000a _ZL19pstrUsageToneEnable
00065898 l     O .rodata	0000000e _ZL22pstrUsageHighCutFilter
000658a8 l     O .rodata	0000000d _ZL21pstrUsageLowCutFilter
0006d990 l     O .rwdata	00000008 _ZL24pstrUsageEqualizerEnable
000658b8 l     O .rodata	0000000f _ZL21pstrUsageSoundFieldOn
000658c8 l     O .rodata	0000000c _ZL19pstrUsageSurroundOn
0006d998 l     O .rwdata	00000007 _ZL15pstrUsageRepeat
0006d9a0 l     O .rwdata	00000007 _ZL15pstrUsageStereo
000658d4 l     O .rodata	00000011 _ZL27pstrUsageSamplingRateDetect
000658e8 l     O .rodata	00000009 _ZL17pstrUsageSpinning
0006d9a8 l     O .rwdata	00000004 _ZL12pstrUsageCAV
0006d9ac l     O .rwdata	00000004 _ZL12pstrUsageCLV
000658f4 l     O .rodata	00000012 _ZL30pstrUsageRecordingFormatDetect
00065908 l     O .rodata	00000009 _ZL16pstrUsageOffHook
0006d9b0 l     O .rwdata	00000005 _ZL13pstrUsageRing
00065914 l     O .rodata	00000009 _ZL23pstrUsageMessageWaiting
00065920 l     O .rodata	0000000a _ZL17pstrUsageDataMode
0006d9b8 l     O .rwdata	00000007 _ZL25pstrUsageBatteryOperation
0006d9c0 l     O .rwdata	00000007 _ZL18pstrUsageBatteryOK
0006d9c8 l     O .rwdata	00000008 _ZL19pstrUsageBatteryLow
0006d9d0 l     O .rwdata	00000008 _ZL16pstrUsageSpeaker
0006592c l     O .rodata	00000009 _ZL16pstrUsageHeadSet
0006d9d8 l     O .rwdata	00000005 _ZL13pstrUsageHold
0006d9e0 l     O .rwdata	00000004 _ZL19pstrUsageMicrophone
00065938 l     O .rodata	00000009 _ZL17pstrUsageCoverage
00065944 l     O .rodata	0000000b _ZL18pstrUsageNightMode
00065950 l     O .rodata	0000000b _ZL18pstrUsageSendCalls
0006595c l     O .rodata	0000000c _ZL19pstrUsageCallPickup
0006d9e4 l     O .rwdata	00000005 _ZL19pstrUsageConference
00065968 l     O .rodata	00000009 _ZL16pstrUsageStandBy
0006d9ec l     O .rwdata	00000007 _ZL17pstrUsageCameraOn
0006d9f4 l     O .rwdata	00000008 _ZL18pstrUsageCameraOff
0006d9fc l     O .rwdata	00000008 _ZL15pstrUsageOnLine
00065974 l     O .rodata	00000009 _ZL16pstrUsageOffLine
0006da04 l     O .rwdata	00000005 _ZL13pstrUsageBusy
0006da0c l     O .rwdata	00000006 _ZL14pstrUsageReady
00065980 l     O .rodata	0000000a _ZL17pstrUsagePaperOut
0006598c l     O .rodata	0000000a _ZL17pstrUsagePaperJam
0006da14 l     O .rwdata	00000007 _ZL15pstrUsageRemote
0006da1c l     O .rwdata	00000004 _ZL16pstrUsageForward
0006da20 l     O .rwdata	00000004 _ZL16pstrUsageReverse
0006da24 l     O .rwdata	00000005 _ZL13pstrUsageStop
0006da2c l     O .rwdata	00000007 _ZL15pstrUsageRewind
00065998 l     O .rodata	00000009 _ZL20pstrUsageFastForward
0006da34 l     O .rwdata	00000005 _ZL13pstrUsagePlay
0006da3c l     O .rwdata	00000006 _ZL14pstrUsagePause
0006da44 l     O .rwdata	00000004 _ZL15pstrUsageRecord
0006da48 l     O .rwdata	00000006 _ZL14pstrUsageError
000659a4 l     O .rodata	0000000e _ZL26pstrUsageSelectedIndicator
000659b4 l     O .rodata	00000011 _ZL23pstrUsageInUseIndicator
000659c8 l     O .rodata	00000015 _ZL27pstrUsageMultiModeIndicator
0006da50 l     O .rwdata	00000007 _ZL20pstrUsageIndicatorOn
000659e0 l     O .rodata	0000000a _ZL23pstrUsageIndicatorFlash
000659ec l     O .rodata	0000000d _ZL27pstrUsageIndicatorSlowBlink
000659fc l     O .rodata	0000000d _ZL27pstrUsageIndicatorFastBlink
0006da58 l     O .rwdata	00000008 _ZL21pstrUsageIndicatorOff
00065a0c l     O .rodata	0000000e _ZL20pstrUsageFlashOnTime
00065a1c l     O .rodata	00000011 _ZL24pstrUsageSlowBlinkOnTime
00065a30 l     O .rodata	00000012 _ZL25pstrUsageSlowBlinkOffTime
00065a44 l     O .rodata	00000011 _ZL24pstrUsageFastBlinkOnTime
00065a58 l     O .rodata	00000012 _ZL25pstrUsageFastBlinkOffTime
00065a6c l     O .rodata	00000010 _ZL23pstrUsageIndicatorColor
0006da60 l     O .rwdata	00000008 _ZL21pstrUsageIndicatorRed
00065a7c l     O .rodata	0000000a _ZL23pstrUsageIndicatorGreen
00065a88 l     O .rodata	0000000a _ZL23pstrUsageIndicatorAmber
0006da68 l     O .rwdata	00000008 _ZL25pstrUsageGenericIndicator
00065a94 l     O .rodata	0000000c _ZL22pstrUsageSystemSuspend
00065aa0 l     O .rodata	0000000d _ZL31pstrUsageExternalPowerConnected
0006da70 l     O .rwdata	00000006 _ZL14pstrUsagePhone
00065ab0 l     O .rodata	0000000a _ZL25pstrUsageAnsweringMachine
00065abc l     O .rodata	0000000a _ZL24pstrUsageMessageControls
0006da78 l     O .rwdata	00000008 _ZL16pstrUsageHandset
0006da80 l     O .rwdata	00000008 _ZL16pstrUsageHeadset
00065ac8 l     O .rodata	0000000c _ZL24pstrUsageTelephonyKeyPad
00065ad4 l     O .rodata	0000000c _ZL27pstrUsageProgrammableButton
0006da88 l     O .rwdata	00000008 _ZL19pstrUsageHookSwitch
0006da90 l     O .rwdata	00000006 _ZL14pstrUsageFlash
0006da98 l     O .rwdata	00000008 _ZL16pstrUsageFeature
0006daa0 l     O .rwdata	00000007 _ZL15pstrUsageRedial
00065ae0 l     O .rodata	00000009 _ZL17pstrUsageTransfer
0006daa8 l     O .rwdata	00000005 _ZL13pstrUsageDrop
0006dab0 l     O .rwdata	00000005 _ZL13pstrUsagePark
00065aec l     O .rodata	0000000a _ZL21pstrUsageForwardCalls
00065af8 l     O .rodata	00000009 _ZL26pstrUsageAlternateFunction
0006dab8 l     O .rwdata	00000005 _ZL13pstrUsageLine
00065b04 l     O .rodata	0000000a _ZL21pstrUsageSpeakerPhone
00065b10 l     O .rodata	0000000a _ZL19pstrUsageRingEnable
00065b1c l     O .rodata	00000009 _ZL19pstrUsageRingSelect
00065b28 l     O .rodata	0000000b _ZL18pstrUsagePhoneMute
00065b34 l     O .rodata	0000000a _ZL17pstrUsageCallerID
0006dac0 l     O .rwdata	00000005 _ZL13pstrUsageSend
00065b40 l     O .rodata	0000000b _ZL18pstrUsageSpeedDial
00065b4c l     O .rodata	0000000a _ZL20pstrUsageStoreNumber
00065b58 l     O .rodata	0000000b _ZL21pstrUsageRecallNumber
00065b64 l     O .rodata	0000000a _ZL23pstrUsagePhoneDirectory
00065b70 l     O .rodata	0000000b _ZL18pstrUsageVoiceMail
00065b7c l     O .rodata	0000000d _ZL20pstrUsageScreenCalls
0006dac8 l     O .rwdata	00000004 _ZL16pstrUsageMessage
00065b8c l     O .rodata	0000000e _ZL20pstrUsageAnswerOnOff
00065b9c l     O .rodata	00000011 _ZL23pstrUsageInsideDialTone
00065bb0 l     O .rodata	00000012 _ZL24pstrUsageOutsideDialTone
00065bc4 l     O .rodata	00000011 _ZL23pstrUsageInsideRingTone
00065bd8 l     O .rodata	00000012 _ZL24pstrUsageOutsideRingTone
00065bec l     O .rodata	00000010 _ZL25pstrUsagePriorityRingTone
00065bfc l     O .rodata	00000010 _ZL23pstrUsageInsideRingback
00065c0c l     O .rodata	00000012 _ZL25pstrUsagePriorityRingback
00065c20 l     O .rodata	0000000d _ZL21pstrUsageLineBusyTone
00065c30 l     O .rodata	0000000d _ZL20pstrUsageReorderTone
00065c40 l     O .rodata	0000000f _ZL24pstrUsageCallWaitingTone
00065c50 l     O .rodata	0000000c _ZL26pstrUsageConfirmationTone1
00065c5c l     O .rodata	0000000c _ZL26pstrUsageConfirmationTone2
00065c68 l     O .rodata	0000000a _ZL17pstrUsageTonesOff
00065c74 l     O .rodata	00000011 _ZL24pstrUsageOutsideRingback
0006dacc l     O .rwdata	00000007 _ZL15pstrUsageRinger
0006dad4 l     O .rwdata	00000002 _ZL18pstrUsagePhoneKey0
0006dad8 l     O .rwdata	00000002 _ZL18pstrUsagePhoneKey1
0006dadc l     O .rwdata	00000002 _ZL18pstrUsagePhoneKey2
0006dae0 l     O .rwdata	00000002 _ZL18pstrUsagePhoneKey3
0006dae4 l     O .rwdata	00000002 _ZL18pstrUsagePhoneKey4
0006dae8 l     O .rwdata	00000002 _ZL18pstrUsagePhoneKey5
0006daec l     O .rwdata	00000002 _ZL18pstrUsagePhoneKey6
0006daf0 l     O .rwdata	00000002 _ZL18pstrUsagePhoneKey7
0006daf4 l     O .rwdata	00000002 _ZL18pstrUsagePhoneKey8
0006daf8 l     O .rwdata	00000002 _ZL18pstrUsagePhoneKey9
0006dafc l     O .rwdata	00000002 _ZL21pstrUsagePhoneKeyStar
0006db00 l     O .rwdata	00000002 _ZL22pstrUsagePhoneKeyPound
0006db04 l     O .rwdata	00000002 _ZL18pstrUsagePhoneKeyA
0006db08 l     O .rwdata	00000002 _ZL18pstrUsagePhoneKeyB
0006db0c l     O .rwdata	00000002 _ZL18pstrUsagePhoneKeyC
0006db10 l     O .rwdata	00000002 _ZL18pstrUsagePhoneKeyD
00065c88 l     O .rodata	0000000e _ZL24pstrUsageConsumerControl
00065c98 l     O .rodata	0000000c _ZL22pstrUsageNumericKeyPad
00065ca4 l     O .rodata	0000000a _ZL18pstrUsageHeadphone
00065cb0 l     O .rodata	00000009 _ZL25pstrUsageGraphicEqualizer
0006db14 l     O .rwdata	00000004 _ZL15pstrUsagePlus10
0006db18 l     O .rwdata	00000005 _ZL16pstrUsagePlus100
0006db20 l     O .rwdata	00000006 _ZL13pstrUsageAMPM
0006db28 l     O .rwdata	00000006 _ZL14pstrUsageReset
0006db30 l     O .rwdata	00000006 _ZL14pstrUsageSleep
00065cbc l     O .rodata	0000000c _ZL19pstrUsageSleepAfter
00065cc8 l     O .rodata	0000000b _ZL18pstrUsageSleepMode
0006db38 l     O .rwdata	00000008 _ZL21pstrUsageIllumination
00065cd4 l     O .rodata	0000000a _ZL24pstrUsageFunctionButtons
0006db40 l     O .rwdata	00000005 _ZL13pstrUsageMenu
00065ce0 l     O .rodata	0000000a _ZL17pstrUsageMenuPick
0006db48 l     O .rwdata	00000008 _ZL15pstrUsageMenuUp
00065cec l     O .rodata	0000000a _ZL17pstrUsageMenuDown
00065cf8 l     O .rodata	0000000a _ZL17pstrUsageMenuLeft
00065d04 l     O .rodata	0000000b _ZL18pstrUsageMenuRight
00065d10 l     O .rodata	00000009 _ZL19pstrUsageMenuEscape
00065d1c l     O .rodata	0000000d _ZL26pstrUsageMenuValueIncrease
00065d2c l     O .rodata	0000000d _ZL26pstrUsageMenuValueDecrease
00065d3c l     O .rodata	0000000c _ZL21pstrUsageDataOnScreen
00065d48 l     O .rodata	0000000c _ZL22pstrUsageClosedCaption
00065d54 l     O .rodata	00000010 _ZL28pstrUsageClosedCaptionSelect
0006db50 l     O .rwdata	00000007 _ZL14pstrUsageVCRTV
00065d64 l     O .rodata	0000000d _ZL22pstrUsageBroadcastMode
00065d74 l     O .rodata	00000009 _ZL17pstrUsageSnapshot
0006db58 l     O .rwdata	00000006 _ZL14pstrUsageStill
0006db60 l     O .rwdata	00000004 _ZL18pstrUsageSelection
00065d80 l     O .rodata	0000000b _ZL24pstrUsageAssignSelection
00065d8c l     O .rodata	0000000a _ZL17pstrUsageModeStep
00065d98 l     O .rodata	0000000c _ZL19pstrUsageRecallLast
00065da4 l     O .rodata	0000000d _ZL21pstrUsageEnterChannel
00065db4 l     O .rodata	0000000a _ZL19pstrUsageOrderMovie
0006db64 l     O .rwdata	00000008 _ZL16pstrUsageChannel
0006db6c l     O .rwdata	00000008 _ZL23pstrUsageMediaSelection
00065dc0 l     O .rodata	0000000d _ZL28pstrUsageMediaSelectComputer
00065dd0 l     O .rodata	0000000b _ZL22pstrUsageMediaSelectTV
00065ddc l     O .rodata	0000000c _ZL23pstrUsageMediaSelectWWW
00065de8 l     O .rodata	0000000c _ZL23pstrUsageMediaSelectDVD
00065df4 l     O .rodata	0000000c _ZL29pstrUsageMediaSelectTelephone
00065e00 l     O .rodata	0000000b _ZL32pstrUsageMediaSelectProgramGuide
00065e0c l     O .rodata	0000000c _ZL30pstrUsageMediaSelectVideoPhone
00065e18 l     O .rodata	0000000e _ZL25pstrUsageMediaSelectGames
00065e28 l     O .rodata	0000000c _ZL28pstrUsageMediaSelectMessages
00065e34 l     O .rodata	0000000b _ZL22pstrUsageMediaSelectCD
00065e40 l     O .rodata	0000000c _ZL23pstrUsageMediaSelectVCR
00065e4c l     O .rodata	0000000e _ZL25pstrUsageMediaSelectTuner
0006db74 l     O .rwdata	00000005 _ZL13pstrUsageQuit
0006db7c l     O .rwdata	00000005 _ZL13pstrUsageHelp
00065e5c l     O .rodata	0000000d _ZL24pstrUsageMediaSelectTape
00065e6c l     O .rodata	0000000c _ZL25pstrUsageMediaSelectCable
00065e78 l     O .rodata	0000000c _ZL29pstrUsageMediaSelectSatellite
00065e84 l     O .rodata	0000000e _ZL28pstrUsageMediaSelectSecurity
00065e94 l     O .rodata	0000000d _ZL24pstrUsageMediaSelectHome
00065ea4 l     O .rodata	0000000d _ZL24pstrUsageMediaSelectCall
0006db84 l     O .rwdata	00000007 _ZL25pstrUsageChannelIncrement
0006db8c l     O .rwdata	00000007 _ZL25pstrUsageChannelDecrement
00065eb4 l     O .rodata	0000000c _ZL23pstrUsageMediaSelectSAP
0006db94 l     O .rwdata	00000005 _ZL16pstrUsageVCRPlus
0006db9c l     O .rwdata	00000005 _ZL13pstrUsageOnce
0006dba4 l     O .rwdata	00000006 _ZL14pstrUsageDaily
0006dbac l     O .rwdata	00000007 _ZL15pstrUsageWeekly
0006dbb4 l     O .rwdata	00000008 _ZL16pstrUsageMonthly
00065ec0 l     O .rodata	0000000b _ZL22pstrUsageScanNextTrack
00065ecc l     O .rodata	0000000b _ZL26pstrUsageScanPreviousTrack
0006dbbc l     O .rwdata	00000006 _ZL14pstrUsageEject
0006dbc4 l     O .rwdata	00000007 _ZL19pstrUsageRandomPlay
00065ed8 l     O .rodata	00000009 _ZL19pstrUsageSelectDisk
00065ee4 l     O .rodata	00000009 _ZL18pstrUsageEnterDisk
00065ef0 l     O .rodata	00000009 _ZL17pstrUsageTracking
00065efc l     O .rodata	00000009 _ZL20pstrUsageTrackNormal
00065f08 l     O .rodata	00000009 _ZL21pstrUsageSlowTracking
0006dbcc l     O .rwdata	00000008 _ZL21pstrUsageFrameForward
00065f14 l     O .rodata	00000009 _ZL23pstrUsageFrameBackwards
0006dbd4 l     O .rwdata	00000005 _ZL13pstrUsageMark
00065f20 l     O .rodata	00000009 _ZL18pstrUsageClearMark
00065f2c l     O .rodata	00000009 _ZL23pstrUsageRepeatFromMark
00065f38 l     O .rodata	0000000c _ZL21pstrUsageReturnToMark
00065f44 l     O .rodata	00000010 _ZL26pstrUsageSearchMarkForward
00065f54 l     O .rodata	00000011 _ZL28pstrUsageSearchMarkBackwards
00065f68 l     O .rodata	0000000e _ZL21pstrUsageCounterReset
00065f78 l     O .rodata	0000000d _ZL20pstrUsageShowCounter
00065f88 l     O .rodata	0000000a _ZL26pstrUsageTrackingIncrement
00065f94 l     O .rodata	0000000a _ZL26pstrUsageTrackingDecrement
00065fa0 l     O .rodata	0000000b _ZL18pstrUsageStopEject
00065fac l     O .rodata	0000000b _ZL18pstrUsagePlayPause
00065fb8 l     O .rodata	0000000a _ZL17pstrUsagePlaySkip
0006dbdc l     O .rwdata	00000004 _ZL15pstrUsageVolume
0006dbe0 l     O .rwdata	00000008 _ZL16pstrUsageBalance
0006dbe8 l     O .rwdata	00000005 _ZL13pstrUsageBass
0006dbf0 l     O .rwdata	00000007 _ZL15pstrUsageTreble
00065fc4 l     O .rodata	0000000b _ZL18pstrUsageBassBoost
00065fd0 l     O .rodata	00000009 _ZL21pstrUsageSurroundMode
0006dbf8 l     O .rwdata	00000005 _ZL17pstrUsageLoudness
0006dc00 l     O .rwdata	00000004 _ZL12pstrUsageMPX
0006dc04 l     O .rwdata	00000008 _ZL24pstrUsageVolumeIncrement
0006dc0c l     O .rwdata	00000008 _ZL24pstrUsageVolumeDecrement
0006dc14 l     O .rwdata	00000006 _ZL20pstrUsageSpeedSelect
00065fdc l     O .rodata	0000000b _ZL22pstrUsagePlaybackSpeed
00065fe8 l     O .rodata	00000009 _ZL21pstrUsageStandardPlay
00065ff4 l     O .rodata	0000000a _ZL17pstrUsageLongPlay
00066000 l     O .rodata	00000009 _ZL21pstrUsageExtendedPlay
0006dc1c l     O .rwdata	00000005 _ZL13pstrUsageSlow
0006600c l     O .rodata	00000009 _ZL18pstrUsageFanEnable
00066018 l     O .rodata	0000000a _ZL17pstrUsageFanSpeed
00066024 l     O .rodata	0000000b _ZL20pstrUsageLightEnable
00066030 l     O .rodata	00000010 _ZL31pstrUsageLightIlluminationLevel
00066040 l     O .rodata	0000000d _ZL29pstrUsageClimateControlEnable
00066050 l     O .rodata	0000000a _ZL24pstrUsageRoomTemperature
0006605c l     O .rodata	0000000b _ZL23pstrUsageSecurityEnable
00066068 l     O .rodata	00000009 _ZL18pstrUsageFireAlarm
00066074 l     O .rodata	0000000b _ZL20pstrUsagePoliceAlarm
0006dc24 l     O .rwdata	00000005 _ZL18pstrUsageProximity
0006dc2c l     O .rwdata	00000007 _ZL15pstrUsageMotion
00066080 l     O .rodata	0000000a _ZL19pstrUsageDuresAlarm
0006608c l     O .rodata	0000000b _ZL20pstrUsageHoldupAlarm
0006dc34 l     O .rwdata	00000008 _ZL21pstrUsageMedicalAlarm
00066098 l     O .rodata	0000000e _ZL21pstrUsageBalanceRight
000660a8 l     O .rodata	0000000d _ZL20pstrUsageBalanceLeft
000660b8 l     O .rodata	00000009 _ZL22pstrUsageBassIncrement
000660c4 l     O .rodata	00000009 _ZL22pstrUsageBassDecrement
000660d0 l     O .rodata	0000000b _ZL24pstrUsageTrebleIncrement
000660dc l     O .rodata	0000000b _ZL24pstrUsageTrebleDecrement
0006dc3c l     O .rwdata	00000008 _ZL22pstrUsageSpeakerSystem
0006dc44 l     O .rwdata	00000008 _ZL20pstrUsageChannelLeft
000660e8 l     O .rodata	00000009 _ZL21pstrUsageChannelRight
000660f4 l     O .rodata	0000000a _ZL22pstrUsageChannelCenter
00066100 l     O .rodata	00000009 _ZL21pstrUsageChannelFront
0006610c l     O .rodata	0000000e _ZL27pstrUsageChannelCenterFront
0006dc4c l     O .rwdata	00000008 _ZL20pstrUsageChannelSide
0006611c l     O .rodata	0000000c _ZL24pstrUsageChannelSurround
00066128 l     O .rodata	00000010 _ZL34pstrUsageChannelLowFreqEnhancement
0006dc54 l     O .rwdata	00000007 _ZL19pstrUsageChannelTop
0006dc5c l     O .rwdata	00000007 _ZL23pstrUsageChannelUnknown
0006dc64 l     O .rwdata	00000007 _ZL19pstrUsageSubChannel
00066138 l     O .rodata	0000000b _ZL28pstrUsageSubChannelIncrement
00066144 l     O .rodata	0000000b _ZL28pstrUsageSubChannelDecrement
00066150 l     O .rodata	0000000c _ZL32pstrUsageAlternateAudioIncrement
0006615c l     O .rodata	0000000c _ZL32pstrUsageAlternateAudioDecrement
00066168 l     O .rodata	00000010 _ZL33pstrUsageApplicationLaunchButtons
00066178 l     O .rodata	00000012 _ZL33pstrUsageALLaunchButtonConfigTool
0006618c l     O .rodata	0000000b _ZL29pstrUsageALProgrammableButton
00066198 l     O .rodata	00000011 _ZL32pstrUsageALConsumerControlConfig
000661ac l     O .rodata	0000000d _ZL24pstrUsageALWordProcessor
000661bc l     O .rodata	0000000c _ZL21pstrUsageALTextEditor
000661c8 l     O .rodata	0000000d _ZL22pstrUsageALSpreadsheet
000661d8 l     O .rodata	0000000e _ZL25pstrUsageALGraphicsEditor
000661e8 l     O .rodata	0000000f _ZL26pstrUsageALPresentationApp
000661f8 l     O .rodata	0000000a _ZL22pstrUsageALDatabaseApp
00066204 l     O .rodata	0000000e _ZL22pstrUsageALEmailReader
00066214 l     O .rodata	0000000b _ZL21pstrUsageALNewsreader
00066220 l     O .rodata	0000000d _ZL20pstrUsageALVoicemail
00066230 l     O .rodata	0000000d _ZL30pstrUsageALContactsAddressBook
00066240 l     O .rodata	00000010 _ZL27pstrUsageALCalendarSchedule
00066250 l     O .rodata	00000010 _ZL29pstrUsageALTaskProjectManager
00066260 l     O .rodata	00000012 _ZL29pstrUsageALLogJournalTimecard
00066274 l     O .rodata	00000010 _ZL27pstrUsageALCheckbookFinance
0006dc6c l     O .rwdata	00000008 _ZL21pstrUsageALCalculator
00066284 l     O .rodata	00000011 _ZL28pstrUsageALAVCapturePlayback
00066298 l     O .rodata	00000011 _ZL30pstrUsageALLocalMachineBrowser
000662ac l     O .rodata	00000010 _ZL21pstrUsageALLANWANBrow
000662bc l     O .rodata	0000000e _ZL26pstrUsageALInternetBrowser
000662cc l     O .rodata	0000000f _ZL30pstrUsageALRemoteNetISPConnect
000662dc l     O .rodata	0000000c _ZL28pstrUsageALNetworkConference
000662e8 l     O .rodata	0000000c _ZL22pstrUsageALNetworkChat
000662f4 l     O .rodata	0000000c _ZL26pstrUsageALTelephonyDialer
00066300 l     O .rodata	00000009 _ZL16pstrUsageALLogon
0006630c l     O .rodata	0000000a _ZL17pstrUsageALLogoff
00066318 l     O .rodata	00000010 _ZL22pstrUsageALLogonLogoff
00066328 l     O .rodata	00000015 _ZL25pstrUsageALTermLockScrSav
00066340 l     O .rodata	0000000c _ZL24pstrUsageALControlPannel
0006634c l     O .rodata	0000000b _ZL34pstrUsageALCommandLineProcessorRun
00066358 l     O .rodata	0000000c _ZL29pstrUsageALProcessTaskManager
00066364 l     O .rodata	0000000b _ZL32pstrUsageALSelectTaskApplication
00066370 l     O .rodata	0000000c _ZL30pstrUsageALNextTaskApplication
0006637c l     O .rodata	0000000c _ZL34pstrUsageALPreviousTaskApplication
00066388 l     O .rodata	00000012 _ZL32pstrUsageALPreemptiveHaltTaskApp
0006639c l     O .rodata	0000000c _ZL31pstrUsageALIntegratedHelpCenter
0006dc74 l     O .rwdata	00000008 _ZL20pstrUsageALDocuments
000663a8 l     O .rodata	00000009 _ZL20pstrUsageALThesaurus
0006dc7c l     O .rwdata	00000008 _ZL21pstrUsageALDictionary
000663b4 l     O .rodata	0000000b _ZL18pstrUsageALDesktop
000663c0 l     O .rodata	0000000d _ZL21pstrUsageALSpellCheck
000663d0 l     O .rodata	0000000c _ZL23pstrUsageALGrammarCheck
000663dc l     O .rodata	00000010 _ZL25pstrUsageALWirelessStatus
000663ec l     O .rodata	0000000e _ZL25pstrUsageALKeyboardLayout
000663fc l     O .rodata	0000000f _ZL26pstrUsageALVirusProtection
0006640c l     O .rodata	0000000b _ZL21pstrUsageALEncryption
00066418 l     O .rodata	0000000b _ZL22pstrUsageALScreenSaver
00066424 l     O .rodata	0000000a _ZL17pstrUsageALAlarms
00066430 l     O .rodata	00000009 _ZL16pstrUsageALClock
0006643c l     O .rodata	0000000d _ZL22pstrUsageALFileBrowser
0006644c l     O .rodata	0000000b _ZL22pstrUsageALPowerStatus
00066458 l     O .rodata	0000000c _ZL23pstrUsageALImageBrowser
00066464 l     O .rodata	0000000c _ZL23pstrUsageALAudioBrowser
00066470 l     O .rodata	0000000c _ZL23pstrUsageALMovieBrowser
0006647c l     O .rodata	00000012 _ZL31pstrUsageALDigitalRightsManager
00066490 l     O .rodata	0000000e _ZL24pstrUsageALDigitalWallet
000664a0 l     O .rodata	0000000c _ZL27pstrUsageALInstantMessaging
000664ac l     O .rodata	00000011 _ZL29pstrUsageALOEMFeaturesBrowser
000664c0 l     O .rodata	0000000b _ZL18pstrUsageALOEMHelp
000664cc l     O .rodata	0000000e _ZL26pstrUsageALOnlineCommunity
000664dc l     O .rodata	00000011 _ZL35pstrUsageALEntertainmentContentBrow
000664f0 l     O .rodata	00000014 _ZL32pstrUsageALOnlineShoppingBrowser
00066504 l     O .rodata	00000011 _ZL28pstrUsageALSmartCardInfoHelp
00066518 l     O .rodata	0000000f _ZL34pstrUsageALMarketMonitorFinBrowser
00066528 l     O .rodata	00000017 _ZL32pstrUsageALCustomCorpNewsBrowser
00066540 l     O .rodata	00000013 _ZL32pstrUsageALOnlineActivityBrowser
00066554 l     O .rodata	0000000f _ZL32pstrUsageALResearchSearchBrowser
00066564 l     O .rodata	0000000e _ZL22pstrUsageALAudioPlayer
00066574 l     O .rodata	00000011 _ZL30pstrUsageGenericGUIAppControls
0006dc84 l     O .rwdata	00000007 _ZL14pstrUsageACNew
0006dc8c l     O .rwdata	00000008 _ZL15pstrUsageACOpen
00066588 l     O .rodata	00000009 _ZL16pstrUsageACClose
0006dc94 l     O .rwdata	00000008 _ZL15pstrUsageACExit
0006dc9c l     O .rwdata	00000007 _ZL19pstrUsageACMaximize
0006dca4 l     O .rwdata	00000007 _ZL19pstrUsageACMinimize
0006dcac l     O .rwdata	00000008 _ZL15pstrUsageACSave
00066594 l     O .rodata	00000009 _ZL16pstrUsageACPrint
0006dcb4 l     O .rwdata	00000008 _ZL21pstrUsageACProperties
0006dcbc l     O .rwdata	00000008 _ZL15pstrUsageACUndo
0006dcc4 l     O .rwdata	00000008 _ZL15pstrUsageACCopy
0006dccc l     O .rwdata	00000007 _ZL14pstrUsageACCut
000665a0 l     O .rodata	00000009 _ZL16pstrUsageACPaste
000665ac l     O .rodata	0000000b _ZL20pstrUsageACSelectAll
0006dcd4 l     O .rwdata	00000008 _ZL15pstrUsageACFind
000665b8 l     O .rodata	00000010 _ZL25pstrUsageACFindAndReplace
000665c8 l     O .rodata	0000000a _ZL17pstrUsageACSearch
0006dcdc l     O .rwdata	00000008 _ZL15pstrUsageACGoto
0006dce4 l     O .rwdata	00000008 _ZL15pstrUsageACHome
0006dcec l     O .rwdata	00000008 _ZL15pstrUsageACBack
0006dcf4 l     O .rwdata	00000007 _ZL18pstrUsageACForward
0006dcfc l     O .rwdata	00000008 _ZL15pstrUsageACStop
000665d4 l     O .rodata	0000000b _ZL18pstrUsageACRefresh
000665e0 l     O .rodata	0000000d _ZL23pstrUsageACPreviousLink
000665f0 l     O .rodata	0000000d _ZL19pstrUsageACNextLink
00066600 l     O .rodata	0000000b _ZL20pstrUsageACBookmarks
0006dd04 l     O .rwdata	00000008 _ZL18pstrUsageACHistory
0006660c l     O .rodata	0000000a _ZL24pstrUsageACSubscriptions
00066618 l     O .rodata	0000000b _ZL17pstrUsageACZoomIn
00066624 l     O .rodata	0000000c _ZL18pstrUsageACZoomOut
0006dd0c l     O .rwdata	00000008 _ZL15pstrUsageACZoom
00066630 l     O .rodata	0000000c _ZL25pstrUsageACFullScreenView
0006663c l     O .rodata	0000000d _ZL21pstrUsageACNormalView
0006664c l     O .rodata	0000000c _ZL21pstrUsageACViewToggle
00066658 l     O .rodata	0000000d _ZL19pstrUsageACScrollUp
00066668 l     O .rodata	0000000f _ZL21pstrUsageACScrollDown
00066678 l     O .rodata	0000000a _ZL17pstrUsageACScroll
00066684 l     O .rodata	0000000c _ZL18pstrUsageACPanLeft
00066690 l     O .rodata	0000000d _ZL19pstrUsageACPanRight
0006dd14 l     O .rwdata	00000007 _ZL14pstrUsageACPan
000666a0 l     O .rodata	0000000b _ZL20pstrUsageACNewWindow
000666ac l     O .rodata	0000000e _ZL20pstrUsageACTileHoriz
000666bc l     O .rodata	0000000d _ZL19pstrUsageACTileVert
0006dd1c l     O .rwdata	00000008 _ZL17pstrUsageACFormat
0006dd24 l     O .rwdata	00000008 _ZL15pstrUsageACEdit
0006dd2c l     O .rwdata	00000008 _ZL15pstrUsageACBold
0006dd34 l     O .rwdata	00000008 _ZL18pstrUsageACItalics
000666cc l     O .rodata	00000009 _ZL20pstrUsageACUnderline
000666d8 l     O .rodata	0000000a _ZL24pstrUsageACStrikethrough
0006dd3c l     O .rwdata	00000007 _ZL20pstrUsageACSubscript
000666e4 l     O .rodata	00000009 _ZL22pstrUsageACSuperscript
000666f0 l     O .rodata	0000000c _ZL18pstrUsageACAllCaps
000666fc l     O .rodata	0000000a _ZL17pstrUsageACRotate
00066708 l     O .rodata	0000000a _ZL17pstrUsageACResize
00066714 l     O .rodata	00000009 _ZL25pstrUsageACFlipHorizontal
00066720 l     O .rodata	00000009 _ZL23pstrUsageACFlipVertical
0006672c l     O .rodata	00000009 _ZL27pstrUsageACMirrorHorizontal
00066738 l     O .rodata	00000009 _ZL25pstrUsageACMirrorVertical
00066744 l     O .rodata	0000000b _ZL21pstrUsageACFontSelect
00066750 l     O .rodata	0000000b _ZL20pstrUsageACFontColor
0006675c l     O .rodata	0000000c _ZL19pstrUsageACFontSize
00066768 l     O .rodata	0000000d _ZL22pstrUsageACJustifyLeft
00066778 l     O .rodata	0000000f _ZL25pstrUsageACJustifyCenterH
00066788 l     O .rodata	0000000e _ZL23pstrUsageACJustifyRight
00066798 l     O .rodata	00000010 _ZL24pstrUsageACJustifyBlockH
000667a8 l     O .rodata	0000000c _ZL21pstrUsageACJustifyTop
000667b4 l     O .rodata	0000000f _ZL25pstrUsageACJustifyCenterV
000667c4 l     O .rodata	0000000c _ZL24pstrUsageACJustifyBottom
000667d0 l     O .rodata	00000010 _ZL24pstrUsageACJustifyBlockV
000667e0 l     O .rodata	0000000e _ZL25pstrUsageACIndentDecrease
000667f0 l     O .rodata	0000000e _ZL25pstrUsageACIndentIncrease
00066800 l     O .rodata	0000000c _ZL23pstrUsageACNumberedList
0006680c l     O .rodata	0000000b _ZL27pstrUsageACRestartNumbering
00066818 l     O .rodata	0000000c _ZL23pstrUsageACBulletedList
00066824 l     O .rodata	0000000b _ZL18pstrUsageACPromote
00066830 l     O .rodata	0000000a _ZL17pstrUsageACDemote
0006dd44 l     O .rwdata	00000007 _ZL14pstrUsageACYes
0006dd4c l     O .rwdata	00000006 _ZL13pstrUsageACNo
0006683c l     O .rodata	0000000a _ZL17pstrUsageACCancel
0006dd54 l     O .rwdata	00000008 _ZL18pstrUsageACCatalog
0006dd5c l     O .rwdata	00000007 _ZL20pstrUsageACBuyChkout
00066848 l     O .rodata	0000000c _ZL20pstrUsageACAddToCart
0006dd64 l     O .rwdata	00000008 _ZL17pstrUsageACExpand
00066854 l     O .rodata	0000000d _ZL20pstrUsageACExpandAll
00066864 l     O .rodata	0000000c _ZL19pstrUsageACCollapse
00066870 l     O .rodata	00000010 _ZL22pstrUsageACCollapseAll
00066880 l     O .rodata	0000000d _ZL23pstrUsageACPrintPreview
00066890 l     O .rodata	0000000e _ZL23pstrUsageACPasteSpecial
000668a0 l     O .rodata	0000000c _ZL21pstrUsageACInsertMode
0006dd6c l     O .rwdata	00000007 _ZL17pstrUsageACDelete
0006dd74 l     O .rwdata	00000008 _ZL15pstrUsageACLock
000668ac l     O .rodata	0000000a _ZL17pstrUsageACUnlock
0006dd7c l     O .rwdata	00000008 _ZL18pstrUsageACProtect
000668b8 l     O .rodata	0000000a _ZL20pstrUsageACUnprotect
000668c4 l     O .rodata	0000000f _ZL24pstrUsageACAttachComment
000668d4 l     O .rodata	0000000c _ZL24pstrUsageACDeleteComment
000668e0 l     O .rodata	0000000d _ZL22pstrUsageACViewComment
000668f0 l     O .rodata	0000000c _ZL21pstrUsageACSelectWord
000668fc l     O .rodata	0000000c _ZL25pstrUsageACSelectSentence
00066908 l     O .rodata	0000000c _ZL26pstrUsageACSelectParagraph
00066914 l     O .rodata	0000000b _ZL23pstrUsageACSelectColumn
00066920 l     O .rodata	0000000b _ZL20pstrUsageACSelectRow
0006692c l     O .rodata	0000000b _ZL22pstrUsageACSelectTable
00066938 l     O .rodata	0000000b _ZL23pstrUsageACSelectObject
0006dd84 l     O .rwdata	00000008 _ZL21pstrUsageACRedoRepeat
0006dd8c l     O .rwdata	00000008 _ZL15pstrUsageACSort
00066944 l     O .rodata	0000000c _ZL24pstrUsageACSortAscending
00066950 l     O .rodata	0000000d _ZL25pstrUsageACSortDescending
0006dd94 l     O .rwdata	00000008 _ZL17pstrUsageACFilter
00066960 l     O .rodata	0000000b _ZL19pstrUsageACSetClock
0006696c l     O .rodata	0000000c _ZL20pstrUsageACViewClock
00066978 l     O .rodata	0000000e _ZL25pstrUsageACSelectTimeZone
00066988 l     O .rodata	0000000e _ZL23pstrUsageACEditTimeZone
00066998 l     O .rodata	0000000b _ZL19pstrUsageACSetAlarm
000669a4 l     O .rodata	0000000b _ZL21pstrUsageACClearAlarm
000669b0 l     O .rodata	0000000b _ZL22pstrUsageACSnoozeAlarm
000669bc l     O .rodata	0000000b _ZL21pstrUsageACResetAlarm
0006dd9c l     O .rwdata	00000008 _ZL21pstrUsageACSyncronize
000669c8 l     O .rodata	0000000b _ZL22pstrUsageACSendReceive
000669d4 l     O .rodata	0000000a _ZL17pstrUsageACSendTo
000669e0 l     O .rodata	00000009 _ZL16pstrUsageACReply
000669ec l     O .rodata	0000000d _ZL19pstrUsageACReplyAll
000669fc l     O .rodata	0000000b _ZL25pstrUsageACForwardMessage
0006dda4 l     O .rwdata	00000007 _ZL15pstrUsageACSend
00066a08 l     O .rodata	0000000c _ZL21pstrUsageACAttachFile
0006ddac l     O .rwdata	00000008 _ZL17pstrUsageACUpload
0006ddb4 l     O .rwdata	00000008 _ZL19pstrUsageACDownload
00066a14 l     O .rodata	0000000b _ZL21pstrUsageACSetBorders
00066a20 l     O .rodata	0000000b _ZL20pstrUsageACInsertRow
00066a2c l     O .rodata	0000000b _ZL23pstrUsageACInsertColumn
00066a38 l     O .rodata	0000000c _ZL21pstrUsageACInsertFile
00066a44 l     O .rodata	0000000b _ZL24pstrUsageACInsertPicture
00066a50 l     O .rodata	0000000b _ZL23pstrUsageACInsertObject
00066a5c l     O .rodata	0000000b _ZL23pstrUsageACInsertSymbol
00066a68 l     O .rodata	0000000b _ZL23pstrUsageACSaveAndClose
00066a74 l     O .rodata	0000000a _ZL17pstrUsageACRename
00066a80 l     O .rodata	00000009 _ZL16pstrUsageACMerge
00066a8c l     O .rodata	00000009 _ZL16pstrUsageACSplit
00066a98 l     O .rodata	0000000c _ZL32pstrUsageACDistributeHorizontaly
00066aa4 l     O .rodata	0000000c _ZL30pstrUsageACDistributeVerticaly
00066ab0 l     O .rodata	0000000a _ZL18pstrUsageDigitizer
0006ddbc l     O .rwdata	00000004 _ZL12pstrUsagePen
00066abc l     O .rodata	0000000a _ZL17pstrUsageLightPen
00066ac8 l     O .rodata	0000000a _ZL20pstrUsageTouchScreen
00066ad4 l     O .rodata	0000000a _ZL17pstrUsageTouchPad
00066ae0 l     O .rodata	0000000a _ZL19pstrUsageWhiteBoard
00066aec l     O .rodata	00000010 _ZL35pstrUsageCoordinateMeasuringMachine
0006ddc0 l     O .rwdata	00000008 _ZL20pstrUsage3DDigitizer
00066afc l     O .rodata	0000000c _ZL22pstrUsageStereoPlotter
0006ddc8 l     O .rwdata	00000008 _ZL23pstrUsageArticulatedArm
00066b08 l     O .rodata	00000009 _ZL17pstrUsageArmature
00066b14 l     O .rodata	00000011 _ZL31pstrUsageMultiplePointDigitizer
00066b28 l     O .rodata	00000010 _ZL22pstrUsageFreeSpaceWand
0006ddd0 l     O .rwdata	00000007 _ZL15pstrUsageStylus
0006ddd8 l     O .rwdata	00000005 _ZL13pstrUsagePuck
0006dde0 l     O .rwdata	00000007 _ZL15pstrUsageFinger
00066b38 l     O .rodata	0000000a _ZL20pstrUsageTipPressure
00066b44 l     O .rodata	0000000a _ZL23pstrUsageBarrelPressure
00066b50 l     O .rodata	00000009 _ZL16pstrUsageInRange
0006dde8 l     O .rwdata	00000006 _ZL14pstrUsageTouch
0006ddf0 l     O .rwdata	00000008 _ZL16pstrUsageUntouch
0006ddf8 l     O .rwdata	00000004 _ZL12pstrUsageTap
0006ddfc l     O .rwdata	00000005 _ZL16pstrUsageQuality
00066b5c l     O .rodata	0000000b _ZL18pstrUsageDataValid
00066b68 l     O .rodata	0000000f _ZL24pstrUsageTransducerIndex
00066b78 l     O .rodata	0000000f _ZL27pstrUsageTabletFunctionKeys
00066b88 l     O .rodata	0000000e _ZL26pstrUsageProgramChangeKeys
0006de04 l     O .rwdata	00000007 _ZL15pstrUsageInvert
0006de0c l     O .rwdata	00000007 _ZL14pstrUsageXTilt
0006de14 l     O .rwdata	00000007 _ZL14pstrUsageYTilt
0006de1c l     O .rwdata	00000008 _ZL16pstrUsageAzimuth
00066b98 l     O .rodata	00000009 _ZL17pstrUsageAltitude
0006de24 l     O .rwdata	00000006 _ZL14pstrUsageTwist
0006de2c l     O .rwdata	00000007 _ZL18pstrUsageTipSwitch
00066ba4 l     O .rodata	0000000c _ZL27pstrUsageSecondaryTipSwitch
0006de34 l     O .rwdata	00000007 _ZL21pstrUsageBarrelSwitch
0006de3c l     O .rwdata	00000007 _ZL15pstrUsageEraser
00066bb0 l     O .rodata	00000009 _ZL19pstrUsageTabletPick
00066bbc l     O .rodata	0000000e _ZL28pstrUsageAlphanumericDisplay
00066bcc l     O .rodata	00000009 _ZL25pstrUsageBitmappedDisplay
00066bd8 l     O .rodata	0000000e _ZL32pstrUsageDisplayAttributesReport
00066be8 l     O .rodata	0000000c _ZL26pstrUsageASCIICharacterSet
00066bf4 l     O .rodata	0000000d _ZL21pstrUsageDataReadBack
00066c04 l     O .rodata	0000000c _ZL21pstrUsageFontReadBack
00066c10 l     O .rodata	0000000e _ZL29pstrUsageDisplayControlReport
00066c20 l     O .rodata	00000009 _ZL21pstrUsageClearDisplay
00066c2c l     O .rodata	0000000e _ZL25pstrUsageScreenSaverDelay
00066c3c l     O .rodata	0000000d _ZL26pstrUsageScreenSaverEnable
00066c4c l     O .rodata	00000009 _ZL23pstrUsageVerticalScroll
00066c58 l     O .rodata	00000009 _ZL25pstrUsageHorizontalScroll
00066c64 l     O .rodata	00000009 _ZL24pstrUsageCharacterReport
00066c70 l     O .rodata	0000000a _ZL20pstrUsageDisplayData
00066c7c l     O .rodata	0000000a _ZL22pstrUsageDisplayStatus
00066c88 l     O .rodata	0000000c _ZL23pstrUsageStatusNotReady
00066c94 l     O .rodata	0000000b _ZL20pstrUsageStatusReady
00066ca0 l     O .rodata	00000010 _ZL35pstrUsageErrorNotALoadableCharacter
00066cb0 l     O .rodata	00000010 _ZL33pstrUsageErrorFotDataCanNotBeRead
00066cc0 l     O .rodata	0000000c _ZL29pstrUsageCursorPositionReport
0006de44 l     O .rwdata	00000004 _ZL12pstrUsageRow
0006de48 l     O .rwdata	00000004 _ZL15pstrUsageColumn
0006de4c l     O .rwdata	00000005 _ZL13pstrUsageRows
0006de54 l     O .rwdata	00000005 _ZL16pstrUsageColumns
00066ccc l     O .rodata	0000000c _ZL28pstrUsageCursorPixelPosition
00066cd8 l     O .rodata	00000009 _ZL19pstrUsageCursorMode
00066ce4 l     O .rodata	00000009 _ZL21pstrUsageCursorEnable
00066cf0 l     O .rodata	00000009 _ZL20pstrUsageCursorBlink
0006de5c l     O .rwdata	00000008 _ZL19pstrUsageFontReport
00066cfc l     O .rodata	00000009 _ZL17pstrUsageFontData
00066d08 l     O .rodata	0000000a _ZL23pstrUsageCharacterWidth
00066d14 l     O .rodata	0000000a _ZL24pstrUsageCharacterHeight
00066d20 l     O .rodata	0000000d _ZL35pstrUsageCharacterSpacingHorizontal
00066d30 l     O .rodata	0000000d _ZL33pstrUsageCharacterSpacingVertical
00066d40 l     O .rodata	0000000d _ZL23pstrUsageUnicodeCharset
00066d50 l     O .rodata	0000000a _ZL21pstrUsageFont7Segment
00066d5c l     O .rodata	0000000a _ZL26pstrUsage7SegmentDirectMap
00066d68 l     O .rodata	0000000b _ZL22pstrUsageFont14Segment
00066d74 l     O .rodata	0000000b _ZL27pstrUsage14SegmentDirectMap
00066d80 l     O .rodata	0000000c _ZL26pstrUsageDisplayBrightness
00066d8c l     O .rodata	0000000c _ZL24pstrUsageDisplayContrast
00066d98 l     O .rodata	0000000a _ZL27pstrUsageCharacterAttribute
00066da4 l     O .rodata	0000000c _ZL26pstrUsageAttributeReadback
00066db0 l     O .rodata	0000000a _ZL22pstrUsageAttributeData
00066dbc l     O .rodata	0000000e _ZL29pstrUsageCharAttributeEnhance
00066dcc l     O .rodata	0000000f _ZL31pstrUsageCharAttributeUnderline
00066ddc l     O .rodata	0000000f _ZL27pstrUsageCharAttributeBlink
00066dec l     O .rodata	0000000b _ZL20pstrUsageBitmapSizeX
00066df8 l     O .rodata	0000000b _ZL20pstrUsageBitmapSizeY
00066e04 l     O .rodata	0000000d _ZL23pstrUsageBitDepthFormat
00066e14 l     O .rodata	0000000a _ZL27pstrUsageDisplayOrientation
0006de64 l     O .rwdata	00000008 _ZL22pstrUsagePaletteReport
00066e20 l     O .rodata	0000000e _ZL24pstrUsagePaletteDataSize
00066e30 l     O .rodata	0000000d _ZL26pstrUsagePaletteDataOffset
00066e40 l     O .rodata	00000009 _ZL20pstrUsagePaletteData
00066e4c l     O .rodata	00000009 _ZL19pstrUsageBlitReport
00066e58 l     O .rodata	0000000d _ZL24pstrUsageBlitRectangleX1
00066e68 l     O .rodata	0000000d _ZL24pstrUsageBlitRectangleY1
00066e78 l     O .rodata	0000000d _ZL24pstrUsageBlitRectangleX2
00066e88 l     O .rodata	0000000d _ZL24pstrUsageBlitRectangleY2
00066e98 l     O .rodata	0000000a _ZL17pstrUsageBlitData
00066ea4 l     O .rodata	00000009 _ZL19pstrUsageSoftButton
00066eb0 l     O .rodata	0000000c _ZL21pstrUsageSoftButtonID
00066ebc l     O .rodata	0000000e _ZL23pstrUsageSoftButtonSide
00066ecc l     O .rodata	0000000e _ZL26pstrUsageSoftButtonOffset1
00066edc l     O .rodata	0000000e _ZL26pstrUsageSoftButtonOffset2
00066eec l     O .rodata	0000000d _ZL25pstrUsageSoftButtonReport
00066efc l     O .rodata	0000000d _ZL26pstrUsageMedicalUltrasound
0006de6c l     O .rwdata	00000008 _ZL23pstrUsageVCRAcquisition
0006de74 l     O .rwdata	00000007 _ZL19pstrUsageFreezeThaw
00066f0c l     O .rodata	0000000b _ZL18pstrUsageClipStore
0006de7c l     O .rwdata	00000007 _ZL15pstrUsageUpdate
0006de84 l     O .rwdata	00000005 _ZL13pstrUsageNext
0006de8c l     O .rwdata	00000005 _ZL13pstrUsageSave
0006de94 l     O .rwdata	00000006 _ZL14pstrUsagePrint
00066f18 l     O .rodata	00000009 _ZL25pstrUsageMicrophoneEnable
0006de9c l     O .rwdata	00000005 _ZL13pstrUsageCine
00066f24 l     O .rodata	0000000a _ZL22pstrUsageTransmitPower
0006dea4 l     O .rwdata	00000006 _ZL14pstrUsageFocus
0006deac l     O .rwdata	00000006 _ZL14pstrUsageDepth
00066f30 l     O .rodata	0000000d _ZL24pstrUsageSoftStepPrimary
00066f40 l     O .rodata	0000000d _ZL26pstrUsageSoftStepSecondary
00066f50 l     O .rodata	0000000f _ZL30pstrUsageDepthGainCompensation
00066f60 l     O .rodata	00000009 _ZL19pstrUsageZoomSelect
00066f6c l     O .rodata	00000009 _ZL19pstrUsageZoomAdjust
00066f78 l     O .rodata	00000012 _ZL34pstrUsageSpectralDopplerModeSelect
00066f8c l     O .rodata	00000012 _ZL34pstrUsageSpectralDopplerModeAdjust
00066fa0 l     O .rodata	00000013 _ZL31pstrUsageColorDopplerModeSelect
00066fb4 l     O .rodata	00000013 _ZL31pstrUsageColorDopplerModeAdjust
00066fc8 l     O .rodata	00000010 _ZL25pstrUsageMotionModeSelect
00066fd8 l     O .rodata	00000010 _ZL25pstrUsageMotionModeAdjust
00066fe8 l     O .rodata	0000000c _ZL21pstrUsage2DModeSelect
00066ff4 l     O .rodata	0000000c _ZL21pstrUsage2DModeAdjust
00067000 l     O .rodata	0000000e _ZL26pstrUsageSoftControlSelect
00067010 l     O .rodata	0000000e _ZL26pstrUsageSoftControlAdjust
00000000 l    df *ABS*	00000000 message.cpp
0006dec0 l     O .rwdata	00000001 _ZL9SPI_MODE0
0006dec1 l     O .rwdata	00000001 _ZL9SPI_MODE1
0006dec2 l     O .rwdata	00000001 _ZL9SPI_MODE2
0006dec3 l     O .rwdata	00000001 _ZL9SPI_MODE3
00000000 l    df *ABS*	00000000 parsetools.cpp
0006dec8 l     O .rwdata	00000001 _ZL9SPI_MODE0
0006dec9 l     O .rwdata	00000001 _ZL9SPI_MODE1
0006deca l     O .rwdata	00000001 _ZL9SPI_MODE2
0006decb l     O .rwdata	00000001 _ZL9SPI_MODE3
00000000 l    df *ABS*	00000000 sgtl5000.cpp
00000000 l    df *ABS*	00000000 usbh_midi.cpp
0006decc l     O .rwdata	00000001 _ZL9SPI_MODE0
0006decd l     O .rwdata	00000001 _ZL9SPI_MODE1
0006dece l     O .rwdata	00000001 _ZL9SPI_MODE2
0006decf l     O .rwdata	00000001 _ZL9SPI_MODE3
00067249 l     O .rodata	00000010 _ZN13_ns_USBH_MIDIL7cin2lenE
00067259 l     O .rodata	00000010 _ZN13_ns_USBH_MIDIL7sys2cinE
000490a8 l     F .text	00000144 .LTHUNK0
00000000 l    df *ABS*	00000000 usbhid.cpp
0006ded8 l     O .rwdata	00000001 _ZL9SPI_MODE0
0006ded9 l     O .rwdata	00000001 _ZL9SPI_MODE1
0006deda l     O .rwdata	00000001 _ZL9SPI_MODE2
0006dedb l     O .rwdata	00000001 _ZL9SPI_MODE3
0006dedc l     O .rwdata	00000002 _ZL9pstrSpace
0006dee0 l     O .rwdata	00000003 _ZL8pstrCRLF
0006dee4 l     O .rwdata	00000002 _ZL13pstrSingleTab
0006dee8 l     O .rwdata	00000003 _ZL13pstrDoubleTab
0006deec l     O .rwdata	00000004 _ZL13pstrTripleTab
0006def0 l     O .rwdata	00000006 _ZL22pstrUsagePageUndefined
00067324 l     O .rodata	00000012 _ZL35pstrUsagePageGenericDesktopControls
00067338 l     O .rodata	0000000b _ZL31pstrUsagePageSimulationControls
00067344 l     O .rodata	00000009 _ZL23pstrUsagePageVRControls
00067350 l     O .rodata	0000000c _ZL26pstrUsagePageSportControls
0006735c l     O .rodata	0000000b _ZL25pstrUsagePageGameControls
00067368 l     O .rodata	0000000e _ZL34pstrUsagePageGenericDeviceControls
00067378 l     O .rodata	0000000c _ZL27pstrUsagePageKeyboardKeypad
0006def8 l     O .rwdata	00000005 _ZL17pstrUsagePageLEDs
0006df00 l     O .rwdata	00000007 _ZL19pstrUsagePageButton
0006df08 l     O .rwdata	00000008 _ZL20pstrUsagePageOrdinal
0006df10 l     O .rwdata	00000004 _ZL22pstrUsagePageTelephone
00067384 l     O .rodata	00000009 _ZL21pstrUsagePageConsumer
00067390 l     O .rodata	0000000a _ZL22pstrUsagePageDigitizer
0006df14 l     O .rwdata	00000004 _ZL16pstrUsagePagePID
0006df18 l     O .rwdata	00000008 _ZL20pstrUsagePageUnicode
0006739c l     O .rodata	0000000f _ZL32pstrUsagePageAlphaNumericDisplay
000673ac l     O .rodata	0000000e _ZL31pstrUsagePageMedicalInstruments
0006df20 l     O .rwdata	00000008 _ZL20pstrUsagePageMonitor
0006df28 l     O .rwdata	00000006 _ZL18pstrUsagePagePower
000673bc l     O .rodata	0000000e _ZL27pstrUsagePageBarCodeScanner
0006df30 l     O .rwdata	00000006 _ZL18pstrUsagePageScale
000673cc l     O .rodata	00000015 _ZL23pstrUsagePageMSRDevices
0006df38 l     O .rwdata	00000004 _ZL24pstrUsagePagePointOfSale
000673e4 l     O .rodata	00000009 _ZL26pstrUsagePageCameraControl
0006df3c l     O .rwdata	00000007 _ZL19pstrUsagePageArcade
000673f0 l     O .rodata	00000009 _ZL21pstrUsagePageReserved
000673fc l     O .rodata	0000000b _ZL26pstrUsagePageVendorDefined
0006df44 l     O .rwdata	00000008 _ZL16pstrUsagePointer
0006df4c l     O .rwdata	00000006 _ZL14pstrUsageMouse
00067408 l     O .rodata	00000009 _ZL17pstrUsageJoystick
00067414 l     O .rodata	00000009 _ZL16pstrUsageGamePad
0006df54 l     O .rwdata	00000005 _ZL17pstrUsageKeyboard
0006df5c l     O .rwdata	00000007 _ZL15pstrUsageKeypad
00067420 l     O .rodata	00000010 _ZL28pstrUsageMultiAxisController
00067430 l     O .rodata	00000014 _ZL31pstrUsageTabletPCSystemControls
0006df64 l     O .rwdata	00000002 _ZL10pstrUsageX
0006df68 l     O .rwdata	00000002 _ZL10pstrUsageY
0006df6c l     O .rwdata	00000002 _ZL10pstrUsageZ
0006df70 l     O .rwdata	00000003 _ZL11pstrUsageRx
0006df74 l     O .rwdata	00000003 _ZL11pstrUsageRy
0006df78 l     O .rwdata	00000003 _ZL11pstrUsageRz
0006df7c l     O .rwdata	00000007 _ZL15pstrUsageSlider
0006df84 l     O .rwdata	00000005 _ZL13pstrUsageDial
0006df8c l     O .rwdata	00000006 _ZL14pstrUsageWheel
00067444 l     O .rodata	0000000b _ZL18pstrUsageHatSwitch
00067450 l     O .rodata	0000000c _ZL22pstrUsageCountedBuffer
0006745c l     O .rodata	0000000b _ZL18pstrUsageByteCount
00067468 l     O .rodata	0000000e _ZL21pstrUsageMotionWakeup
0006df94 l     O .rwdata	00000006 _ZL14pstrUsageStart
0006df9c l     O .rwdata	00000004 _ZL15pstrUsageSelect
0006dfa0 l     O .rwdata	00000003 _ZL11pstrUsageVx
0006dfa4 l     O .rwdata	00000003 _ZL11pstrUsageVy
0006dfa8 l     O .rwdata	00000003 _ZL11pstrUsageVz
0006dfac l     O .rwdata	00000005 _ZL13pstrUsageVbrx
0006dfb4 l     O .rwdata	00000005 _ZL13pstrUsageVbry
0006dfbc l     O .rwdata	00000005 _ZL13pstrUsageVbrz
0006dfc4 l     O .rwdata	00000004 _ZL12pstrUsageVno
00067478 l     O .rodata	0000000e _ZL28pstrUsageFeatureNotification
00067488 l     O .rodata	00000009 _ZL29pstrUsageResolutionMultiplier
00067494 l     O .rodata	00000009 _ZL22pstrUsageSystemControl
000674a0 l     O .rodata	0000000d _ZL24pstrUsageSystemPowerDown
000674b0 l     O .rodata	0000000a _ZL20pstrUsageSystemSleep
000674bc l     O .rodata	0000000b _ZL21pstrUsageSystemWakeup
000674c8 l     O .rodata	00000011 _ZL26pstrUsageSystemContextMenu
000674dc l     O .rodata	0000000e _ZL23pstrUsageSystemMainMenu
000674ec l     O .rodata	0000000d _ZL22pstrUsageSystemAppMenu
000674fc l     O .rodata	0000000e _ZL23pstrUsageSystemMenuHelp
0006750c l     O .rodata	0000000e _ZL23pstrUsageSystemMenuExit
0006751c l     O .rodata	00000010 _ZL25pstrUsageSystemMenuSelect
0006752c l     O .rodata	0000000f _ZL24pstrUsageSystemMenuRight
0006753c l     O .rodata	0000000e _ZL23pstrUsageSystemMenuLeft
0006754c l     O .rodata	0000000c _ZL21pstrUsageSystemMenuUp
00067558 l     O .rodata	0000000e _ZL23pstrUsageSystemMenuDown
00067568 l     O .rodata	00000011 _ZL26pstrUsageSystemColdRestart
0006757c l     O .rodata	00000011 _ZL26pstrUsageSystemWarmRestart
00067590 l     O .rodata	00000009 _ZL15pstrUsageDPadUp
0006759c l     O .rodata	0000000b _ZL17pstrUsageDPadDown
000675a8 l     O .rodata	0000000c _ZL18pstrUsageDPadRight
000675b4 l     O .rodata	0000000b _ZL17pstrUsageDPadLeft
000675c0 l     O .rodata	00000009 _ZL19pstrUsageSystemDock
000675cc l     O .rodata	0000000b _ZL21pstrUsageSystemUndock
000675d8 l     O .rodata	0000000a _ZL20pstrUsageSystemSetup
000675e4 l     O .rodata	0000000a _ZL20pstrUsageSystemBreak
000675f0 l     O .rodata	0000000c _ZL28pstrUsageSystemDebuggerBreak
000675fc l     O .rodata	0000000a _ZL25pstrUsageApplicationBreak
00067608 l     O .rodata	0000000c _ZL33pstrUsageApplicationDebuggerBreak
00067614 l     O .rodata	0000000d _ZL26pstrUsageSystemSpeakerMute
00067624 l     O .rodata	0000000a _ZL24pstrUsageSystemHibernate
00067630 l     O .rodata	0000000d _ZL28pstrUsageSystemDisplayInvert
00067640 l     O .rodata	0000000d _ZL30pstrUsageSystemDisplayInternal
00067650 l     O .rodata	0000000d _ZL30pstrUsageSystemDisplayExternal
00067660 l     O .rodata	0000000e _ZL26pstrUsageSystemDisplayBoth
00067670 l     O .rodata	0000000e _ZL26pstrUsageSystemDisplayDual
00067680 l     O .rodata	00000015 _ZL34pstrUsageSystemDisplayToggleIntExt
00067698 l     O .rodata	00000016 _ZL32pstrUsageSystemDisplaySwapPriSec
000676b0 l     O .rodata	00000017 _ZL34pstrUsageSystemDisplayLCDAutoscale
000676c8 l     O .rodata	00000010 _ZL31pstrUsageFlightSimulationDevice
000676d8 l     O .rodata	0000000e _ZL35pstrUsageAutomobileSimulationDevice
000676e8 l     O .rodata	0000000e _ZL29pstrUsageTankSimulationDevice
000676f8 l     O .rodata	0000000f _ZL34pstrUsageSpaceshipSimulationDevice
00067708 l     O .rodata	0000000e _ZL34pstrUsageSubmarineSimulationDevice
00067718 l     O .rodata	0000000e _ZL32pstrUsageSailingSimulationDevice
00067728 l     O .rodata	0000000e _ZL34pstrUsageMotocicleSimulationDevice
00067738 l     O .rodata	0000000f _ZL31pstrUsageSportsSimulationDevice
00067748 l     O .rodata	0000000e _ZL33pstrUsageAirplaneSimulationDevice
00067758 l     O .rodata	0000000e _ZL35pstrUsageHelicopterSimulationDevice
00067768 l     O .rodata	00000016 _ZL36pstrUsageMagicCarpetSimulationDevice
00067780 l     O .rodata	0000000e _ZL32pstrUsageBicycleSimulationDevice
00067790 l     O .rodata	00000012 _ZL27pstrUsageFlightControlStick
000677a4 l     O .rodata	0000000d _ZL20pstrUsageFlightStick
000677b4 l     O .rodata	0000000c _ZL22pstrUsageCyclicControl
000677c0 l     O .rodata	0000000c _ZL19pstrUsageCyclicTrim
000677cc l     O .rodata	0000000c _ZL19pstrUsageFlightYoke
000677d8 l     O .rodata	0000000b _ZL21pstrUsageTrackControl
0006dfc8 l     O .rwdata	00000008 _ZL16pstrUsageAileron
000677e4 l     O .rodata	0000000d _ZL20pstrUsageAileronTrim
000677f4 l     O .rodata	00000011 _ZL26pstrUsageAntiTorqueControl
00067808 l     O .rodata	00000011 _ZL24pstrUsageAutopilotEnable
0006781c l     O .rodata	0000000e _ZL21pstrUsageChaffRelease
0006782c l     O .rodata	00000010 _ZL26pstrUsageCollectiveControl
0006783c l     O .rodata	0000000b _ZL18pstrUsageDiveBrake
00067848 l     O .rodata	00000013 _ZL34pstrUsageElectronicCountermeasures
0006785c l     O .rodata	00000009 _ZL17pstrUsageElevator
00067868 l     O .rodata	0000000e _ZL21pstrUsageElevatorTrim
0006dfd0 l     O .rwdata	00000007 _ZL15pstrUsageRudder
00067878 l     O .rodata	00000009 _ZL17pstrUsageThrottle
00067884 l     O .rodata	0000000c _ZL29pstrUsageFlightCommunications
00067890 l     O .rodata	0000000e _ZL21pstrUsageFlareRelease
000678a0 l     O .rodata	0000000d _ZL20pstrUsageLandingGear
000678b0 l     O .rodata	0000000a _ZL17pstrUsageToeBrake
0006dfd8 l     O .rwdata	00000008 _ZL16pstrUsageTrigger
000678bc l     O .rodata	0000000c _ZL19pstrUsageWeaponsArm
000678c8 l     O .rodata	0000000c _ZL22pstrUsageWeaponsSelect
000678d4 l     O .rodata	0000000b _ZL18pstrUsageWingFlaps
0006dfe0 l     O .rwdata	00000006 _ZL20pstrUsageAccelerator
0006dfe8 l     O .rwdata	00000006 _ZL14pstrUsageBrake
0006dff0 l     O .rwdata	00000007 _ZL15pstrUsageClutch
0006dff8 l     O .rwdata	00000008 _ZL16pstrUsageShifter
000678e0 l     O .rodata	00000009 _ZL17pstrUsageSteering
000678ec l     O .rodata	0000000b _ZL24pstrUsageTurretDirection
000678f8 l     O .rodata	0000000b _ZL24pstrUsageBarrelElevation
00067904 l     O .rodata	0000000b _ZL18pstrUsageDivePlane
0006e000 l     O .rwdata	00000008 _ZL16pstrUsageBallast
00067910 l     O .rodata	0000000e _ZL21pstrUsageBicycleCrank
00067920 l     O .rodata	0000000c _ZL19pstrUsageHandleBars
0006792c l     O .rodata	0000000c _ZL19pstrUsageFrontBrake
00067938 l     O .rodata	0000000b _ZL18pstrUsageRearBrake
0006e008 l     O .rwdata	00000005 _ZL13pstrUsageBelt
00067944 l     O .rodata	0000000a _ZL17pstrUsageBodySuit
0006e010 l     O .rwdata	00000007 _ZL15pstrUsageFlexor
0006e018 l     O .rwdata	00000006 _ZL14pstrUsageGlove
00067950 l     O .rodata	0000000b _ZL20pstrUsageHeadTracker
0006795c l     O .rodata	0000000a _ZL27pstrUsageHeadMountedDisplay
00067968 l     O .rodata	0000000b _ZL20pstrUsageHandTracker
00067974 l     O .rodata	0000000b _ZL19pstrUsageOculometer
0006e020 l     O .rwdata	00000005 _ZL13pstrUsageVest
00067980 l     O .rodata	0000000b _ZL26pstrUsageAnimatronicDevice
0006798c l     O .rodata	0000000c _ZL21pstrUsageStereoEnable
00067998 l     O .rodata	0000000d _ZL22pstrUsageDisplayEnable
000679a8 l     O .rodata	0000000d _ZL20pstrUsageBaseballBat
000679b8 l     O .rodata	0000000a _ZL17pstrUsageGolfClub
000679c4 l     O .rodata	0000000c _ZL22pstrUsageRowingMachine
000679d0 l     O .rodata	0000000a _ZL18pstrUsageTreadmill
0006e028 l     O .rwdata	00000004 _ZL12pstrUsageOar
0006e02c l     O .rwdata	00000006 _ZL14pstrUsageSlope
0006e034 l     O .rwdata	00000005 _ZL13pstrUsageRate
000679dc l     O .rodata	0000000c _ZL19pstrUsageStickSpeed
000679e8 l     O .rodata	0000000f _ZL23pstrUsageStickFaceAngle
000679f8 l     O .rodata	0000000f _ZL21pstrUsageStickHeelToe
00067a08 l     O .rodata	0000000f _ZL26pstrUsageStickFollowThough
00067a18 l     O .rodata	0000000c _ZL19pstrUsageStickTempo
00067a24 l     O .rodata	0000000b _ZL18pstrUsageStickType
00067a30 l     O .rodata	0000000b _ZL20pstrUsageStickHeight
0006e03c l     O .rwdata	00000007 _ZL15pstrUsagePutter
0006e044 l     O .rwdata	00000007 _ZL14pstrUsage1Iron
0006e04c l     O .rwdata	00000007 _ZL14pstrUsage2Iron
0006e054 l     O .rwdata	00000007 _ZL14pstrUsage3Iron
0006e05c l     O .rwdata	00000007 _ZL14pstrUsage4Iron
0006e064 l     O .rwdata	00000007 _ZL14pstrUsage5Iron
0006e06c l     O .rwdata	00000007 _ZL14pstrUsage6Iron
0006e074 l     O .rwdata	00000007 _ZL14pstrUsage7Iron
0006e07c l     O .rwdata	00000007 _ZL14pstrUsage8Iron
0006e084 l     O .rwdata	00000007 _ZL14pstrUsage9Iron
0006e08c l     O .rwdata	00000008 _ZL15pstrUsage10Iron
0006e094 l     O .rwdata	00000008 _ZL15pstrUsage11Iron
00067a3c l     O .rodata	0000000b _ZL18pstrUsageSandWedge
00067a48 l     O .rodata	0000000b _ZL18pstrUsageLoftWedge
00067a54 l     O .rodata	0000000a _ZL19pstrUsagePowerWedge
0006e09c l     O .rwdata	00000007 _ZL14pstrUsage1Wood
0006e0a4 l     O .rwdata	00000007 _ZL14pstrUsage3Wood
0006e0ac l     O .rwdata	00000007 _ZL14pstrUsage5Wood
0006e0b4 l     O .rwdata	00000007 _ZL14pstrUsage7Wood
0006e0bc l     O .rwdata	00000007 _ZL14pstrUsage9Wood
00067a60 l     O .rodata	0000000d _ZL25pstrUsage3DGameController
00067a70 l     O .rodata	0000000c _ZL22pstrUsagePinballDevice
0006e0c4 l     O .rwdata	00000008 _ZL18pstrUsageGunDevice
0006e0cc l     O .rwdata	00000004 _ZL20pstrUsagePointOfView
00067a7c l     O .rodata	00000010 _ZL22pstrUsageTurnRightLeft
00067a8c l     O .rodata	0000000f _ZL29pstrUsagePitchForwardBackward
00067a9c l     O .rodata	00000010 _ZL22pstrUsageRollRightLeft
00067aac l     O .rodata	00000010 _ZL22pstrUsageMoveRightLeft
00067abc l     O .rodata	0000000e _ZL28pstrUsageMoveForwardBackward
00067acc l     O .rodata	0000000d _ZL19pstrUsageMoveUpDown
00067adc l     O .rodata	00000010 _ZL22pstrUsageLeanRightLeft
00067aec l     O .rodata	0000000e _ZL28pstrUsageLeanForwardBackward
00067afc l     O .rodata	0000000e _ZL20pstrUsageHeightOfPOV
0006e0d0 l     O .rwdata	00000008 _ZL16pstrUsageFlipper
00067b0c l     O .rodata	0000000f _ZL25pstrUsageSecondaryFlipper
0006e0d8 l     O .rwdata	00000005 _ZL13pstrUsageBump
00067b1c l     O .rodata	00000009 _ZL16pstrUsageNewGame
00067b28 l     O .rodata	0000000b _ZL18pstrUsageShootBall
0006e0e0 l     O .rwdata	00000007 _ZL15pstrUsagePlayer
00067b34 l     O .rodata	00000009 _ZL16pstrUsageGunBolt
00067b40 l     O .rodata	00000009 _ZL16pstrUsageGunClip
0006e0e8 l     O .rwdata	00000008 _ZL20pstrUsageGunSelector
00067b4c l     O .rodata	0000000e _ZL22pstrUsageGunSingleShot
00067b5c l     O .rodata	0000000a _ZL17pstrUsageGunBurst
00067b68 l     O .rodata	00000009 _ZL21pstrUsageGunAutomatic
00067b74 l     O .rodata	0000000b _ZL18pstrUsageGunSafety
00067b80 l     O .rodata	00000012 _ZL24pstrUsageGamepadFireJump
00067b94 l     O .rodata	0000000d _ZL23pstrUsageGamepadTrigger
00067ba4 l     O .rodata	0000000d _ZL24pstrUsageBatteryStrength
00067bb4 l     O .rodata	0000000c _ZL24pstrUsageWirelessChannel
00067bc0 l     O .rodata	0000000c _ZL19pstrUsageWirelessID
00067bcc l     O .rodata	00000017 _ZL32pstrUsageDiscoverWirelessControl
00067be4 l     O .rodata	00000014 _ZL32pstrUsageSecurityCodeCharEntered
00067bf8 l     O .rodata	00000015 _ZL31pstrUsageSecurityCodeCharErased
00067c10 l     O .rodata	00000011 _ZL28pstrUsageSecurityCodeCleared
00067c24 l     O .rodata	00000009 _ZL16pstrUsageNumLock
00067c30 l     O .rodata	0000000a _ZL17pstrUsageCapsLock
00067c3c l     O .rodata	0000000c _ZL19pstrUsageScrollLock
0006e0f0 l     O .rwdata	00000008 _ZL16pstrUsageCompose
0006e0f8 l     O .rwdata	00000005 _ZL13pstrUsageKana
0006e100 l     O .rwdata	00000004 _ZL14pstrUsagePower
0006e104 l     O .rwdata	00000006 _ZL14pstrUsageShift
0006e10c l     O .rwdata	00000004 _ZL21pstrUsageDoNotDisturb
0006e110 l     O .rwdata	00000005 _ZL13pstrUsageMute
00067c48 l     O .rodata	0000000a _ZL19pstrUsageToneEnable
00067c54 l     O .rodata	0000000e _ZL22pstrUsageHighCutFilter
00067c64 l     O .rodata	0000000d _ZL21pstrUsageLowCutFilter
0006e118 l     O .rwdata	00000008 _ZL24pstrUsageEqualizerEnable
00067c74 l     O .rodata	0000000f _ZL21pstrUsageSoundFieldOn
00067c84 l     O .rodata	0000000c _ZL19pstrUsageSurroundOn
0006e120 l     O .rwdata	00000007 _ZL15pstrUsageRepeat
0006e128 l     O .rwdata	00000007 _ZL15pstrUsageStereo
00067c90 l     O .rodata	00000011 _ZL27pstrUsageSamplingRateDetect
00067ca4 l     O .rodata	00000009 _ZL17pstrUsageSpinning
0006e130 l     O .rwdata	00000004 _ZL12pstrUsageCAV
0006e134 l     O .rwdata	00000004 _ZL12pstrUsageCLV
00067cb0 l     O .rodata	00000012 _ZL30pstrUsageRecordingFormatDetect
00067cc4 l     O .rodata	00000009 _ZL16pstrUsageOffHook
0006e138 l     O .rwdata	00000005 _ZL13pstrUsageRing
00067cd0 l     O .rodata	00000009 _ZL23pstrUsageMessageWaiting
00067cdc l     O .rodata	0000000a _ZL17pstrUsageDataMode
0006e140 l     O .rwdata	00000007 _ZL25pstrUsageBatteryOperation
0006e148 l     O .rwdata	00000007 _ZL18pstrUsageBatteryOK
0006e150 l     O .rwdata	00000008 _ZL19pstrUsageBatteryLow
0006e158 l     O .rwdata	00000008 _ZL16pstrUsageSpeaker
00067ce8 l     O .rodata	00000009 _ZL16pstrUsageHeadSet
0006e160 l     O .rwdata	00000005 _ZL13pstrUsageHold
0006e168 l     O .rwdata	00000004 _ZL19pstrUsageMicrophone
00067cf4 l     O .rodata	00000009 _ZL17pstrUsageCoverage
00067d00 l     O .rodata	0000000b _ZL18pstrUsageNightMode
00067d0c l     O .rodata	0000000b _ZL18pstrUsageSendCalls
00067d18 l     O .rodata	0000000c _ZL19pstrUsageCallPickup
0006e16c l     O .rwdata	00000005 _ZL19pstrUsageConference
00067d24 l     O .rodata	00000009 _ZL16pstrUsageStandBy
0006e174 l     O .rwdata	00000007 _ZL17pstrUsageCameraOn
0006e17c l     O .rwdata	00000008 _ZL18pstrUsageCameraOff
0006e184 l     O .rwdata	00000008 _ZL15pstrUsageOnLine
00067d30 l     O .rodata	00000009 _ZL16pstrUsageOffLine
0006e18c l     O .rwdata	00000005 _ZL13pstrUsageBusy
0006e194 l     O .rwdata	00000006 _ZL14pstrUsageReady
00067d3c l     O .rodata	0000000a _ZL17pstrUsagePaperOut
00067d48 l     O .rodata	0000000a _ZL17pstrUsagePaperJam
0006e19c l     O .rwdata	00000007 _ZL15pstrUsageRemote
0006e1a4 l     O .rwdata	00000004 _ZL16pstrUsageForward
0006e1a8 l     O .rwdata	00000004 _ZL16pstrUsageReverse
0006e1ac l     O .rwdata	00000005 _ZL13pstrUsageStop
0006e1b4 l     O .rwdata	00000007 _ZL15pstrUsageRewind
00067d54 l     O .rodata	00000009 _ZL20pstrUsageFastForward
0006e1bc l     O .rwdata	00000005 _ZL13pstrUsagePlay
0006e1c4 l     O .rwdata	00000006 _ZL14pstrUsagePause
0006e1cc l     O .rwdata	00000004 _ZL15pstrUsageRecord
0006e1d0 l     O .rwdata	00000006 _ZL14pstrUsageError
00067d60 l     O .rodata	0000000e _ZL26pstrUsageSelectedIndicator
00067d70 l     O .rodata	00000011 _ZL23pstrUsageInUseIndicator
00067d84 l     O .rodata	00000015 _ZL27pstrUsageMultiModeIndicator
0006e1d8 l     O .rwdata	00000007 _ZL20pstrUsageIndicatorOn
00067d9c l     O .rodata	0000000a _ZL23pstrUsageIndicatorFlash
00067da8 l     O .rodata	0000000d _ZL27pstrUsageIndicatorSlowBlink
00067db8 l     O .rodata	0000000d _ZL27pstrUsageIndicatorFastBlink
0006e1e0 l     O .rwdata	00000008 _ZL21pstrUsageIndicatorOff
00067dc8 l     O .rodata	0000000e _ZL20pstrUsageFlashOnTime
00067dd8 l     O .rodata	00000011 _ZL24pstrUsageSlowBlinkOnTime
00067dec l     O .rodata	00000012 _ZL25pstrUsageSlowBlinkOffTime
00067e00 l     O .rodata	00000011 _ZL24pstrUsageFastBlinkOnTime
00067e14 l     O .rodata	00000012 _ZL25pstrUsageFastBlinkOffTime
00067e28 l     O .rodata	00000010 _ZL23pstrUsageIndicatorColor
0006e1e8 l     O .rwdata	00000008 _ZL21pstrUsageIndicatorRed
00067e38 l     O .rodata	0000000a _ZL23pstrUsageIndicatorGreen
00067e44 l     O .rodata	0000000a _ZL23pstrUsageIndicatorAmber
0006e1f0 l     O .rwdata	00000008 _ZL25pstrUsageGenericIndicator
00067e50 l     O .rodata	0000000c _ZL22pstrUsageSystemSuspend
00067e5c l     O .rodata	0000000d _ZL31pstrUsageExternalPowerConnected
0006e1f8 l     O .rwdata	00000006 _ZL14pstrUsagePhone
00067e6c l     O .rodata	0000000a _ZL25pstrUsageAnsweringMachine
00067e78 l     O .rodata	0000000a _ZL24pstrUsageMessageControls
0006e200 l     O .rwdata	00000008 _ZL16pstrUsageHandset
0006e208 l     O .rwdata	00000008 _ZL16pstrUsageHeadset
00067e84 l     O .rodata	0000000c _ZL24pstrUsageTelephonyKeyPad
00067e90 l     O .rodata	0000000c _ZL27pstrUsageProgrammableButton
0006e210 l     O .rwdata	00000008 _ZL19pstrUsageHookSwitch
0006e218 l     O .rwdata	00000006 _ZL14pstrUsageFlash
0006e220 l     O .rwdata	00000008 _ZL16pstrUsageFeature
0006e228 l     O .rwdata	00000007 _ZL15pstrUsageRedial
00067e9c l     O .rodata	00000009 _ZL17pstrUsageTransfer
0006e230 l     O .rwdata	00000005 _ZL13pstrUsageDrop
0006e238 l     O .rwdata	00000005 _ZL13pstrUsagePark
00067ea8 l     O .rodata	0000000a _ZL21pstrUsageForwardCalls
00067eb4 l     O .rodata	00000009 _ZL26pstrUsageAlternateFunction
0006e240 l     O .rwdata	00000005 _ZL13pstrUsageLine
00067ec0 l     O .rodata	0000000a _ZL21pstrUsageSpeakerPhone
00067ecc l     O .rodata	0000000a _ZL19pstrUsageRingEnable
00067ed8 l     O .rodata	00000009 _ZL19pstrUsageRingSelect
00067ee4 l     O .rodata	0000000b _ZL18pstrUsagePhoneMute
00067ef0 l     O .rodata	0000000a _ZL17pstrUsageCallerID
0006e248 l     O .rwdata	00000005 _ZL13pstrUsageSend
00067efc l     O .rodata	0000000b _ZL18pstrUsageSpeedDial
00067f08 l     O .rodata	0000000a _ZL20pstrUsageStoreNumber
00067f14 l     O .rodata	0000000b _ZL21pstrUsageRecallNumber
00067f20 l     O .rodata	0000000a _ZL23pstrUsagePhoneDirectory
00067f2c l     O .rodata	0000000b _ZL18pstrUsageVoiceMail
00067f38 l     O .rodata	0000000d _ZL20pstrUsageScreenCalls
0006e250 l     O .rwdata	00000004 _ZL16pstrUsageMessage
00067f48 l     O .rodata	0000000e _ZL20pstrUsageAnswerOnOff
00067f58 l     O .rodata	00000011 _ZL23pstrUsageInsideDialTone
00067f6c l     O .rodata	00000012 _ZL24pstrUsageOutsideDialTone
00067f80 l     O .rodata	00000011 _ZL23pstrUsageInsideRingTone
00067f94 l     O .rodata	00000012 _ZL24pstrUsageOutsideRingTone
00067fa8 l     O .rodata	00000010 _ZL25pstrUsagePriorityRingTone
00067fb8 l     O .rodata	00000010 _ZL23pstrUsageInsideRingback
00067fc8 l     O .rodata	00000012 _ZL25pstrUsagePriorityRingback
00067fdc l     O .rodata	0000000d _ZL21pstrUsageLineBusyTone
00067fec l     O .rodata	0000000d _ZL20pstrUsageReorderTone
00067ffc l     O .rodata	0000000f _ZL24pstrUsageCallWaitingTone
0006800c l     O .rodata	0000000c _ZL26pstrUsageConfirmationTone1
00068018 l     O .rodata	0000000c _ZL26pstrUsageConfirmationTone2
00068024 l     O .rodata	0000000a _ZL17pstrUsageTonesOff
00068030 l     O .rodata	00000011 _ZL24pstrUsageOutsideRingback
0006e254 l     O .rwdata	00000007 _ZL15pstrUsageRinger
0006e25c l     O .rwdata	00000002 _ZL18pstrUsagePhoneKey0
0006e260 l     O .rwdata	00000002 _ZL18pstrUsagePhoneKey1
0006e264 l     O .rwdata	00000002 _ZL18pstrUsagePhoneKey2
0006e268 l     O .rwdata	00000002 _ZL18pstrUsagePhoneKey3
0006e26c l     O .rwdata	00000002 _ZL18pstrUsagePhoneKey4
0006e270 l     O .rwdata	00000002 _ZL18pstrUsagePhoneKey5
0006e274 l     O .rwdata	00000002 _ZL18pstrUsagePhoneKey6
0006e278 l     O .rwdata	00000002 _ZL18pstrUsagePhoneKey7
0006e27c l     O .rwdata	00000002 _ZL18pstrUsagePhoneKey8
0006e280 l     O .rwdata	00000002 _ZL18pstrUsagePhoneKey9
0006e284 l     O .rwdata	00000002 _ZL21pstrUsagePhoneKeyStar
0006e288 l     O .rwdata	00000002 _ZL22pstrUsagePhoneKeyPound
0006e28c l     O .rwdata	00000002 _ZL18pstrUsagePhoneKeyA
0006e290 l     O .rwdata	00000002 _ZL18pstrUsagePhoneKeyB
0006e294 l     O .rwdata	00000002 _ZL18pstrUsagePhoneKeyC
0006e298 l     O .rwdata	00000002 _ZL18pstrUsagePhoneKeyD
00068044 l     O .rodata	0000000e _ZL24pstrUsageConsumerControl
00068054 l     O .rodata	0000000c _ZL22pstrUsageNumericKeyPad
00068060 l     O .rodata	0000000a _ZL18pstrUsageHeadphone
0006806c l     O .rodata	00000009 _ZL25pstrUsageGraphicEqualizer
0006e29c l     O .rwdata	00000004 _ZL15pstrUsagePlus10
0006e2a0 l     O .rwdata	00000005 _ZL16pstrUsagePlus100
0006e2a8 l     O .rwdata	00000006 _ZL13pstrUsageAMPM
0006e2b0 l     O .rwdata	00000006 _ZL14pstrUsageReset
0006e2b8 l     O .rwdata	00000006 _ZL14pstrUsageSleep
00068078 l     O .rodata	0000000c _ZL19pstrUsageSleepAfter
00068084 l     O .rodata	0000000b _ZL18pstrUsageSleepMode
0006e2c0 l     O .rwdata	00000008 _ZL21pstrUsageIllumination
00068090 l     O .rodata	0000000a _ZL24pstrUsageFunctionButtons
0006e2c8 l     O .rwdata	00000005 _ZL13pstrUsageMenu
0006809c l     O .rodata	0000000a _ZL17pstrUsageMenuPick
0006e2d0 l     O .rwdata	00000008 _ZL15pstrUsageMenuUp
000680a8 l     O .rodata	0000000a _ZL17pstrUsageMenuDown
000680b4 l     O .rodata	0000000a _ZL17pstrUsageMenuLeft
000680c0 l     O .rodata	0000000b _ZL18pstrUsageMenuRight
000680cc l     O .rodata	00000009 _ZL19pstrUsageMenuEscape
000680d8 l     O .rodata	0000000d _ZL26pstrUsageMenuValueIncrease
000680e8 l     O .rodata	0000000d _ZL26pstrUsageMenuValueDecrease
000680f8 l     O .rodata	0000000c _ZL21pstrUsageDataOnScreen
00068104 l     O .rodata	0000000c _ZL22pstrUsageClosedCaption
00068110 l     O .rodata	00000010 _ZL28pstrUsageClosedCaptionSelect
0006e2d8 l     O .rwdata	00000007 _ZL14pstrUsageVCRTV
00068120 l     O .rodata	0000000d _ZL22pstrUsageBroadcastMode
00068130 l     O .rodata	00000009 _ZL17pstrUsageSnapshot
0006e2e0 l     O .rwdata	00000006 _ZL14pstrUsageStill
0006e2e8 l     O .rwdata	00000004 _ZL18pstrUsageSelection
0006813c l     O .rodata	0000000b _ZL24pstrUsageAssignSelection
00068148 l     O .rodata	0000000a _ZL17pstrUsageModeStep
00068154 l     O .rodata	0000000c _ZL19pstrUsageRecallLast
00068160 l     O .rodata	0000000d _ZL21pstrUsageEnterChannel
00068170 l     O .rodata	0000000a _ZL19pstrUsageOrderMovie
0006e2ec l     O .rwdata	00000008 _ZL16pstrUsageChannel
0006e2f4 l     O .rwdata	00000008 _ZL23pstrUsageMediaSelection
0006817c l     O .rodata	0000000d _ZL28pstrUsageMediaSelectComputer
0006818c l     O .rodata	0000000b _ZL22pstrUsageMediaSelectTV
00068198 l     O .rodata	0000000c _ZL23pstrUsageMediaSelectWWW
000681a4 l     O .rodata	0000000c _ZL23pstrUsageMediaSelectDVD
000681b0 l     O .rodata	0000000c _ZL29pstrUsageMediaSelectTelephone
000681bc l     O .rodata	0000000b _ZL32pstrUsageMediaSelectProgramGuide
000681c8 l     O .rodata	0000000c _ZL30pstrUsageMediaSelectVideoPhone
000681d4 l     O .rodata	0000000e _ZL25pstrUsageMediaSelectGames
000681e4 l     O .rodata	0000000c _ZL28pstrUsageMediaSelectMessages
000681f0 l     O .rodata	0000000b _ZL22pstrUsageMediaSelectCD
000681fc l     O .rodata	0000000c _ZL23pstrUsageMediaSelectVCR
00068208 l     O .rodata	0000000e _ZL25pstrUsageMediaSelectTuner
0006e2fc l     O .rwdata	00000005 _ZL13pstrUsageQuit
0006e304 l     O .rwdata	00000005 _ZL13pstrUsageHelp
00068218 l     O .rodata	0000000d _ZL24pstrUsageMediaSelectTape
00068228 l     O .rodata	0000000c _ZL25pstrUsageMediaSelectCable
00068234 l     O .rodata	0000000c _ZL29pstrUsageMediaSelectSatellite
00068240 l     O .rodata	0000000e _ZL28pstrUsageMediaSelectSecurity
00068250 l     O .rodata	0000000d _ZL24pstrUsageMediaSelectHome
00068260 l     O .rodata	0000000d _ZL24pstrUsageMediaSelectCall
0006e30c l     O .rwdata	00000007 _ZL25pstrUsageChannelIncrement
0006e314 l     O .rwdata	00000007 _ZL25pstrUsageChannelDecrement
00068270 l     O .rodata	0000000c _ZL23pstrUsageMediaSelectSAP
0006e31c l     O .rwdata	00000005 _ZL16pstrUsageVCRPlus
0006e324 l     O .rwdata	00000005 _ZL13pstrUsageOnce
0006e32c l     O .rwdata	00000006 _ZL14pstrUsageDaily
0006e334 l     O .rwdata	00000007 _ZL15pstrUsageWeekly
0006e33c l     O .rwdata	00000008 _ZL16pstrUsageMonthly
0006827c l     O .rodata	0000000b _ZL22pstrUsageScanNextTrack
00068288 l     O .rodata	0000000b _ZL26pstrUsageScanPreviousTrack
0006e344 l     O .rwdata	00000006 _ZL14pstrUsageEject
0006e34c l     O .rwdata	00000007 _ZL19pstrUsageRandomPlay
00068294 l     O .rodata	00000009 _ZL19pstrUsageSelectDisk
000682a0 l     O .rodata	00000009 _ZL18pstrUsageEnterDisk
000682ac l     O .rodata	00000009 _ZL17pstrUsageTracking
000682b8 l     O .rodata	00000009 _ZL20pstrUsageTrackNormal
000682c4 l     O .rodata	00000009 _ZL21pstrUsageSlowTracking
0006e354 l     O .rwdata	00000008 _ZL21pstrUsageFrameForward
000682d0 l     O .rodata	00000009 _ZL23pstrUsageFrameBackwards
0006e35c l     O .rwdata	00000005 _ZL13pstrUsageMark
000682dc l     O .rodata	00000009 _ZL18pstrUsageClearMark
000682e8 l     O .rodata	00000009 _ZL23pstrUsageRepeatFromMark
000682f4 l     O .rodata	0000000c _ZL21pstrUsageReturnToMark
00068300 l     O .rodata	00000010 _ZL26pstrUsageSearchMarkForward
00068310 l     O .rodata	00000011 _ZL28pstrUsageSearchMarkBackwards
00068324 l     O .rodata	0000000e _ZL21pstrUsageCounterReset
00068334 l     O .rodata	0000000d _ZL20pstrUsageShowCounter
00068344 l     O .rodata	0000000a _ZL26pstrUsageTrackingIncrement
00068350 l     O .rodata	0000000a _ZL26pstrUsageTrackingDecrement
0006835c l     O .rodata	0000000b _ZL18pstrUsageStopEject
00068368 l     O .rodata	0000000b _ZL18pstrUsagePlayPause
00068374 l     O .rodata	0000000a _ZL17pstrUsagePlaySkip
0006e364 l     O .rwdata	00000004 _ZL15pstrUsageVolume
0006e368 l     O .rwdata	00000008 _ZL16pstrUsageBalance
0006e370 l     O .rwdata	00000005 _ZL13pstrUsageBass
0006e378 l     O .rwdata	00000007 _ZL15pstrUsageTreble
00068380 l     O .rodata	0000000b _ZL18pstrUsageBassBoost
0006838c l     O .rodata	00000009 _ZL21pstrUsageSurroundMode
0006e380 l     O .rwdata	00000005 _ZL17pstrUsageLoudness
0006e388 l     O .rwdata	00000004 _ZL12pstrUsageMPX
0006e38c l     O .rwdata	00000008 _ZL24pstrUsageVolumeIncrement
0006e394 l     O .rwdata	00000008 _ZL24pstrUsageVolumeDecrement
0006e39c l     O .rwdata	00000006 _ZL20pstrUsageSpeedSelect
00068398 l     O .rodata	0000000b _ZL22pstrUsagePlaybackSpeed
000683a4 l     O .rodata	00000009 _ZL21pstrUsageStandardPlay
000683b0 l     O .rodata	0000000a _ZL17pstrUsageLongPlay
000683bc l     O .rodata	00000009 _ZL21pstrUsageExtendedPlay
0006e3a4 l     O .rwdata	00000005 _ZL13pstrUsageSlow
000683c8 l     O .rodata	00000009 _ZL18pstrUsageFanEnable
000683d4 l     O .rodata	0000000a _ZL17pstrUsageFanSpeed
000683e0 l     O .rodata	0000000b _ZL20pstrUsageLightEnable
000683ec l     O .rodata	00000010 _ZL31pstrUsageLightIlluminationLevel
000683fc l     O .rodata	0000000d _ZL29pstrUsageClimateControlEnable
0006840c l     O .rodata	0000000a _ZL24pstrUsageRoomTemperature
00068418 l     O .rodata	0000000b _ZL23pstrUsageSecurityEnable
00068424 l     O .rodata	00000009 _ZL18pstrUsageFireAlarm
00068430 l     O .rodata	0000000b _ZL20pstrUsagePoliceAlarm
0006e3ac l     O .rwdata	00000005 _ZL18pstrUsageProximity
0006e3b4 l     O .rwdata	00000007 _ZL15pstrUsageMotion
0006843c l     O .rodata	0000000a _ZL19pstrUsageDuresAlarm
00068448 l     O .rodata	0000000b _ZL20pstrUsageHoldupAlarm
0006e3bc l     O .rwdata	00000008 _ZL21pstrUsageMedicalAlarm
00068454 l     O .rodata	0000000e _ZL21pstrUsageBalanceRight
00068464 l     O .rodata	0000000d _ZL20pstrUsageBalanceLeft
00068474 l     O .rodata	00000009 _ZL22pstrUsageBassIncrement
00068480 l     O .rodata	00000009 _ZL22pstrUsageBassDecrement
0006848c l     O .rodata	0000000b _ZL24pstrUsageTrebleIncrement
00068498 l     O .rodata	0000000b _ZL24pstrUsageTrebleDecrement
0006e3c4 l     O .rwdata	00000008 _ZL22pstrUsageSpeakerSystem
0006e3cc l     O .rwdata	00000008 _ZL20pstrUsageChannelLeft
000684a4 l     O .rodata	00000009 _ZL21pstrUsageChannelRight
000684b0 l     O .rodata	0000000a _ZL22pstrUsageChannelCenter
000684bc l     O .rodata	00000009 _ZL21pstrUsageChannelFront
000684c8 l     O .rodata	0000000e _ZL27pstrUsageChannelCenterFront
0006e3d4 l     O .rwdata	00000008 _ZL20pstrUsageChannelSide
000684d8 l     O .rodata	0000000c _ZL24pstrUsageChannelSurround
000684e4 l     O .rodata	00000010 _ZL34pstrUsageChannelLowFreqEnhancement
0006e3dc l     O .rwdata	00000007 _ZL19pstrUsageChannelTop
0006e3e4 l     O .rwdata	00000007 _ZL23pstrUsageChannelUnknown
0006e3ec l     O .rwdata	00000007 _ZL19pstrUsageSubChannel
000684f4 l     O .rodata	0000000b _ZL28pstrUsageSubChannelIncrement
00068500 l     O .rodata	0000000b _ZL28pstrUsageSubChannelDecrement
0006850c l     O .rodata	0000000c _ZL32pstrUsageAlternateAudioIncrement
00068518 l     O .rodata	0000000c _ZL32pstrUsageAlternateAudioDecrement
00068524 l     O .rodata	00000010 _ZL33pstrUsageApplicationLaunchButtons
00068534 l     O .rodata	00000012 _ZL33pstrUsageALLaunchButtonConfigTool
00068548 l     O .rodata	0000000b _ZL29pstrUsageALProgrammableButton
00068554 l     O .rodata	00000011 _ZL32pstrUsageALConsumerControlConfig
00068568 l     O .rodata	0000000d _ZL24pstrUsageALWordProcessor
00068578 l     O .rodata	0000000c _ZL21pstrUsageALTextEditor
00068584 l     O .rodata	0000000d _ZL22pstrUsageALSpreadsheet
00068594 l     O .rodata	0000000e _ZL25pstrUsageALGraphicsEditor
000685a4 l     O .rodata	0000000f _ZL26pstrUsageALPresentationApp
000685b4 l     O .rodata	0000000a _ZL22pstrUsageALDatabaseApp
000685c0 l     O .rodata	0000000e _ZL22pstrUsageALEmailReader
000685d0 l     O .rodata	0000000b _ZL21pstrUsageALNewsreader
000685dc l     O .rodata	0000000d _ZL20pstrUsageALVoicemail
000685ec l     O .rodata	0000000d _ZL30pstrUsageALContactsAddressBook
000685fc l     O .rodata	00000010 _ZL27pstrUsageALCalendarSchedule
0006860c l     O .rodata	00000010 _ZL29pstrUsageALTaskProjectManager
0006861c l     O .rodata	00000012 _ZL29pstrUsageALLogJournalTimecard
00068630 l     O .rodata	00000010 _ZL27pstrUsageALCheckbookFinance
0006e3f4 l     O .rwdata	00000008 _ZL21pstrUsageALCalculator
00068640 l     O .rodata	00000011 _ZL28pstrUsageALAVCapturePlayback
00068654 l     O .rodata	00000011 _ZL30pstrUsageALLocalMachineBrowser
00068668 l     O .rodata	00000010 _ZL21pstrUsageALLANWANBrow
00068678 l     O .rodata	0000000e _ZL26pstrUsageALInternetBrowser
00068688 l     O .rodata	0000000f _ZL30pstrUsageALRemoteNetISPConnect
00068698 l     O .rodata	0000000c _ZL28pstrUsageALNetworkConference
000686a4 l     O .rodata	0000000c _ZL22pstrUsageALNetworkChat
000686b0 l     O .rodata	0000000c _ZL26pstrUsageALTelephonyDialer
000686bc l     O .rodata	00000009 _ZL16pstrUsageALLogon
000686c8 l     O .rodata	0000000a _ZL17pstrUsageALLogoff
000686d4 l     O .rodata	00000010 _ZL22pstrUsageALLogonLogoff
000686e4 l     O .rodata	00000015 _ZL25pstrUsageALTermLockScrSav
000686fc l     O .rodata	0000000c _ZL24pstrUsageALControlPannel
00068708 l     O .rodata	0000000b _ZL34pstrUsageALCommandLineProcessorRun
00068714 l     O .rodata	0000000c _ZL29pstrUsageALProcessTaskManager
00068720 l     O .rodata	0000000b _ZL32pstrUsageALSelectTaskApplication
0006872c l     O .rodata	0000000c _ZL30pstrUsageALNextTaskApplication
00068738 l     O .rodata	0000000c _ZL34pstrUsageALPreviousTaskApplication
00068744 l     O .rodata	00000012 _ZL32pstrUsageALPreemptiveHaltTaskApp
00068758 l     O .rodata	0000000c _ZL31pstrUsageALIntegratedHelpCenter
0006e3fc l     O .rwdata	00000008 _ZL20pstrUsageALDocuments
00068764 l     O .rodata	00000009 _ZL20pstrUsageALThesaurus
0006e404 l     O .rwdata	00000008 _ZL21pstrUsageALDictionary
00068770 l     O .rodata	0000000b _ZL18pstrUsageALDesktop
0006877c l     O .rodata	0000000d _ZL21pstrUsageALSpellCheck
0006878c l     O .rodata	0000000c _ZL23pstrUsageALGrammarCheck
00068798 l     O .rodata	00000010 _ZL25pstrUsageALWirelessStatus
000687a8 l     O .rodata	0000000e _ZL25pstrUsageALKeyboardLayout
000687b8 l     O .rodata	0000000f _ZL26pstrUsageALVirusProtection
000687c8 l     O .rodata	0000000b _ZL21pstrUsageALEncryption
000687d4 l     O .rodata	0000000b _ZL22pstrUsageALScreenSaver
000687e0 l     O .rodata	0000000a _ZL17pstrUsageALAlarms
000687ec l     O .rodata	00000009 _ZL16pstrUsageALClock
000687f8 l     O .rodata	0000000d _ZL22pstrUsageALFileBrowser
00068808 l     O .rodata	0000000b _ZL22pstrUsageALPowerStatus
00068814 l     O .rodata	0000000c _ZL23pstrUsageALImageBrowser
00068820 l     O .rodata	0000000c _ZL23pstrUsageALAudioBrowser
0006882c l     O .rodata	0000000c _ZL23pstrUsageALMovieBrowser
00068838 l     O .rodata	00000012 _ZL31pstrUsageALDigitalRightsManager
0006884c l     O .rodata	0000000e _ZL24pstrUsageALDigitalWallet
0006885c l     O .rodata	0000000c _ZL27pstrUsageALInstantMessaging
00068868 l     O .rodata	00000011 _ZL29pstrUsageALOEMFeaturesBrowser
0006887c l     O .rodata	0000000b _ZL18pstrUsageALOEMHelp
00068888 l     O .rodata	0000000e _ZL26pstrUsageALOnlineCommunity
00068898 l     O .rodata	00000011 _ZL35pstrUsageALEntertainmentContentBrow
000688ac l     O .rodata	00000014 _ZL32pstrUsageALOnlineShoppingBrowser
000688c0 l     O .rodata	00000011 _ZL28pstrUsageALSmartCardInfoHelp
000688d4 l     O .rodata	0000000f _ZL34pstrUsageALMarketMonitorFinBrowser
000688e4 l     O .rodata	00000017 _ZL32pstrUsageALCustomCorpNewsBrowser
000688fc l     O .rodata	00000013 _ZL32pstrUsageALOnlineActivityBrowser
00068910 l     O .rodata	0000000f _ZL32pstrUsageALResearchSearchBrowser
00068920 l     O .rodata	0000000e _ZL22pstrUsageALAudioPlayer
00068930 l     O .rodata	00000011 _ZL30pstrUsageGenericGUIAppControls
0006e40c l     O .rwdata	00000007 _ZL14pstrUsageACNew
0006e414 l     O .rwdata	00000008 _ZL15pstrUsageACOpen
00068944 l     O .rodata	00000009 _ZL16pstrUsageACClose
0006e41c l     O .rwdata	00000008 _ZL15pstrUsageACExit
0006e424 l     O .rwdata	00000007 _ZL19pstrUsageACMaximize
0006e42c l     O .rwdata	00000007 _ZL19pstrUsageACMinimize
0006e434 l     O .rwdata	00000008 _ZL15pstrUsageACSave
00068950 l     O .rodata	00000009 _ZL16pstrUsageACPrint
0006e43c l     O .rwdata	00000008 _ZL21pstrUsageACProperties
0006e444 l     O .rwdata	00000008 _ZL15pstrUsageACUndo
0006e44c l     O .rwdata	00000008 _ZL15pstrUsageACCopy
0006e454 l     O .rwdata	00000007 _ZL14pstrUsageACCut
0006895c l     O .rodata	00000009 _ZL16pstrUsageACPaste
00068968 l     O .rodata	0000000b _ZL20pstrUsageACSelectAll
0006e45c l     O .rwdata	00000008 _ZL15pstrUsageACFind
00068974 l     O .rodata	00000010 _ZL25pstrUsageACFindAndReplace
00068984 l     O .rodata	0000000a _ZL17pstrUsageACSearch
0006e464 l     O .rwdata	00000008 _ZL15pstrUsageACGoto
0006e46c l     O .rwdata	00000008 _ZL15pstrUsageACHome
0006e474 l     O .rwdata	00000008 _ZL15pstrUsageACBack
0006e47c l     O .rwdata	00000007 _ZL18pstrUsageACForward
0006e484 l     O .rwdata	00000008 _ZL15pstrUsageACStop
00068990 l     O .rodata	0000000b _ZL18pstrUsageACRefresh
0006899c l     O .rodata	0000000d _ZL23pstrUsageACPreviousLink
000689ac l     O .rodata	0000000d _ZL19pstrUsageACNextLink
000689bc l     O .rodata	0000000b _ZL20pstrUsageACBookmarks
0006e48c l     O .rwdata	00000008 _ZL18pstrUsageACHistory
000689c8 l     O .rodata	0000000a _ZL24pstrUsageACSubscriptions
000689d4 l     O .rodata	0000000b _ZL17pstrUsageACZoomIn
000689e0 l     O .rodata	0000000c _ZL18pstrUsageACZoomOut
0006e494 l     O .rwdata	00000008 _ZL15pstrUsageACZoom
000689ec l     O .rodata	0000000c _ZL25pstrUsageACFullScreenView
000689f8 l     O .rodata	0000000d _ZL21pstrUsageACNormalView
00068a08 l     O .rodata	0000000c _ZL21pstrUsageACViewToggle
00068a14 l     O .rodata	0000000d _ZL19pstrUsageACScrollUp
00068a24 l     O .rodata	0000000f _ZL21pstrUsageACScrollDown
00068a34 l     O .rodata	0000000a _ZL17pstrUsageACScroll
00068a40 l     O .rodata	0000000c _ZL18pstrUsageACPanLeft
00068a4c l     O .rodata	0000000d _ZL19pstrUsageACPanRight
0006e49c l     O .rwdata	00000007 _ZL14pstrUsageACPan
00068a5c l     O .rodata	0000000b _ZL20pstrUsageACNewWindow
00068a68 l     O .rodata	0000000e _ZL20pstrUsageACTileHoriz
00068a78 l     O .rodata	0000000d _ZL19pstrUsageACTileVert
0006e4a4 l     O .rwdata	00000008 _ZL17pstrUsageACFormat
0006e4ac l     O .rwdata	00000008 _ZL15pstrUsageACEdit
0006e4b4 l     O .rwdata	00000008 _ZL15pstrUsageACBold
0006e4bc l     O .rwdata	00000008 _ZL18pstrUsageACItalics
00068a88 l     O .rodata	00000009 _ZL20pstrUsageACUnderline
00068a94 l     O .rodata	0000000a _ZL24pstrUsageACStrikethrough
0006e4c4 l     O .rwdata	00000007 _ZL20pstrUsageACSubscript
00068aa0 l     O .rodata	00000009 _ZL22pstrUsageACSuperscript
00068aac l     O .rodata	0000000c _ZL18pstrUsageACAllCaps
00068ab8 l     O .rodata	0000000a _ZL17pstrUsageACRotate
00068ac4 l     O .rodata	0000000a _ZL17pstrUsageACResize
00068ad0 l     O .rodata	00000009 _ZL25pstrUsageACFlipHorizontal
00068adc l     O .rodata	00000009 _ZL23pstrUsageACFlipVertical
00068ae8 l     O .rodata	00000009 _ZL27pstrUsageACMirrorHorizontal
00068af4 l     O .rodata	00000009 _ZL25pstrUsageACMirrorVertical
00068b00 l     O .rodata	0000000b _ZL21pstrUsageACFontSelect
00068b0c l     O .rodata	0000000b _ZL20pstrUsageACFontColor
00068b18 l     O .rodata	0000000c _ZL19pstrUsageACFontSize
00068b24 l     O .rodata	0000000d _ZL22pstrUsageACJustifyLeft
00068b34 l     O .rodata	0000000f _ZL25pstrUsageACJustifyCenterH
00068b44 l     O .rodata	0000000e _ZL23pstrUsageACJustifyRight
00068b54 l     O .rodata	00000010 _ZL24pstrUsageACJustifyBlockH
00068b64 l     O .rodata	0000000c _ZL21pstrUsageACJustifyTop
00068b70 l     O .rodata	0000000f _ZL25pstrUsageACJustifyCenterV
00068b80 l     O .rodata	0000000c _ZL24pstrUsageACJustifyBottom
00068b8c l     O .rodata	00000010 _ZL24pstrUsageACJustifyBlockV
00068b9c l     O .rodata	0000000e _ZL25pstrUsageACIndentDecrease
00068bac l     O .rodata	0000000e _ZL25pstrUsageACIndentIncrease
00068bbc l     O .rodata	0000000c _ZL23pstrUsageACNumberedList
00068bc8 l     O .rodata	0000000b _ZL27pstrUsageACRestartNumbering
00068bd4 l     O .rodata	0000000c _ZL23pstrUsageACBulletedList
00068be0 l     O .rodata	0000000b _ZL18pstrUsageACPromote
00068bec l     O .rodata	0000000a _ZL17pstrUsageACDemote
0006e4cc l     O .rwdata	00000007 _ZL14pstrUsageACYes
0006e4d4 l     O .rwdata	00000006 _ZL13pstrUsageACNo
00068bf8 l     O .rodata	0000000a _ZL17pstrUsageACCancel
0006e4dc l     O .rwdata	00000008 _ZL18pstrUsageACCatalog
0006e4e4 l     O .rwdata	00000007 _ZL20pstrUsageACBuyChkout
00068c04 l     O .rodata	0000000c _ZL20pstrUsageACAddToCart
0006e4ec l     O .rwdata	00000008 _ZL17pstrUsageACExpand
00068c10 l     O .rodata	0000000d _ZL20pstrUsageACExpandAll
00068c20 l     O .rodata	0000000c _ZL19pstrUsageACCollapse
00068c2c l     O .rodata	00000010 _ZL22pstrUsageACCollapseAll
00068c3c l     O .rodata	0000000d _ZL23pstrUsageACPrintPreview
00068c4c l     O .rodata	0000000e _ZL23pstrUsageACPasteSpecial
00068c5c l     O .rodata	0000000c _ZL21pstrUsageACInsertMode
0006e4f4 l     O .rwdata	00000007 _ZL17pstrUsageACDelete
0006e4fc l     O .rwdata	00000008 _ZL15pstrUsageACLock
00068c68 l     O .rodata	0000000a _ZL17pstrUsageACUnlock
0006e504 l     O .rwdata	00000008 _ZL18pstrUsageACProtect
00068c74 l     O .rodata	0000000a _ZL20pstrUsageACUnprotect
00068c80 l     O .rodata	0000000f _ZL24pstrUsageACAttachComment
00068c90 l     O .rodata	0000000c _ZL24pstrUsageACDeleteComment
00068c9c l     O .rodata	0000000d _ZL22pstrUsageACViewComment
00068cac l     O .rodata	0000000c _ZL21pstrUsageACSelectWord
00068cb8 l     O .rodata	0000000c _ZL25pstrUsageACSelectSentence
00068cc4 l     O .rodata	0000000c _ZL26pstrUsageACSelectParagraph
00068cd0 l     O .rodata	0000000b _ZL23pstrUsageACSelectColumn
00068cdc l     O .rodata	0000000b _ZL20pstrUsageACSelectRow
00068ce8 l     O .rodata	0000000b _ZL22pstrUsageACSelectTable
00068cf4 l     O .rodata	0000000b _ZL23pstrUsageACSelectObject
0006e50c l     O .rwdata	00000008 _ZL21pstrUsageACRedoRepeat
0006e514 l     O .rwdata	00000008 _ZL15pstrUsageACSort
00068d00 l     O .rodata	0000000c _ZL24pstrUsageACSortAscending
00068d0c l     O .rodata	0000000d _ZL25pstrUsageACSortDescending
0006e51c l     O .rwdata	00000008 _ZL17pstrUsageACFilter
00068d1c l     O .rodata	0000000b _ZL19pstrUsageACSetClock
00068d28 l     O .rodata	0000000c _ZL20pstrUsageACViewClock
00068d34 l     O .rodata	0000000e _ZL25pstrUsageACSelectTimeZone
00068d44 l     O .rodata	0000000e _ZL23pstrUsageACEditTimeZone
00068d54 l     O .rodata	0000000b _ZL19pstrUsageACSetAlarm
00068d60 l     O .rodata	0000000b _ZL21pstrUsageACClearAlarm
00068d6c l     O .rodata	0000000b _ZL22pstrUsageACSnoozeAlarm
00068d78 l     O .rodata	0000000b _ZL21pstrUsageACResetAlarm
0006e524 l     O .rwdata	00000008 _ZL21pstrUsageACSyncronize
00068d84 l     O .rodata	0000000b _ZL22pstrUsageACSendReceive
00068d90 l     O .rodata	0000000a _ZL17pstrUsageACSendTo
00068d9c l     O .rodata	00000009 _ZL16pstrUsageACReply
00068da8 l     O .rodata	0000000d _ZL19pstrUsageACReplyAll
00068db8 l     O .rodata	0000000b _ZL25pstrUsageACForwardMessage
0006e52c l     O .rwdata	00000007 _ZL15pstrUsageACSend
00068dc4 l     O .rodata	0000000c _ZL21pstrUsageACAttachFile
0006e534 l     O .rwdata	00000008 _ZL17pstrUsageACUpload
0006e53c l     O .rwdata	00000008 _ZL19pstrUsageACDownload
00068dd0 l     O .rodata	0000000b _ZL21pstrUsageACSetBorders
00068ddc l     O .rodata	0000000b _ZL20pstrUsageACInsertRow
00068de8 l     O .rodata	0000000b _ZL23pstrUsageACInsertColumn
00068df4 l     O .rodata	0000000c _ZL21pstrUsageACInsertFile
00068e00 l     O .rodata	0000000b _ZL24pstrUsageACInsertPicture
00068e0c l     O .rodata	0000000b _ZL23pstrUsageACInsertObject
00068e18 l     O .rodata	0000000b _ZL23pstrUsageACInsertSymbol
00068e24 l     O .rodata	0000000b _ZL23pstrUsageACSaveAndClose
00068e30 l     O .rodata	0000000a _ZL17pstrUsageACRename
00068e3c l     O .rodata	00000009 _ZL16pstrUsageACMerge
00068e48 l     O .rodata	00000009 _ZL16pstrUsageACSplit
00068e54 l     O .rodata	0000000c _ZL32pstrUsageACDistributeHorizontaly
00068e60 l     O .rodata	0000000c _ZL30pstrUsageACDistributeVerticaly
00068e6c l     O .rodata	0000000a _ZL18pstrUsageDigitizer
0006e544 l     O .rwdata	00000004 _ZL12pstrUsagePen
00068e78 l     O .rodata	0000000a _ZL17pstrUsageLightPen
00068e84 l     O .rodata	0000000a _ZL20pstrUsageTouchScreen
00068e90 l     O .rodata	0000000a _ZL17pstrUsageTouchPad
00068e9c l     O .rodata	0000000a _ZL19pstrUsageWhiteBoard
00068ea8 l     O .rodata	00000010 _ZL35pstrUsageCoordinateMeasuringMachine
0006e548 l     O .rwdata	00000008 _ZL20pstrUsage3DDigitizer
00068eb8 l     O .rodata	0000000c _ZL22pstrUsageStereoPlotter
0006e550 l     O .rwdata	00000008 _ZL23pstrUsageArticulatedArm
00068ec4 l     O .rodata	00000009 _ZL17pstrUsageArmature
00068ed0 l     O .rodata	00000011 _ZL31pstrUsageMultiplePointDigitizer
00068ee4 l     O .rodata	00000010 _ZL22pstrUsageFreeSpaceWand
0006e558 l     O .rwdata	00000007 _ZL15pstrUsageStylus
0006e560 l     O .rwdata	00000005 _ZL13pstrUsagePuck
0006e568 l     O .rwdata	00000007 _ZL15pstrUsageFinger
00068ef4 l     O .rodata	0000000a _ZL20pstrUsageTipPressure
00068f00 l     O .rodata	0000000a _ZL23pstrUsageBarrelPressure
00068f0c l     O .rodata	00000009 _ZL16pstrUsageInRange
0006e570 l     O .rwdata	00000006 _ZL14pstrUsageTouch
0006e578 l     O .rwdata	00000008 _ZL16pstrUsageUntouch
0006e580 l     O .rwdata	00000004 _ZL12pstrUsageTap
0006e584 l     O .rwdata	00000005 _ZL16pstrUsageQuality
00068f18 l     O .rodata	0000000b _ZL18pstrUsageDataValid
00068f24 l     O .rodata	0000000f _ZL24pstrUsageTransducerIndex
00068f34 l     O .rodata	0000000f _ZL27pstrUsageTabletFunctionKeys
00068f44 l     O .rodata	0000000e _ZL26pstrUsageProgramChangeKeys
0006e58c l     O .rwdata	00000007 _ZL15pstrUsageInvert
0006e594 l     O .rwdata	00000007 _ZL14pstrUsageXTilt
0006e59c l     O .rwdata	00000007 _ZL14pstrUsageYTilt
0006e5a4 l     O .rwdata	00000008 _ZL16pstrUsageAzimuth
00068f54 l     O .rodata	00000009 _ZL17pstrUsageAltitude
0006e5ac l     O .rwdata	00000006 _ZL14pstrUsageTwist
0006e5b4 l     O .rwdata	00000007 _ZL18pstrUsageTipSwitch
00068f60 l     O .rodata	0000000c _ZL27pstrUsageSecondaryTipSwitch
0006e5bc l     O .rwdata	00000007 _ZL21pstrUsageBarrelSwitch
0006e5c4 l     O .rwdata	00000007 _ZL15pstrUsageEraser
00068f6c l     O .rodata	00000009 _ZL19pstrUsageTabletPick
00068f78 l     O .rodata	0000000e _ZL28pstrUsageAlphanumericDisplay
00068f88 l     O .rodata	00000009 _ZL25pstrUsageBitmappedDisplay
00068f94 l     O .rodata	0000000e _ZL32pstrUsageDisplayAttributesReport
00068fa4 l     O .rodata	0000000c _ZL26pstrUsageASCIICharacterSet
00068fb0 l     O .rodata	0000000d _ZL21pstrUsageDataReadBack
00068fc0 l     O .rodata	0000000c _ZL21pstrUsageFontReadBack
00068fcc l     O .rodata	0000000e _ZL29pstrUsageDisplayControlReport
00068fdc l     O .rodata	00000009 _ZL21pstrUsageClearDisplay
00068fe8 l     O .rodata	0000000e _ZL25pstrUsageScreenSaverDelay
00068ff8 l     O .rodata	0000000d _ZL26pstrUsageScreenSaverEnable
00069008 l     O .rodata	00000009 _ZL23pstrUsageVerticalScroll
00069014 l     O .rodata	00000009 _ZL25pstrUsageHorizontalScroll
00069020 l     O .rodata	00000009 _ZL24pstrUsageCharacterReport
0006902c l     O .rodata	0000000a _ZL20pstrUsageDisplayData
00069038 l     O .rodata	0000000a _ZL22pstrUsageDisplayStatus
00069044 l     O .rodata	0000000c _ZL23pstrUsageStatusNotReady
00069050 l     O .rodata	0000000b _ZL20pstrUsageStatusReady
0006905c l     O .rodata	00000010 _ZL35pstrUsageErrorNotALoadableCharacter
0006906c l     O .rodata	00000010 _ZL33pstrUsageErrorFotDataCanNotBeRead
0006907c l     O .rodata	0000000c _ZL29pstrUsageCursorPositionReport
0006e5cc l     O .rwdata	00000004 _ZL12pstrUsageRow
0006e5d0 l     O .rwdata	00000004 _ZL15pstrUsageColumn
0006e5d4 l     O .rwdata	00000005 _ZL13pstrUsageRows
0006e5dc l     O .rwdata	00000005 _ZL16pstrUsageColumns
00069088 l     O .rodata	0000000c _ZL28pstrUsageCursorPixelPosition
00069094 l     O .rodata	00000009 _ZL19pstrUsageCursorMode
000690a0 l     O .rodata	00000009 _ZL21pstrUsageCursorEnable
000690ac l     O .rodata	00000009 _ZL20pstrUsageCursorBlink
0006e5e4 l     O .rwdata	00000008 _ZL19pstrUsageFontReport
000690b8 l     O .rodata	00000009 _ZL17pstrUsageFontData
000690c4 l     O .rodata	0000000a _ZL23pstrUsageCharacterWidth
000690d0 l     O .rodata	0000000a _ZL24pstrUsageCharacterHeight
000690dc l     O .rodata	0000000d _ZL35pstrUsageCharacterSpacingHorizontal
000690ec l     O .rodata	0000000d _ZL33pstrUsageCharacterSpacingVertical
000690fc l     O .rodata	0000000d _ZL23pstrUsageUnicodeCharset
0006910c l     O .rodata	0000000a _ZL21pstrUsageFont7Segment
00069118 l     O .rodata	0000000a _ZL26pstrUsage7SegmentDirectMap
00069124 l     O .rodata	0000000b _ZL22pstrUsageFont14Segment
00069130 l     O .rodata	0000000b _ZL27pstrUsage14SegmentDirectMap
0006913c l     O .rodata	0000000c _ZL26pstrUsageDisplayBrightness
00069148 l     O .rodata	0000000c _ZL24pstrUsageDisplayContrast
00069154 l     O .rodata	0000000a _ZL27pstrUsageCharacterAttribute
00069160 l     O .rodata	0000000c _ZL26pstrUsageAttributeReadback
0006916c l     O .rodata	0000000a _ZL22pstrUsageAttributeData
00069178 l     O .rodata	0000000e _ZL29pstrUsageCharAttributeEnhance
00069188 l     O .rodata	0000000f _ZL31pstrUsageCharAttributeUnderline
00069198 l     O .rodata	0000000f _ZL27pstrUsageCharAttributeBlink
000691a8 l     O .rodata	0000000b _ZL20pstrUsageBitmapSizeX
000691b4 l     O .rodata	0000000b _ZL20pstrUsageBitmapSizeY
000691c0 l     O .rodata	0000000d _ZL23pstrUsageBitDepthFormat
000691d0 l     O .rodata	0000000a _ZL27pstrUsageDisplayOrientation
0006e5ec l     O .rwdata	00000008 _ZL22pstrUsagePaletteReport
000691dc l     O .rodata	0000000e _ZL24pstrUsagePaletteDataSize
000691ec l     O .rodata	0000000d _ZL26pstrUsagePaletteDataOffset
000691fc l     O .rodata	00000009 _ZL20pstrUsagePaletteData
00069208 l     O .rodata	00000009 _ZL19pstrUsageBlitReport
00069214 l     O .rodata	0000000d _ZL24pstrUsageBlitRectangleX1
00069224 l     O .rodata	0000000d _ZL24pstrUsageBlitRectangleY1
00069234 l     O .rodata	0000000d _ZL24pstrUsageBlitRectangleX2
00069244 l     O .rodata	0000000d _ZL24pstrUsageBlitRectangleY2
00069254 l     O .rodata	0000000a _ZL17pstrUsageBlitData
00069260 l     O .rodata	00000009 _ZL19pstrUsageSoftButton
0006926c l     O .rodata	0000000c _ZL21pstrUsageSoftButtonID
00069278 l     O .rodata	0000000e _ZL23pstrUsageSoftButtonSide
00069288 l     O .rodata	0000000e _ZL26pstrUsageSoftButtonOffset1
00069298 l     O .rodata	0000000e _ZL26pstrUsageSoftButtonOffset2
000692a8 l     O .rodata	0000000d _ZL25pstrUsageSoftButtonReport
000692b8 l     O .rodata	0000000d _ZL26pstrUsageMedicalUltrasound
0006e5f4 l     O .rwdata	00000008 _ZL23pstrUsageVCRAcquisition
0006e5fc l     O .rwdata	00000007 _ZL19pstrUsageFreezeThaw
000692c8 l     O .rodata	0000000b _ZL18pstrUsageClipStore
0006e604 l     O .rwdata	00000007 _ZL15pstrUsageUpdate
0006e60c l     O .rwdata	00000005 _ZL13pstrUsageNext
0006e614 l     O .rwdata	00000005 _ZL13pstrUsageSave
0006e61c l     O .rwdata	00000006 _ZL14pstrUsagePrint
000692d4 l     O .rodata	00000009 _ZL25pstrUsageMicrophoneEnable
0006e624 l     O .rwdata	00000005 _ZL13pstrUsageCine
000692e0 l     O .rodata	0000000a _ZL22pstrUsageTransmitPower
0006e62c l     O .rwdata	00000006 _ZL14pstrUsageFocus
0006e634 l     O .rwdata	00000006 _ZL14pstrUsageDepth
000692ec l     O .rodata	0000000d _ZL24pstrUsageSoftStepPrimary
000692fc l     O .rodata	0000000d _ZL26pstrUsageSoftStepSecondary
0006930c l     O .rodata	0000000f _ZL30pstrUsageDepthGainCompensation
0006931c l     O .rodata	00000009 _ZL19pstrUsageZoomSelect
00069328 l     O .rodata	00000009 _ZL19pstrUsageZoomAdjust
00069334 l     O .rodata	00000012 _ZL34pstrUsageSpectralDopplerModeSelect
00069348 l     O .rodata	00000012 _ZL34pstrUsageSpectralDopplerModeAdjust
0006935c l     O .rodata	00000013 _ZL31pstrUsageColorDopplerModeSelect
00069370 l     O .rodata	00000013 _ZL31pstrUsageColorDopplerModeAdjust
00069384 l     O .rodata	00000010 _ZL25pstrUsageMotionModeSelect
00069394 l     O .rodata	00000010 _ZL25pstrUsageMotionModeAdjust
000693a4 l     O .rodata	0000000c _ZL21pstrUsage2DModeSelect
000693b0 l     O .rodata	0000000c _ZL21pstrUsage2DModeAdjust
000693bc l     O .rodata	0000000e _ZL26pstrUsageSoftControlSelect
000693cc l     O .rodata	0000000e _ZL26pstrUsageSoftControlAdjust
00000000 l    df *ABS*	00000000 usbhost.cpp
0006e63a l     O .rwdata	00000001 _ZL9SPI_MODE0
0006e63b l     O .rwdata	00000001 _ZL9SPI_MODE1
0006e63c l     O .rwdata	00000001 _ZL9SPI_MODE2
0006e63d l     O .rwdata	00000001 _ZL9SPI_MODE3
00000000 l    df *ABS*	00000000 main.cpp
0006e640 l     O .rwdata	00000001 _ZL9SPI_MODE0
0006e641 l     O .rwdata	00000001 _ZL9SPI_MODE1
0006e642 l     O .rwdata	00000001 _ZL9SPI_MODE2
0006e643 l     O .rwdata	00000001 _ZL9SPI_MODE3
0006e644 l     O .rwdata	00000002 _ZL9pstrSpace
0006e648 l     O .rwdata	00000003 _ZL8pstrCRLF
0006e64c l     O .rwdata	00000002 _ZL13pstrSingleTab
0006e650 l     O .rwdata	00000003 _ZL13pstrDoubleTab
0006e654 l     O .rwdata	00000004 _ZL13pstrTripleTab
0006e658 l     O .rwdata	00000006 _ZL22pstrUsagePageUndefined
000694ac l     O .rodata	00000012 _ZL35pstrUsagePageGenericDesktopControls
000694c0 l     O .rodata	0000000b _ZL31pstrUsagePageSimulationControls
000694cc l     O .rodata	00000009 _ZL23pstrUsagePageVRControls
000694d8 l     O .rodata	0000000c _ZL26pstrUsagePageSportControls
000694e4 l     O .rodata	0000000b _ZL25pstrUsagePageGameControls
000694f0 l     O .rodata	0000000e _ZL34pstrUsagePageGenericDeviceControls
00069500 l     O .rodata	0000000c _ZL27pstrUsagePageKeyboardKeypad
0006e660 l     O .rwdata	00000005 _ZL17pstrUsagePageLEDs
0006e668 l     O .rwdata	00000007 _ZL19pstrUsagePageButton
0006e670 l     O .rwdata	00000008 _ZL20pstrUsagePageOrdinal
0006e678 l     O .rwdata	00000004 _ZL22pstrUsagePageTelephone
0006950c l     O .rodata	00000009 _ZL21pstrUsagePageConsumer
00069518 l     O .rodata	0000000a _ZL22pstrUsagePageDigitizer
0006e67c l     O .rwdata	00000004 _ZL16pstrUsagePagePID
0006e680 l     O .rwdata	00000008 _ZL20pstrUsagePageUnicode
00069524 l     O .rodata	0000000f _ZL32pstrUsagePageAlphaNumericDisplay
00069534 l     O .rodata	0000000e _ZL31pstrUsagePageMedicalInstruments
0006e688 l     O .rwdata	00000008 _ZL20pstrUsagePageMonitor
0006e690 l     O .rwdata	00000006 _ZL18pstrUsagePagePower
00069544 l     O .rodata	0000000e _ZL27pstrUsagePageBarCodeScanner
0006e698 l     O .rwdata	00000006 _ZL18pstrUsagePageScale
00069554 l     O .rodata	00000015 _ZL23pstrUsagePageMSRDevices
0006e6a0 l     O .rwdata	00000004 _ZL24pstrUsagePagePointOfSale
0006956c l     O .rodata	00000009 _ZL26pstrUsagePageCameraControl
0006e6a4 l     O .rwdata	00000007 _ZL19pstrUsagePageArcade
00069578 l     O .rodata	00000009 _ZL21pstrUsagePageReserved
00069584 l     O .rodata	0000000b _ZL26pstrUsagePageVendorDefined
0006e6ac l     O .rwdata	00000008 _ZL16pstrUsagePointer
0006e6b4 l     O .rwdata	00000006 _ZL14pstrUsageMouse
00069590 l     O .rodata	00000009 _ZL17pstrUsageJoystick
0006959c l     O .rodata	00000009 _ZL16pstrUsageGamePad
0006e6bc l     O .rwdata	00000005 _ZL17pstrUsageKeyboard
0006e6c4 l     O .rwdata	00000007 _ZL15pstrUsageKeypad
000695a8 l     O .rodata	00000010 _ZL28pstrUsageMultiAxisController
000695b8 l     O .rodata	00000014 _ZL31pstrUsageTabletPCSystemControls
0006e6cc l     O .rwdata	00000002 _ZL10pstrUsageX
0006e6d0 l     O .rwdata	00000002 _ZL10pstrUsageY
0006e6d4 l     O .rwdata	00000002 _ZL10pstrUsageZ
0006e6d8 l     O .rwdata	00000003 _ZL11pstrUsageRx
0006e6dc l     O .rwdata	00000003 _ZL11pstrUsageRy
0006e6e0 l     O .rwdata	00000003 _ZL11pstrUsageRz
0006e6e4 l     O .rwdata	00000007 _ZL15pstrUsageSlider
0006e6ec l     O .rwdata	00000005 _ZL13pstrUsageDial
0006e6f4 l     O .rwdata	00000006 _ZL14pstrUsageWheel
000695cc l     O .rodata	0000000b _ZL18pstrUsageHatSwitch
000695d8 l     O .rodata	0000000c _ZL22pstrUsageCountedBuffer
000695e4 l     O .rodata	0000000b _ZL18pstrUsageByteCount
000695f0 l     O .rodata	0000000e _ZL21pstrUsageMotionWakeup
0006e6fc l     O .rwdata	00000006 _ZL14pstrUsageStart
0006e704 l     O .rwdata	00000004 _ZL15pstrUsageSelect
0006e708 l     O .rwdata	00000003 _ZL11pstrUsageVx
0006e70c l     O .rwdata	00000003 _ZL11pstrUsageVy
0006e710 l     O .rwdata	00000003 _ZL11pstrUsageVz
0006e714 l     O .rwdata	00000005 _ZL13pstrUsageVbrx
0006e71c l     O .rwdata	00000005 _ZL13pstrUsageVbry
0006e724 l     O .rwdata	00000005 _ZL13pstrUsageVbrz
0006e72c l     O .rwdata	00000004 _ZL12pstrUsageVno
00069600 l     O .rodata	0000000e _ZL28pstrUsageFeatureNotification
00069610 l     O .rodata	00000009 _ZL29pstrUsageResolutionMultiplier
0006961c l     O .rodata	00000009 _ZL22pstrUsageSystemControl
00069628 l     O .rodata	0000000d _ZL24pstrUsageSystemPowerDown
00069638 l     O .rodata	0000000a _ZL20pstrUsageSystemSleep
00069644 l     O .rodata	0000000b _ZL21pstrUsageSystemWakeup
00069650 l     O .rodata	00000011 _ZL26pstrUsageSystemContextMenu
00069664 l     O .rodata	0000000e _ZL23pstrUsageSystemMainMenu
00069674 l     O .rodata	0000000d _ZL22pstrUsageSystemAppMenu
00069684 l     O .rodata	0000000e _ZL23pstrUsageSystemMenuHelp
00069694 l     O .rodata	0000000e _ZL23pstrUsageSystemMenuExit
000696a4 l     O .rodata	00000010 _ZL25pstrUsageSystemMenuSelect
000696b4 l     O .rodata	0000000f _ZL24pstrUsageSystemMenuRight
000696c4 l     O .rodata	0000000e _ZL23pstrUsageSystemMenuLeft
000696d4 l     O .rodata	0000000c _ZL21pstrUsageSystemMenuUp
000696e0 l     O .rodata	0000000e _ZL23pstrUsageSystemMenuDown
000696f0 l     O .rodata	00000011 _ZL26pstrUsageSystemColdRestart
00069704 l     O .rodata	00000011 _ZL26pstrUsageSystemWarmRestart
00069718 l     O .rodata	00000009 _ZL15pstrUsageDPadUp
00069724 l     O .rodata	0000000b _ZL17pstrUsageDPadDown
00069730 l     O .rodata	0000000c _ZL18pstrUsageDPadRight
0006973c l     O .rodata	0000000b _ZL17pstrUsageDPadLeft
00069748 l     O .rodata	00000009 _ZL19pstrUsageSystemDock
00069754 l     O .rodata	0000000b _ZL21pstrUsageSystemUndock
00069760 l     O .rodata	0000000a _ZL20pstrUsageSystemSetup
0006976c l     O .rodata	0000000a _ZL20pstrUsageSystemBreak
00069778 l     O .rodata	0000000c _ZL28pstrUsageSystemDebuggerBreak
00069784 l     O .rodata	0000000a _ZL25pstrUsageApplicationBreak
00069790 l     O .rodata	0000000c _ZL33pstrUsageApplicationDebuggerBreak
0006979c l     O .rodata	0000000d _ZL26pstrUsageSystemSpeakerMute
000697ac l     O .rodata	0000000a _ZL24pstrUsageSystemHibernate
000697b8 l     O .rodata	0000000d _ZL28pstrUsageSystemDisplayInvert
000697c8 l     O .rodata	0000000d _ZL30pstrUsageSystemDisplayInternal
000697d8 l     O .rodata	0000000d _ZL30pstrUsageSystemDisplayExternal
000697e8 l     O .rodata	0000000e _ZL26pstrUsageSystemDisplayBoth
000697f8 l     O .rodata	0000000e _ZL26pstrUsageSystemDisplayDual
00069808 l     O .rodata	00000015 _ZL34pstrUsageSystemDisplayToggleIntExt
00069820 l     O .rodata	00000016 _ZL32pstrUsageSystemDisplaySwapPriSec
00069838 l     O .rodata	00000017 _ZL34pstrUsageSystemDisplayLCDAutoscale
00069850 l     O .rodata	00000010 _ZL31pstrUsageFlightSimulationDevice
00069860 l     O .rodata	0000000e _ZL35pstrUsageAutomobileSimulationDevice
00069870 l     O .rodata	0000000e _ZL29pstrUsageTankSimulationDevice
00069880 l     O .rodata	0000000f _ZL34pstrUsageSpaceshipSimulationDevice
00069890 l     O .rodata	0000000e _ZL34pstrUsageSubmarineSimulationDevice
000698a0 l     O .rodata	0000000e _ZL32pstrUsageSailingSimulationDevice
000698b0 l     O .rodata	0000000e _ZL34pstrUsageMotocicleSimulationDevice
000698c0 l     O .rodata	0000000f _ZL31pstrUsageSportsSimulationDevice
000698d0 l     O .rodata	0000000e _ZL33pstrUsageAirplaneSimulationDevice
000698e0 l     O .rodata	0000000e _ZL35pstrUsageHelicopterSimulationDevice
000698f0 l     O .rodata	00000016 _ZL36pstrUsageMagicCarpetSimulationDevice
00069908 l     O .rodata	0000000e _ZL32pstrUsageBicycleSimulationDevice
00069918 l     O .rodata	00000012 _ZL27pstrUsageFlightControlStick
0006992c l     O .rodata	0000000d _ZL20pstrUsageFlightStick
0006993c l     O .rodata	0000000c _ZL22pstrUsageCyclicControl
00069948 l     O .rodata	0000000c _ZL19pstrUsageCyclicTrim
00069954 l     O .rodata	0000000c _ZL19pstrUsageFlightYoke
00069960 l     O .rodata	0000000b _ZL21pstrUsageTrackControl
0006e730 l     O .rwdata	00000008 _ZL16pstrUsageAileron
0006996c l     O .rodata	0000000d _ZL20pstrUsageAileronTrim
0006997c l     O .rodata	00000011 _ZL26pstrUsageAntiTorqueControl
00069990 l     O .rodata	00000011 _ZL24pstrUsageAutopilotEnable
000699a4 l     O .rodata	0000000e _ZL21pstrUsageChaffRelease
000699b4 l     O .rodata	00000010 _ZL26pstrUsageCollectiveControl
000699c4 l     O .rodata	0000000b _ZL18pstrUsageDiveBrake
000699d0 l     O .rodata	00000013 _ZL34pstrUsageElectronicCountermeasures
000699e4 l     O .rodata	00000009 _ZL17pstrUsageElevator
000699f0 l     O .rodata	0000000e _ZL21pstrUsageElevatorTrim
0006e738 l     O .rwdata	00000007 _ZL15pstrUsageRudder
00069a00 l     O .rodata	00000009 _ZL17pstrUsageThrottle
00069a0c l     O .rodata	0000000c _ZL29pstrUsageFlightCommunications
00069a18 l     O .rodata	0000000e _ZL21pstrUsageFlareRelease
00069a28 l     O .rodata	0000000d _ZL20pstrUsageLandingGear
00069a38 l     O .rodata	0000000a _ZL17pstrUsageToeBrake
0006e740 l     O .rwdata	00000008 _ZL16pstrUsageTrigger
00069a44 l     O .rodata	0000000c _ZL19pstrUsageWeaponsArm
00069a50 l     O .rodata	0000000c _ZL22pstrUsageWeaponsSelect
00069a5c l     O .rodata	0000000b _ZL18pstrUsageWingFlaps
0006e748 l     O .rwdata	00000006 _ZL20pstrUsageAccelerator
0006e750 l     O .rwdata	00000006 _ZL14pstrUsageBrake
0006e758 l     O .rwdata	00000007 _ZL15pstrUsageClutch
0006e760 l     O .rwdata	00000008 _ZL16pstrUsageShifter
00069a68 l     O .rodata	00000009 _ZL17pstrUsageSteering
00069a74 l     O .rodata	0000000b _ZL24pstrUsageTurretDirection
00069a80 l     O .rodata	0000000b _ZL24pstrUsageBarrelElevation
00069a8c l     O .rodata	0000000b _ZL18pstrUsageDivePlane
0006e768 l     O .rwdata	00000008 _ZL16pstrUsageBallast
00069a98 l     O .rodata	0000000e _ZL21pstrUsageBicycleCrank
00069aa8 l     O .rodata	0000000c _ZL19pstrUsageHandleBars
00069ab4 l     O .rodata	0000000c _ZL19pstrUsageFrontBrake
00069ac0 l     O .rodata	0000000b _ZL18pstrUsageRearBrake
0006e770 l     O .rwdata	00000005 _ZL13pstrUsageBelt
00069acc l     O .rodata	0000000a _ZL17pstrUsageBodySuit
0006e778 l     O .rwdata	00000007 _ZL15pstrUsageFlexor
0006e780 l     O .rwdata	00000006 _ZL14pstrUsageGlove
00069ad8 l     O .rodata	0000000b _ZL20pstrUsageHeadTracker
00069ae4 l     O .rodata	0000000a _ZL27pstrUsageHeadMountedDisplay
00069af0 l     O .rodata	0000000b _ZL20pstrUsageHandTracker
00069afc l     O .rodata	0000000b _ZL19pstrUsageOculometer
0006e788 l     O .rwdata	00000005 _ZL13pstrUsageVest
00069b08 l     O .rodata	0000000b _ZL26pstrUsageAnimatronicDevice
00069b14 l     O .rodata	0000000c _ZL21pstrUsageStereoEnable
00069b20 l     O .rodata	0000000d _ZL22pstrUsageDisplayEnable
00069b30 l     O .rodata	0000000d _ZL20pstrUsageBaseballBat
00069b40 l     O .rodata	0000000a _ZL17pstrUsageGolfClub
00069b4c l     O .rodata	0000000c _ZL22pstrUsageRowingMachine
00069b58 l     O .rodata	0000000a _ZL18pstrUsageTreadmill
0006e790 l     O .rwdata	00000004 _ZL12pstrUsageOar
0006e794 l     O .rwdata	00000006 _ZL14pstrUsageSlope
0006e79c l     O .rwdata	00000005 _ZL13pstrUsageRate
00069b64 l     O .rodata	0000000c _ZL19pstrUsageStickSpeed
00069b70 l     O .rodata	0000000f _ZL23pstrUsageStickFaceAngle
00069b80 l     O .rodata	0000000f _ZL21pstrUsageStickHeelToe
00069b90 l     O .rodata	0000000f _ZL26pstrUsageStickFollowThough
00069ba0 l     O .rodata	0000000c _ZL19pstrUsageStickTempo
00069bac l     O .rodata	0000000b _ZL18pstrUsageStickType
00069bb8 l     O .rodata	0000000b _ZL20pstrUsageStickHeight
0006e7a4 l     O .rwdata	00000007 _ZL15pstrUsagePutter
0006e7ac l     O .rwdata	00000007 _ZL14pstrUsage1Iron
0006e7b4 l     O .rwdata	00000007 _ZL14pstrUsage2Iron
0006e7bc l     O .rwdata	00000007 _ZL14pstrUsage3Iron
0006e7c4 l     O .rwdata	00000007 _ZL14pstrUsage4Iron
0006e7cc l     O .rwdata	00000007 _ZL14pstrUsage5Iron
0006e7d4 l     O .rwdata	00000007 _ZL14pstrUsage6Iron
0006e7dc l     O .rwdata	00000007 _ZL14pstrUsage7Iron
0006e7e4 l     O .rwdata	00000007 _ZL14pstrUsage8Iron
0006e7ec l     O .rwdata	00000007 _ZL14pstrUsage9Iron
0006e7f4 l     O .rwdata	00000008 _ZL15pstrUsage10Iron
0006e7fc l     O .rwdata	00000008 _ZL15pstrUsage11Iron
00069bc4 l     O .rodata	0000000b _ZL18pstrUsageSandWedge
00069bd0 l     O .rodata	0000000b _ZL18pstrUsageLoftWedge
00069bdc l     O .rodata	0000000a _ZL19pstrUsagePowerWedge
0006e804 l     O .rwdata	00000007 _ZL14pstrUsage1Wood
0006e80c l     O .rwdata	00000007 _ZL14pstrUsage3Wood
0006e814 l     O .rwdata	00000007 _ZL14pstrUsage5Wood
0006e81c l     O .rwdata	00000007 _ZL14pstrUsage7Wood
0006e824 l     O .rwdata	00000007 _ZL14pstrUsage9Wood
00069be8 l     O .rodata	0000000d _ZL25pstrUsage3DGameController
00069bf8 l     O .rodata	0000000c _ZL22pstrUsagePinballDevice
0006e82c l     O .rwdata	00000008 _ZL18pstrUsageGunDevice
0006e834 l     O .rwdata	00000004 _ZL20pstrUsagePointOfView
00069c04 l     O .rodata	00000010 _ZL22pstrUsageTurnRightLeft
00069c14 l     O .rodata	0000000f _ZL29pstrUsagePitchForwardBackward
00069c24 l     O .rodata	00000010 _ZL22pstrUsageRollRightLeft
00069c34 l     O .rodata	00000010 _ZL22pstrUsageMoveRightLeft
00069c44 l     O .rodata	0000000e _ZL28pstrUsageMoveForwardBackward
00069c54 l     O .rodata	0000000d _ZL19pstrUsageMoveUpDown
00069c64 l     O .rodata	00000010 _ZL22pstrUsageLeanRightLeft
00069c74 l     O .rodata	0000000e _ZL28pstrUsageLeanForwardBackward
00069c84 l     O .rodata	0000000e _ZL20pstrUsageHeightOfPOV
0006e838 l     O .rwdata	00000008 _ZL16pstrUsageFlipper
00069c94 l     O .rodata	0000000f _ZL25pstrUsageSecondaryFlipper
0006e840 l     O .rwdata	00000005 _ZL13pstrUsageBump
00069ca4 l     O .rodata	00000009 _ZL16pstrUsageNewGame
00069cb0 l     O .rodata	0000000b _ZL18pstrUsageShootBall
0006e848 l     O .rwdata	00000007 _ZL15pstrUsagePlayer
00069cbc l     O .rodata	00000009 _ZL16pstrUsageGunBolt
00069cc8 l     O .rodata	00000009 _ZL16pstrUsageGunClip
0006e850 l     O .rwdata	00000008 _ZL20pstrUsageGunSelector
00069cd4 l     O .rodata	0000000e _ZL22pstrUsageGunSingleShot
00069ce4 l     O .rodata	0000000a _ZL17pstrUsageGunBurst
00069cf0 l     O .rodata	00000009 _ZL21pstrUsageGunAutomatic
00069cfc l     O .rodata	0000000b _ZL18pstrUsageGunSafety
00069d08 l     O .rodata	00000012 _ZL24pstrUsageGamepadFireJump
00069d1c l     O .rodata	0000000d _ZL23pstrUsageGamepadTrigger
00069d2c l     O .rodata	0000000d _ZL24pstrUsageBatteryStrength
00069d3c l     O .rodata	0000000c _ZL24pstrUsageWirelessChannel
00069d48 l     O .rodata	0000000c _ZL19pstrUsageWirelessID
00069d54 l     O .rodata	00000017 _ZL32pstrUsageDiscoverWirelessControl
00069d6c l     O .rodata	00000014 _ZL32pstrUsageSecurityCodeCharEntered
00069d80 l     O .rodata	00000015 _ZL31pstrUsageSecurityCodeCharErased
00069d98 l     O .rodata	00000011 _ZL28pstrUsageSecurityCodeCleared
00069dac l     O .rodata	00000009 _ZL16pstrUsageNumLock
00069db8 l     O .rodata	0000000a _ZL17pstrUsageCapsLock
00069dc4 l     O .rodata	0000000c _ZL19pstrUsageScrollLock
0006e858 l     O .rwdata	00000008 _ZL16pstrUsageCompose
0006e860 l     O .rwdata	00000005 _ZL13pstrUsageKana
0006e868 l     O .rwdata	00000004 _ZL14pstrUsagePower
0006e86c l     O .rwdata	00000006 _ZL14pstrUsageShift
0006e874 l     O .rwdata	00000004 _ZL21pstrUsageDoNotDisturb
0006e878 l     O .rwdata	00000005 _ZL13pstrUsageMute
00069dd0 l     O .rodata	0000000a _ZL19pstrUsageToneEnable
00069ddc l     O .rodata	0000000e _ZL22pstrUsageHighCutFilter
00069dec l     O .rodata	0000000d _ZL21pstrUsageLowCutFilter
0006e880 l     O .rwdata	00000008 _ZL24pstrUsageEqualizerEnable
00069dfc l     O .rodata	0000000f _ZL21pstrUsageSoundFieldOn
00069e0c l     O .rodata	0000000c _ZL19pstrUsageSurroundOn
0006e888 l     O .rwdata	00000007 _ZL15pstrUsageRepeat
0006e890 l     O .rwdata	00000007 _ZL15pstrUsageStereo
00069e18 l     O .rodata	00000011 _ZL27pstrUsageSamplingRateDetect
00069e2c l     O .rodata	00000009 _ZL17pstrUsageSpinning
0006e898 l     O .rwdata	00000004 _ZL12pstrUsageCAV
0006e89c l     O .rwdata	00000004 _ZL12pstrUsageCLV
00069e38 l     O .rodata	00000012 _ZL30pstrUsageRecordingFormatDetect
00069e4c l     O .rodata	00000009 _ZL16pstrUsageOffHook
0006e8a0 l     O .rwdata	00000005 _ZL13pstrUsageRing
00069e58 l     O .rodata	00000009 _ZL23pstrUsageMessageWaiting
00069e64 l     O .rodata	0000000a _ZL17pstrUsageDataMode
0006e8a8 l     O .rwdata	00000007 _ZL25pstrUsageBatteryOperation
0006e8b0 l     O .rwdata	00000007 _ZL18pstrUsageBatteryOK
0006e8b8 l     O .rwdata	00000008 _ZL19pstrUsageBatteryLow
0006e8c0 l     O .rwdata	00000008 _ZL16pstrUsageSpeaker
00069e70 l     O .rodata	00000009 _ZL16pstrUsageHeadSet
0006e8c8 l     O .rwdata	00000005 _ZL13pstrUsageHold
0006e8d0 l     O .rwdata	00000004 _ZL19pstrUsageMicrophone
00069e7c l     O .rodata	00000009 _ZL17pstrUsageCoverage
00069e88 l     O .rodata	0000000b _ZL18pstrUsageNightMode
00069e94 l     O .rodata	0000000b _ZL18pstrUsageSendCalls
00069ea0 l     O .rodata	0000000c _ZL19pstrUsageCallPickup
0006e8d4 l     O .rwdata	00000005 _ZL19pstrUsageConference
00069eac l     O .rodata	00000009 _ZL16pstrUsageStandBy
0006e8dc l     O .rwdata	00000007 _ZL17pstrUsageCameraOn
0006e8e4 l     O .rwdata	00000008 _ZL18pstrUsageCameraOff
0006e8ec l     O .rwdata	00000008 _ZL15pstrUsageOnLine
00069eb8 l     O .rodata	00000009 _ZL16pstrUsageOffLine
0006e8f4 l     O .rwdata	00000005 _ZL13pstrUsageBusy
0006e8fc l     O .rwdata	00000006 _ZL14pstrUsageReady
00069ec4 l     O .rodata	0000000a _ZL17pstrUsagePaperOut
00069ed0 l     O .rodata	0000000a _ZL17pstrUsagePaperJam
0006e904 l     O .rwdata	00000007 _ZL15pstrUsageRemote
0006e90c l     O .rwdata	00000004 _ZL16pstrUsageForward
0006e910 l     O .rwdata	00000004 _ZL16pstrUsageReverse
0006e914 l     O .rwdata	00000005 _ZL13pstrUsageStop
0006e91c l     O .rwdata	00000007 _ZL15pstrUsageRewind
00069edc l     O .rodata	00000009 _ZL20pstrUsageFastForward
0006e924 l     O .rwdata	00000005 _ZL13pstrUsagePlay
0006e92c l     O .rwdata	00000006 _ZL14pstrUsagePause
0006e934 l     O .rwdata	00000004 _ZL15pstrUsageRecord
0006e938 l     O .rwdata	00000006 _ZL14pstrUsageError
00069ee8 l     O .rodata	0000000e _ZL26pstrUsageSelectedIndicator
00069ef8 l     O .rodata	00000011 _ZL23pstrUsageInUseIndicator
00069f0c l     O .rodata	00000015 _ZL27pstrUsageMultiModeIndicator
0006e940 l     O .rwdata	00000007 _ZL20pstrUsageIndicatorOn
00069f24 l     O .rodata	0000000a _ZL23pstrUsageIndicatorFlash
00069f30 l     O .rodata	0000000d _ZL27pstrUsageIndicatorSlowBlink
00069f40 l     O .rodata	0000000d _ZL27pstrUsageIndicatorFastBlink
0006e948 l     O .rwdata	00000008 _ZL21pstrUsageIndicatorOff
00069f50 l     O .rodata	0000000e _ZL20pstrUsageFlashOnTime
00069f60 l     O .rodata	00000011 _ZL24pstrUsageSlowBlinkOnTime
00069f74 l     O .rodata	00000012 _ZL25pstrUsageSlowBlinkOffTime
00069f88 l     O .rodata	00000011 _ZL24pstrUsageFastBlinkOnTime
00069f9c l     O .rodata	00000012 _ZL25pstrUsageFastBlinkOffTime
00069fb0 l     O .rodata	00000010 _ZL23pstrUsageIndicatorColor
0006e950 l     O .rwdata	00000008 _ZL21pstrUsageIndicatorRed
00069fc0 l     O .rodata	0000000a _ZL23pstrUsageIndicatorGreen
00069fcc l     O .rodata	0000000a _ZL23pstrUsageIndicatorAmber
0006e958 l     O .rwdata	00000008 _ZL25pstrUsageGenericIndicator
00069fd8 l     O .rodata	0000000c _ZL22pstrUsageSystemSuspend
00069fe4 l     O .rodata	0000000d _ZL31pstrUsageExternalPowerConnected
0006e960 l     O .rwdata	00000006 _ZL14pstrUsagePhone
00069ff4 l     O .rodata	0000000a _ZL25pstrUsageAnsweringMachine
0006a000 l     O .rodata	0000000a _ZL24pstrUsageMessageControls
0006e968 l     O .rwdata	00000008 _ZL16pstrUsageHandset
0006e970 l     O .rwdata	00000008 _ZL16pstrUsageHeadset
0006a00c l     O .rodata	0000000c _ZL24pstrUsageTelephonyKeyPad
0006a018 l     O .rodata	0000000c _ZL27pstrUsageProgrammableButton
0006e978 l     O .rwdata	00000008 _ZL19pstrUsageHookSwitch
0006e980 l     O .rwdata	00000006 _ZL14pstrUsageFlash
0006e988 l     O .rwdata	00000008 _ZL16pstrUsageFeature
0006e990 l     O .rwdata	00000007 _ZL15pstrUsageRedial
0006a024 l     O .rodata	00000009 _ZL17pstrUsageTransfer
0006e998 l     O .rwdata	00000005 _ZL13pstrUsageDrop
0006e9a0 l     O .rwdata	00000005 _ZL13pstrUsagePark
0006a030 l     O .rodata	0000000a _ZL21pstrUsageForwardCalls
0006a03c l     O .rodata	00000009 _ZL26pstrUsageAlternateFunction
0006e9a8 l     O .rwdata	00000005 _ZL13pstrUsageLine
0006a048 l     O .rodata	0000000a _ZL21pstrUsageSpeakerPhone
0006a054 l     O .rodata	0000000a _ZL19pstrUsageRingEnable
0006a060 l     O .rodata	00000009 _ZL19pstrUsageRingSelect
0006a06c l     O .rodata	0000000b _ZL18pstrUsagePhoneMute
0006a078 l     O .rodata	0000000a _ZL17pstrUsageCallerID
0006e9b0 l     O .rwdata	00000005 _ZL13pstrUsageSend
0006a084 l     O .rodata	0000000b _ZL18pstrUsageSpeedDial
0006a090 l     O .rodata	0000000a _ZL20pstrUsageStoreNumber
0006a09c l     O .rodata	0000000b _ZL21pstrUsageRecallNumber
0006a0a8 l     O .rodata	0000000a _ZL23pstrUsagePhoneDirectory
0006a0b4 l     O .rodata	0000000b _ZL18pstrUsageVoiceMail
0006a0c0 l     O .rodata	0000000d _ZL20pstrUsageScreenCalls
0006e9b8 l     O .rwdata	00000004 _ZL16pstrUsageMessage
0006a0d0 l     O .rodata	0000000e _ZL20pstrUsageAnswerOnOff
0006a0e0 l     O .rodata	00000011 _ZL23pstrUsageInsideDialTone
0006a0f4 l     O .rodata	00000012 _ZL24pstrUsageOutsideDialTone
0006a108 l     O .rodata	00000011 _ZL23pstrUsageInsideRingTone
0006a11c l     O .rodata	00000012 _ZL24pstrUsageOutsideRingTone
0006a130 l     O .rodata	00000010 _ZL25pstrUsagePriorityRingTone
0006a140 l     O .rodata	00000010 _ZL23pstrUsageInsideRingback
0006a150 l     O .rodata	00000012 _ZL25pstrUsagePriorityRingback
0006a164 l     O .rodata	0000000d _ZL21pstrUsageLineBusyTone
0006a174 l     O .rodata	0000000d _ZL20pstrUsageReorderTone
0006a184 l     O .rodata	0000000f _ZL24pstrUsageCallWaitingTone
0006a194 l     O .rodata	0000000c _ZL26pstrUsageConfirmationTone1
0006a1a0 l     O .rodata	0000000c _ZL26pstrUsageConfirmationTone2
0006a1ac l     O .rodata	0000000a _ZL17pstrUsageTonesOff
0006a1b8 l     O .rodata	00000011 _ZL24pstrUsageOutsideRingback
0006e9bc l     O .rwdata	00000007 _ZL15pstrUsageRinger
0006e9c4 l     O .rwdata	00000002 _ZL18pstrUsagePhoneKey0
0006e9c8 l     O .rwdata	00000002 _ZL18pstrUsagePhoneKey1
0006e9cc l     O .rwdata	00000002 _ZL18pstrUsagePhoneKey2
0006e9d0 l     O .rwdata	00000002 _ZL18pstrUsagePhoneKey3
0006e9d4 l     O .rwdata	00000002 _ZL18pstrUsagePhoneKey4
0006e9d8 l     O .rwdata	00000002 _ZL18pstrUsagePhoneKey5
0006e9dc l     O .rwdata	00000002 _ZL18pstrUsagePhoneKey6
0006e9e0 l     O .rwdata	00000002 _ZL18pstrUsagePhoneKey7
0006e9e4 l     O .rwdata	00000002 _ZL18pstrUsagePhoneKey8
0006e9e8 l     O .rwdata	00000002 _ZL18pstrUsagePhoneKey9
0006e9ec l     O .rwdata	00000002 _ZL21pstrUsagePhoneKeyStar
0006e9f0 l     O .rwdata	00000002 _ZL22pstrUsagePhoneKeyPound
0006e9f4 l     O .rwdata	00000002 _ZL18pstrUsagePhoneKeyA
0006e9f8 l     O .rwdata	00000002 _ZL18pstrUsagePhoneKeyB
0006e9fc l     O .rwdata	00000002 _ZL18pstrUsagePhoneKeyC
0006ea00 l     O .rwdata	00000002 _ZL18pstrUsagePhoneKeyD
0006a1cc l     O .rodata	0000000e _ZL24pstrUsageConsumerControl
0006a1dc l     O .rodata	0000000c _ZL22pstrUsageNumericKeyPad
0006a1e8 l     O .rodata	0000000a _ZL18pstrUsageHeadphone
0006a1f4 l     O .rodata	00000009 _ZL25pstrUsageGraphicEqualizer
0006ea04 l     O .rwdata	00000004 _ZL15pstrUsagePlus10
0006ea08 l     O .rwdata	00000005 _ZL16pstrUsagePlus100
0006ea10 l     O .rwdata	00000006 _ZL13pstrUsageAMPM
0006ea18 l     O .rwdata	00000006 _ZL14pstrUsageReset
0006ea20 l     O .rwdata	00000006 _ZL14pstrUsageSleep
0006a200 l     O .rodata	0000000c _ZL19pstrUsageSleepAfter
0006a20c l     O .rodata	0000000b _ZL18pstrUsageSleepMode
0006ea28 l     O .rwdata	00000008 _ZL21pstrUsageIllumination
0006a218 l     O .rodata	0000000a _ZL24pstrUsageFunctionButtons
0006ea30 l     O .rwdata	00000005 _ZL13pstrUsageMenu
0006a224 l     O .rodata	0000000a _ZL17pstrUsageMenuPick
0006ea38 l     O .rwdata	00000008 _ZL15pstrUsageMenuUp
0006a230 l     O .rodata	0000000a _ZL17pstrUsageMenuDown
0006a23c l     O .rodata	0000000a _ZL17pstrUsageMenuLeft
0006a248 l     O .rodata	0000000b _ZL18pstrUsageMenuRight
0006a254 l     O .rodata	00000009 _ZL19pstrUsageMenuEscape
0006a260 l     O .rodata	0000000d _ZL26pstrUsageMenuValueIncrease
0006a270 l     O .rodata	0000000d _ZL26pstrUsageMenuValueDecrease
0006a280 l     O .rodata	0000000c _ZL21pstrUsageDataOnScreen
0006a28c l     O .rodata	0000000c _ZL22pstrUsageClosedCaption
0006a298 l     O .rodata	00000010 _ZL28pstrUsageClosedCaptionSelect
0006ea40 l     O .rwdata	00000007 _ZL14pstrUsageVCRTV
0006a2a8 l     O .rodata	0000000d _ZL22pstrUsageBroadcastMode
0006a2b8 l     O .rodata	00000009 _ZL17pstrUsageSnapshot
0006ea48 l     O .rwdata	00000006 _ZL14pstrUsageStill
0006ea50 l     O .rwdata	00000004 _ZL18pstrUsageSelection
0006a2c4 l     O .rodata	0000000b _ZL24pstrUsageAssignSelection
0006a2d0 l     O .rodata	0000000a _ZL17pstrUsageModeStep
0006a2dc l     O .rodata	0000000c _ZL19pstrUsageRecallLast
0006a2e8 l     O .rodata	0000000d _ZL21pstrUsageEnterChannel
0006a2f8 l     O .rodata	0000000a _ZL19pstrUsageOrderMovie
0006ea54 l     O .rwdata	00000008 _ZL16pstrUsageChannel
0006ea5c l     O .rwdata	00000008 _ZL23pstrUsageMediaSelection
0006a304 l     O .rodata	0000000d _ZL28pstrUsageMediaSelectComputer
0006a314 l     O .rodata	0000000b _ZL22pstrUsageMediaSelectTV
0006a320 l     O .rodata	0000000c _ZL23pstrUsageMediaSelectWWW
0006a32c l     O .rodata	0000000c _ZL23pstrUsageMediaSelectDVD
0006a338 l     O .rodata	0000000c _ZL29pstrUsageMediaSelectTelephone
0006a344 l     O .rodata	0000000b _ZL32pstrUsageMediaSelectProgramGuide
0006a350 l     O .rodata	0000000c _ZL30pstrUsageMediaSelectVideoPhone
0006a35c l     O .rodata	0000000e _ZL25pstrUsageMediaSelectGames
0006a36c l     O .rodata	0000000c _ZL28pstrUsageMediaSelectMessages
0006a378 l     O .rodata	0000000b _ZL22pstrUsageMediaSelectCD
0006a384 l     O .rodata	0000000c _ZL23pstrUsageMediaSelectVCR
0006a390 l     O .rodata	0000000e _ZL25pstrUsageMediaSelectTuner
0006ea64 l     O .rwdata	00000005 _ZL13pstrUsageQuit
0006ea6c l     O .rwdata	00000005 _ZL13pstrUsageHelp
0006a3a0 l     O .rodata	0000000d _ZL24pstrUsageMediaSelectTape
0006a3b0 l     O .rodata	0000000c _ZL25pstrUsageMediaSelectCable
0006a3bc l     O .rodata	0000000c _ZL29pstrUsageMediaSelectSatellite
0006a3c8 l     O .rodata	0000000e _ZL28pstrUsageMediaSelectSecurity
0006a3d8 l     O .rodata	0000000d _ZL24pstrUsageMediaSelectHome
0006a3e8 l     O .rodata	0000000d _ZL24pstrUsageMediaSelectCall
0006ea74 l     O .rwdata	00000007 _ZL25pstrUsageChannelIncrement
0006ea7c l     O .rwdata	00000007 _ZL25pstrUsageChannelDecrement
0006a3f8 l     O .rodata	0000000c _ZL23pstrUsageMediaSelectSAP
0006ea84 l     O .rwdata	00000005 _ZL16pstrUsageVCRPlus
0006ea8c l     O .rwdata	00000005 _ZL13pstrUsageOnce
0006ea94 l     O .rwdata	00000006 _ZL14pstrUsageDaily
0006ea9c l     O .rwdata	00000007 _ZL15pstrUsageWeekly
0006eaa4 l     O .rwdata	00000008 _ZL16pstrUsageMonthly
0006a404 l     O .rodata	0000000b _ZL22pstrUsageScanNextTrack
0006a410 l     O .rodata	0000000b _ZL26pstrUsageScanPreviousTrack
0006eaac l     O .rwdata	00000006 _ZL14pstrUsageEject
0006eab4 l     O .rwdata	00000007 _ZL19pstrUsageRandomPlay
0006a41c l     O .rodata	00000009 _ZL19pstrUsageSelectDisk
0006a428 l     O .rodata	00000009 _ZL18pstrUsageEnterDisk
0006a434 l     O .rodata	00000009 _ZL17pstrUsageTracking
0006a440 l     O .rodata	00000009 _ZL20pstrUsageTrackNormal
0006a44c l     O .rodata	00000009 _ZL21pstrUsageSlowTracking
0006eabc l     O .rwdata	00000008 _ZL21pstrUsageFrameForward
0006a458 l     O .rodata	00000009 _ZL23pstrUsageFrameBackwards
0006eac4 l     O .rwdata	00000005 _ZL13pstrUsageMark
0006a464 l     O .rodata	00000009 _ZL18pstrUsageClearMark
0006a470 l     O .rodata	00000009 _ZL23pstrUsageRepeatFromMark
0006a47c l     O .rodata	0000000c _ZL21pstrUsageReturnToMark
0006a488 l     O .rodata	00000010 _ZL26pstrUsageSearchMarkForward
0006a498 l     O .rodata	00000011 _ZL28pstrUsageSearchMarkBackwards
0006a4ac l     O .rodata	0000000e _ZL21pstrUsageCounterReset
0006a4bc l     O .rodata	0000000d _ZL20pstrUsageShowCounter
0006a4cc l     O .rodata	0000000a _ZL26pstrUsageTrackingIncrement
0006a4d8 l     O .rodata	0000000a _ZL26pstrUsageTrackingDecrement
0006a4e4 l     O .rodata	0000000b _ZL18pstrUsageStopEject
0006a4f0 l     O .rodata	0000000b _ZL18pstrUsagePlayPause
0006a4fc l     O .rodata	0000000a _ZL17pstrUsagePlaySkip
0006eacc l     O .rwdata	00000004 _ZL15pstrUsageVolume
0006ead0 l     O .rwdata	00000008 _ZL16pstrUsageBalance
0006ead8 l     O .rwdata	00000005 _ZL13pstrUsageBass
0006eae0 l     O .rwdata	00000007 _ZL15pstrUsageTreble
0006a508 l     O .rodata	0000000b _ZL18pstrUsageBassBoost
0006a514 l     O .rodata	00000009 _ZL21pstrUsageSurroundMode
0006eae8 l     O .rwdata	00000005 _ZL17pstrUsageLoudness
0006eaf0 l     O .rwdata	00000004 _ZL12pstrUsageMPX
0006eaf4 l     O .rwdata	00000008 _ZL24pstrUsageVolumeIncrement
0006eafc l     O .rwdata	00000008 _ZL24pstrUsageVolumeDecrement
0006eb04 l     O .rwdata	00000006 _ZL20pstrUsageSpeedSelect
0006a520 l     O .rodata	0000000b _ZL22pstrUsagePlaybackSpeed
0006a52c l     O .rodata	00000009 _ZL21pstrUsageStandardPlay
0006a538 l     O .rodata	0000000a _ZL17pstrUsageLongPlay
0006a544 l     O .rodata	00000009 _ZL21pstrUsageExtendedPlay
0006eb0c l     O .rwdata	00000005 _ZL13pstrUsageSlow
0006a550 l     O .rodata	00000009 _ZL18pstrUsageFanEnable
0006a55c l     O .rodata	0000000a _ZL17pstrUsageFanSpeed
0006a568 l     O .rodata	0000000b _ZL20pstrUsageLightEnable
0006a574 l     O .rodata	00000010 _ZL31pstrUsageLightIlluminationLevel
0006a584 l     O .rodata	0000000d _ZL29pstrUsageClimateControlEnable
0006a594 l     O .rodata	0000000a _ZL24pstrUsageRoomTemperature
0006a5a0 l     O .rodata	0000000b _ZL23pstrUsageSecurityEnable
0006a5ac l     O .rodata	00000009 _ZL18pstrUsageFireAlarm
0006a5b8 l     O .rodata	0000000b _ZL20pstrUsagePoliceAlarm
0006eb14 l     O .rwdata	00000005 _ZL18pstrUsageProximity
0006eb1c l     O .rwdata	00000007 _ZL15pstrUsageMotion
0006a5c4 l     O .rodata	0000000a _ZL19pstrUsageDuresAlarm
0006a5d0 l     O .rodata	0000000b _ZL20pstrUsageHoldupAlarm
0006eb24 l     O .rwdata	00000008 _ZL21pstrUsageMedicalAlarm
0006a5dc l     O .rodata	0000000e _ZL21pstrUsageBalanceRight
0006a5ec l     O .rodata	0000000d _ZL20pstrUsageBalanceLeft
0006a5fc l     O .rodata	00000009 _ZL22pstrUsageBassIncrement
0006a608 l     O .rodata	00000009 _ZL22pstrUsageBassDecrement
0006a614 l     O .rodata	0000000b _ZL24pstrUsageTrebleIncrement
0006a620 l     O .rodata	0000000b _ZL24pstrUsageTrebleDecrement
0006eb2c l     O .rwdata	00000008 _ZL22pstrUsageSpeakerSystem
0006eb34 l     O .rwdata	00000008 _ZL20pstrUsageChannelLeft
0006a62c l     O .rodata	00000009 _ZL21pstrUsageChannelRight
0006a638 l     O .rodata	0000000a _ZL22pstrUsageChannelCenter
0006a644 l     O .rodata	00000009 _ZL21pstrUsageChannelFront
0006a650 l     O .rodata	0000000e _ZL27pstrUsageChannelCenterFront
0006eb3c l     O .rwdata	00000008 _ZL20pstrUsageChannelSide
0006a660 l     O .rodata	0000000c _ZL24pstrUsageChannelSurround
0006a66c l     O .rodata	00000010 _ZL34pstrUsageChannelLowFreqEnhancement
0006eb44 l     O .rwdata	00000007 _ZL19pstrUsageChannelTop
0006eb4c l     O .rwdata	00000007 _ZL23pstrUsageChannelUnknown
0006eb54 l     O .rwdata	00000007 _ZL19pstrUsageSubChannel
0006a67c l     O .rodata	0000000b _ZL28pstrUsageSubChannelIncrement
0006a688 l     O .rodata	0000000b _ZL28pstrUsageSubChannelDecrement
0006a694 l     O .rodata	0000000c _ZL32pstrUsageAlternateAudioIncrement
0006a6a0 l     O .rodata	0000000c _ZL32pstrUsageAlternateAudioDecrement
0006a6ac l     O .rodata	00000010 _ZL33pstrUsageApplicationLaunchButtons
0006a6bc l     O .rodata	00000012 _ZL33pstrUsageALLaunchButtonConfigTool
0006a6d0 l     O .rodata	0000000b _ZL29pstrUsageALProgrammableButton
0006a6dc l     O .rodata	00000011 _ZL32pstrUsageALConsumerControlConfig
0006a6f0 l     O .rodata	0000000d _ZL24pstrUsageALWordProcessor
0006a700 l     O .rodata	0000000c _ZL21pstrUsageALTextEditor
0006a70c l     O .rodata	0000000d _ZL22pstrUsageALSpreadsheet
0006a71c l     O .rodata	0000000e _ZL25pstrUsageALGraphicsEditor
0006a72c l     O .rodata	0000000f _ZL26pstrUsageALPresentationApp
0006a73c l     O .rodata	0000000a _ZL22pstrUsageALDatabaseApp
0006a748 l     O .rodata	0000000e _ZL22pstrUsageALEmailReader
0006a758 l     O .rodata	0000000b _ZL21pstrUsageALNewsreader
0006a764 l     O .rodata	0000000d _ZL20pstrUsageALVoicemail
0006a774 l     O .rodata	0000000d _ZL30pstrUsageALContactsAddressBook
0006a784 l     O .rodata	00000010 _ZL27pstrUsageALCalendarSchedule
0006a794 l     O .rodata	00000010 _ZL29pstrUsageALTaskProjectManager
0006a7a4 l     O .rodata	00000012 _ZL29pstrUsageALLogJournalTimecard
0006a7b8 l     O .rodata	00000010 _ZL27pstrUsageALCheckbookFinance
0006eb5c l     O .rwdata	00000008 _ZL21pstrUsageALCalculator
0006a7c8 l     O .rodata	00000011 _ZL28pstrUsageALAVCapturePlayback
0006a7dc l     O .rodata	00000011 _ZL30pstrUsageALLocalMachineBrowser
0006a7f0 l     O .rodata	00000010 _ZL21pstrUsageALLANWANBrow
0006a800 l     O .rodata	0000000e _ZL26pstrUsageALInternetBrowser
0006a810 l     O .rodata	0000000f _ZL30pstrUsageALRemoteNetISPConnect
0006a820 l     O .rodata	0000000c _ZL28pstrUsageALNetworkConference
0006a82c l     O .rodata	0000000c _ZL22pstrUsageALNetworkChat
0006a838 l     O .rodata	0000000c _ZL26pstrUsageALTelephonyDialer
0006a844 l     O .rodata	00000009 _ZL16pstrUsageALLogon
0006a850 l     O .rodata	0000000a _ZL17pstrUsageALLogoff
0006a85c l     O .rodata	00000010 _ZL22pstrUsageALLogonLogoff
0006a86c l     O .rodata	00000015 _ZL25pstrUsageALTermLockScrSav
0006a884 l     O .rodata	0000000c _ZL24pstrUsageALControlPannel
0006a890 l     O .rodata	0000000b _ZL34pstrUsageALCommandLineProcessorRun
0006a89c l     O .rodata	0000000c _ZL29pstrUsageALProcessTaskManager
0006a8a8 l     O .rodata	0000000b _ZL32pstrUsageALSelectTaskApplication
0006a8b4 l     O .rodata	0000000c _ZL30pstrUsageALNextTaskApplication
0006a8c0 l     O .rodata	0000000c _ZL34pstrUsageALPreviousTaskApplication
0006a8cc l     O .rodata	00000012 _ZL32pstrUsageALPreemptiveHaltTaskApp
0006a8e0 l     O .rodata	0000000c _ZL31pstrUsageALIntegratedHelpCenter
0006eb64 l     O .rwdata	00000008 _ZL20pstrUsageALDocuments
0006a8ec l     O .rodata	00000009 _ZL20pstrUsageALThesaurus
0006eb6c l     O .rwdata	00000008 _ZL21pstrUsageALDictionary
0006a8f8 l     O .rodata	0000000b _ZL18pstrUsageALDesktop
0006a904 l     O .rodata	0000000d _ZL21pstrUsageALSpellCheck
0006a914 l     O .rodata	0000000c _ZL23pstrUsageALGrammarCheck
0006a920 l     O .rodata	00000010 _ZL25pstrUsageALWirelessStatus
0006a930 l     O .rodata	0000000e _ZL25pstrUsageALKeyboardLayout
0006a940 l     O .rodata	0000000f _ZL26pstrUsageALVirusProtection
0006a950 l     O .rodata	0000000b _ZL21pstrUsageALEncryption
0006a95c l     O .rodata	0000000b _ZL22pstrUsageALScreenSaver
0006a968 l     O .rodata	0000000a _ZL17pstrUsageALAlarms
0006a974 l     O .rodata	00000009 _ZL16pstrUsageALClock
0006a980 l     O .rodata	0000000d _ZL22pstrUsageALFileBrowser
0006a990 l     O .rodata	0000000b _ZL22pstrUsageALPowerStatus
0006a99c l     O .rodata	0000000c _ZL23pstrUsageALImageBrowser
0006a9a8 l     O .rodata	0000000c _ZL23pstrUsageALAudioBrowser
0006a9b4 l     O .rodata	0000000c _ZL23pstrUsageALMovieBrowser
0006a9c0 l     O .rodata	00000012 _ZL31pstrUsageALDigitalRightsManager
0006a9d4 l     O .rodata	0000000e _ZL24pstrUsageALDigitalWallet
0006a9e4 l     O .rodata	0000000c _ZL27pstrUsageALInstantMessaging
0006a9f0 l     O .rodata	00000011 _ZL29pstrUsageALOEMFeaturesBrowser
0006aa04 l     O .rodata	0000000b _ZL18pstrUsageALOEMHelp
0006aa10 l     O .rodata	0000000e _ZL26pstrUsageALOnlineCommunity
0006aa20 l     O .rodata	00000011 _ZL35pstrUsageALEntertainmentContentBrow
0006aa34 l     O .rodata	00000014 _ZL32pstrUsageALOnlineShoppingBrowser
0006aa48 l     O .rodata	00000011 _ZL28pstrUsageALSmartCardInfoHelp
0006aa5c l     O .rodata	0000000f _ZL34pstrUsageALMarketMonitorFinBrowser
0006aa6c l     O .rodata	00000017 _ZL32pstrUsageALCustomCorpNewsBrowser
0006aa84 l     O .rodata	00000013 _ZL32pstrUsageALOnlineActivityBrowser
0006aa98 l     O .rodata	0000000f _ZL32pstrUsageALResearchSearchBrowser
0006aaa8 l     O .rodata	0000000e _ZL22pstrUsageALAudioPlayer
0006aab8 l     O .rodata	00000011 _ZL30pstrUsageGenericGUIAppControls
0006eb74 l     O .rwdata	00000007 _ZL14pstrUsageACNew
0006eb7c l     O .rwdata	00000008 _ZL15pstrUsageACOpen
0006aacc l     O .rodata	00000009 _ZL16pstrUsageACClose
0006eb84 l     O .rwdata	00000008 _ZL15pstrUsageACExit
0006eb8c l     O .rwdata	00000007 _ZL19pstrUsageACMaximize
0006eb94 l     O .rwdata	00000007 _ZL19pstrUsageACMinimize
0006eb9c l     O .rwdata	00000008 _ZL15pstrUsageACSave
0006aad8 l     O .rodata	00000009 _ZL16pstrUsageACPrint
0006eba4 l     O .rwdata	00000008 _ZL21pstrUsageACProperties
0006ebac l     O .rwdata	00000008 _ZL15pstrUsageACUndo
0006ebb4 l     O .rwdata	00000008 _ZL15pstrUsageACCopy
0006ebbc l     O .rwdata	00000007 _ZL14pstrUsageACCut
0006aae4 l     O .rodata	00000009 _ZL16pstrUsageACPaste
0006aaf0 l     O .rodata	0000000b _ZL20pstrUsageACSelectAll
0006ebc4 l     O .rwdata	00000008 _ZL15pstrUsageACFind
0006aafc l     O .rodata	00000010 _ZL25pstrUsageACFindAndReplace
0006ab0c l     O .rodata	0000000a _ZL17pstrUsageACSearch
0006ebcc l     O .rwdata	00000008 _ZL15pstrUsageACGoto
0006ebd4 l     O .rwdata	00000008 _ZL15pstrUsageACHome
0006ebdc l     O .rwdata	00000008 _ZL15pstrUsageACBack
0006ebe4 l     O .rwdata	00000007 _ZL18pstrUsageACForward
0006ebec l     O .rwdata	00000008 _ZL15pstrUsageACStop
0006ab18 l     O .rodata	0000000b _ZL18pstrUsageACRefresh
0006ab24 l     O .rodata	0000000d _ZL23pstrUsageACPreviousLink
0006ab34 l     O .rodata	0000000d _ZL19pstrUsageACNextLink
0006ab44 l     O .rodata	0000000b _ZL20pstrUsageACBookmarks
0006ebf4 l     O .rwdata	00000008 _ZL18pstrUsageACHistory
0006ab50 l     O .rodata	0000000a _ZL24pstrUsageACSubscriptions
0006ab5c l     O .rodata	0000000b _ZL17pstrUsageACZoomIn
0006ab68 l     O .rodata	0000000c _ZL18pstrUsageACZoomOut
0006ebfc l     O .rwdata	00000008 _ZL15pstrUsageACZoom
0006ab74 l     O .rodata	0000000c _ZL25pstrUsageACFullScreenView
0006ab80 l     O .rodata	0000000d _ZL21pstrUsageACNormalView
0006ab90 l     O .rodata	0000000c _ZL21pstrUsageACViewToggle
0006ab9c l     O .rodata	0000000d _ZL19pstrUsageACScrollUp
0006abac l     O .rodata	0000000f _ZL21pstrUsageACScrollDown
0006abbc l     O .rodata	0000000a _ZL17pstrUsageACScroll
0006abc8 l     O .rodata	0000000c _ZL18pstrUsageACPanLeft
0006abd4 l     O .rodata	0000000d _ZL19pstrUsageACPanRight
0006ec04 l     O .rwdata	00000007 _ZL14pstrUsageACPan
0006abe4 l     O .rodata	0000000b _ZL20pstrUsageACNewWindow
0006abf0 l     O .rodata	0000000e _ZL20pstrUsageACTileHoriz
0006ac00 l     O .rodata	0000000d _ZL19pstrUsageACTileVert
0006ec0c l     O .rwdata	00000008 _ZL17pstrUsageACFormat
0006ec14 l     O .rwdata	00000008 _ZL15pstrUsageACEdit
0006ec1c l     O .rwdata	00000008 _ZL15pstrUsageACBold
0006ec24 l     O .rwdata	00000008 _ZL18pstrUsageACItalics
0006ac10 l     O .rodata	00000009 _ZL20pstrUsageACUnderline
0006ac1c l     O .rodata	0000000a _ZL24pstrUsageACStrikethrough
0006ec2c l     O .rwdata	00000007 _ZL20pstrUsageACSubscript
0006ac28 l     O .rodata	00000009 _ZL22pstrUsageACSuperscript
0006ac34 l     O .rodata	0000000c _ZL18pstrUsageACAllCaps
0006ac40 l     O .rodata	0000000a _ZL17pstrUsageACRotate
0006ac4c l     O .rodata	0000000a _ZL17pstrUsageACResize
0006ac58 l     O .rodata	00000009 _ZL25pstrUsageACFlipHorizontal
0006ac64 l     O .rodata	00000009 _ZL23pstrUsageACFlipVertical
0006ac70 l     O .rodata	00000009 _ZL27pstrUsageACMirrorHorizontal
0006ac7c l     O .rodata	00000009 _ZL25pstrUsageACMirrorVertical
0006ac88 l     O .rodata	0000000b _ZL21pstrUsageACFontSelect
0006ac94 l     O .rodata	0000000b _ZL20pstrUsageACFontColor
0006aca0 l     O .rodata	0000000c _ZL19pstrUsageACFontSize
0006acac l     O .rodata	0000000d _ZL22pstrUsageACJustifyLeft
0006acbc l     O .rodata	0000000f _ZL25pstrUsageACJustifyCenterH
0006accc l     O .rodata	0000000e _ZL23pstrUsageACJustifyRight
0006acdc l     O .rodata	00000010 _ZL24pstrUsageACJustifyBlockH
0006acec l     O .rodata	0000000c _ZL21pstrUsageACJustifyTop
0006acf8 l     O .rodata	0000000f _ZL25pstrUsageACJustifyCenterV
0006ad08 l     O .rodata	0000000c _ZL24pstrUsageACJustifyBottom
0006ad14 l     O .rodata	00000010 _ZL24pstrUsageACJustifyBlockV
0006ad24 l     O .rodata	0000000e _ZL25pstrUsageACIndentDecrease
0006ad34 l     O .rodata	0000000e _ZL25pstrUsageACIndentIncrease
0006ad44 l     O .rodata	0000000c _ZL23pstrUsageACNumberedList
0006ad50 l     O .rodata	0000000b _ZL27pstrUsageACRestartNumbering
0006ad5c l     O .rodata	0000000c _ZL23pstrUsageACBulletedList
0006ad68 l     O .rodata	0000000b _ZL18pstrUsageACPromote
0006ad74 l     O .rodata	0000000a _ZL17pstrUsageACDemote
0006ec34 l     O .rwdata	00000007 _ZL14pstrUsageACYes
0006ec3c l     O .rwdata	00000006 _ZL13pstrUsageACNo
0006ad80 l     O .rodata	0000000a _ZL17pstrUsageACCancel
0006ec44 l     O .rwdata	00000008 _ZL18pstrUsageACCatalog
0006ec4c l     O .rwdata	00000007 _ZL20pstrUsageACBuyChkout
0006ad8c l     O .rodata	0000000c _ZL20pstrUsageACAddToCart
0006ec54 l     O .rwdata	00000008 _ZL17pstrUsageACExpand
0006ad98 l     O .rodata	0000000d _ZL20pstrUsageACExpandAll
0006ada8 l     O .rodata	0000000c _ZL19pstrUsageACCollapse
0006adb4 l     O .rodata	00000010 _ZL22pstrUsageACCollapseAll
0006adc4 l     O .rodata	0000000d _ZL23pstrUsageACPrintPreview
0006add4 l     O .rodata	0000000e _ZL23pstrUsageACPasteSpecial
0006ade4 l     O .rodata	0000000c _ZL21pstrUsageACInsertMode
0006ec5c l     O .rwdata	00000007 _ZL17pstrUsageACDelete
0006ec64 l     O .rwdata	00000008 _ZL15pstrUsageACLock
0006adf0 l     O .rodata	0000000a _ZL17pstrUsageACUnlock
0006ec6c l     O .rwdata	00000008 _ZL18pstrUsageACProtect
0006adfc l     O .rodata	0000000a _ZL20pstrUsageACUnprotect
0006ae08 l     O .rodata	0000000f _ZL24pstrUsageACAttachComment
0006ae18 l     O .rodata	0000000c _ZL24pstrUsageACDeleteComment
0006ae24 l     O .rodata	0000000d _ZL22pstrUsageACViewComment
0006ae34 l     O .rodata	0000000c _ZL21pstrUsageACSelectWord
0006ae40 l     O .rodata	0000000c _ZL25pstrUsageACSelectSentence
0006ae4c l     O .rodata	0000000c _ZL26pstrUsageACSelectParagraph
0006ae58 l     O .rodata	0000000b _ZL23pstrUsageACSelectColumn
0006ae64 l     O .rodata	0000000b _ZL20pstrUsageACSelectRow
0006ae70 l     O .rodata	0000000b _ZL22pstrUsageACSelectTable
0006ae7c l     O .rodata	0000000b _ZL23pstrUsageACSelectObject
0006ec74 l     O .rwdata	00000008 _ZL21pstrUsageACRedoRepeat
0006ec7c l     O .rwdata	00000008 _ZL15pstrUsageACSort
0006ae88 l     O .rodata	0000000c _ZL24pstrUsageACSortAscending
0006ae94 l     O .rodata	0000000d _ZL25pstrUsageACSortDescending
0006ec84 l     O .rwdata	00000008 _ZL17pstrUsageACFilter
0006aea4 l     O .rodata	0000000b _ZL19pstrUsageACSetClock
0006aeb0 l     O .rodata	0000000c _ZL20pstrUsageACViewClock
0006aebc l     O .rodata	0000000e _ZL25pstrUsageACSelectTimeZone
0006aecc l     O .rodata	0000000e _ZL23pstrUsageACEditTimeZone
0006aedc l     O .rodata	0000000b _ZL19pstrUsageACSetAlarm
0006aee8 l     O .rodata	0000000b _ZL21pstrUsageACClearAlarm
0006aef4 l     O .rodata	0000000b _ZL22pstrUsageACSnoozeAlarm
0006af00 l     O .rodata	0000000b _ZL21pstrUsageACResetAlarm
0006ec8c l     O .rwdata	00000008 _ZL21pstrUsageACSyncronize
0006af0c l     O .rodata	0000000b _ZL22pstrUsageACSendReceive
0006af18 l     O .rodata	0000000a _ZL17pstrUsageACSendTo
0006af24 l     O .rodata	00000009 _ZL16pstrUsageACReply
0006af30 l     O .rodata	0000000d _ZL19pstrUsageACReplyAll
0006af40 l     O .rodata	0000000b _ZL25pstrUsageACForwardMessage
0006ec94 l     O .rwdata	00000007 _ZL15pstrUsageACSend
0006af4c l     O .rodata	0000000c _ZL21pstrUsageACAttachFile
0006ec9c l     O .rwdata	00000008 _ZL17pstrUsageACUpload
0006eca4 l     O .rwdata	00000008 _ZL19pstrUsageACDownload
0006af58 l     O .rodata	0000000b _ZL21pstrUsageACSetBorders
0006af64 l     O .rodata	0000000b _ZL20pstrUsageACInsertRow
0006af70 l     O .rodata	0000000b _ZL23pstrUsageACInsertColumn
0006af7c l     O .rodata	0000000c _ZL21pstrUsageACInsertFile
0006af88 l     O .rodata	0000000b _ZL24pstrUsageACInsertPicture
0006af94 l     O .rodata	0000000b _ZL23pstrUsageACInsertObject
0006afa0 l     O .rodata	0000000b _ZL23pstrUsageACInsertSymbol
0006afac l     O .rodata	0000000b _ZL23pstrUsageACSaveAndClose
0006afb8 l     O .rodata	0000000a _ZL17pstrUsageACRename
0006afc4 l     O .rodata	00000009 _ZL16pstrUsageACMerge
0006afd0 l     O .rodata	00000009 _ZL16pstrUsageACSplit
0006afdc l     O .rodata	0000000c _ZL32pstrUsageACDistributeHorizontaly
0006afe8 l     O .rodata	0000000c _ZL30pstrUsageACDistributeVerticaly
0006aff4 l     O .rodata	0000000a _ZL18pstrUsageDigitizer
0006ecac l     O .rwdata	00000004 _ZL12pstrUsagePen
0006b000 l     O .rodata	0000000a _ZL17pstrUsageLightPen
0006b00c l     O .rodata	0000000a _ZL20pstrUsageTouchScreen
0006b018 l     O .rodata	0000000a _ZL17pstrUsageTouchPad
0006b024 l     O .rodata	0000000a _ZL19pstrUsageWhiteBoard
0006b030 l     O .rodata	00000010 _ZL35pstrUsageCoordinateMeasuringMachine
0006ecb0 l     O .rwdata	00000008 _ZL20pstrUsage3DDigitizer
0006b040 l     O .rodata	0000000c _ZL22pstrUsageStereoPlotter
0006ecb8 l     O .rwdata	00000008 _ZL23pstrUsageArticulatedArm
0006b04c l     O .rodata	00000009 _ZL17pstrUsageArmature
0006b058 l     O .rodata	00000011 _ZL31pstrUsageMultiplePointDigitizer
0006b06c l     O .rodata	00000010 _ZL22pstrUsageFreeSpaceWand
0006ecc0 l     O .rwdata	00000007 _ZL15pstrUsageStylus
0006ecc8 l     O .rwdata	00000005 _ZL13pstrUsagePuck
0006ecd0 l     O .rwdata	00000007 _ZL15pstrUsageFinger
0006b07c l     O .rodata	0000000a _ZL20pstrUsageTipPressure
0006b088 l     O .rodata	0000000a _ZL23pstrUsageBarrelPressure
0006b094 l     O .rodata	00000009 _ZL16pstrUsageInRange
0006ecd8 l     O .rwdata	00000006 _ZL14pstrUsageTouch
0006ece0 l     O .rwdata	00000008 _ZL16pstrUsageUntouch
0006ece8 l     O .rwdata	00000004 _ZL12pstrUsageTap
0006ecec l     O .rwdata	00000005 _ZL16pstrUsageQuality
0006b0a0 l     O .rodata	0000000b _ZL18pstrUsageDataValid
0006b0ac l     O .rodata	0000000f _ZL24pstrUsageTransducerIndex
0006b0bc l     O .rodata	0000000f _ZL27pstrUsageTabletFunctionKeys
0006b0cc l     O .rodata	0000000e _ZL26pstrUsageProgramChangeKeys
0006ecf4 l     O .rwdata	00000007 _ZL15pstrUsageInvert
0006ecfc l     O .rwdata	00000007 _ZL14pstrUsageXTilt
0006ed04 l     O .rwdata	00000007 _ZL14pstrUsageYTilt
0006ed0c l     O .rwdata	00000008 _ZL16pstrUsageAzimuth
0006b0dc l     O .rodata	00000009 _ZL17pstrUsageAltitude
0006ed14 l     O .rwdata	00000006 _ZL14pstrUsageTwist
0006ed1c l     O .rwdata	00000007 _ZL18pstrUsageTipSwitch
0006b0e8 l     O .rodata	0000000c _ZL27pstrUsageSecondaryTipSwitch
0006ed24 l     O .rwdata	00000007 _ZL21pstrUsageBarrelSwitch
0006ed2c l     O .rwdata	00000007 _ZL15pstrUsageEraser
0006b0f4 l     O .rodata	00000009 _ZL19pstrUsageTabletPick
0006b100 l     O .rodata	0000000e _ZL28pstrUsageAlphanumericDisplay
0006b110 l     O .rodata	00000009 _ZL25pstrUsageBitmappedDisplay
0006b11c l     O .rodata	0000000e _ZL32pstrUsageDisplayAttributesReport
0006b12c l     O .rodata	0000000c _ZL26pstrUsageASCIICharacterSet
0006b138 l     O .rodata	0000000d _ZL21pstrUsageDataReadBack
0006b148 l     O .rodata	0000000c _ZL21pstrUsageFontReadBack
0006b154 l     O .rodata	0000000e _ZL29pstrUsageDisplayControlReport
0006b164 l     O .rodata	00000009 _ZL21pstrUsageClearDisplay
0006b170 l     O .rodata	0000000e _ZL25pstrUsageScreenSaverDelay
0006b180 l     O .rodata	0000000d _ZL26pstrUsageScreenSaverEnable
0006b190 l     O .rodata	00000009 _ZL23pstrUsageVerticalScroll
0006b19c l     O .rodata	00000009 _ZL25pstrUsageHorizontalScroll
0006b1a8 l     O .rodata	00000009 _ZL24pstrUsageCharacterReport
0006b1b4 l     O .rodata	0000000a _ZL20pstrUsageDisplayData
0006b1c0 l     O .rodata	0000000a _ZL22pstrUsageDisplayStatus
0006b1cc l     O .rodata	0000000c _ZL23pstrUsageStatusNotReady
0006b1d8 l     O .rodata	0000000b _ZL20pstrUsageStatusReady
0006b1e4 l     O .rodata	00000010 _ZL35pstrUsageErrorNotALoadableCharacter
0006b1f4 l     O .rodata	00000010 _ZL33pstrUsageErrorFotDataCanNotBeRead
0006b204 l     O .rodata	0000000c _ZL29pstrUsageCursorPositionReport
0006ed34 l     O .rwdata	00000004 _ZL12pstrUsageRow
0006ed38 l     O .rwdata	00000004 _ZL15pstrUsageColumn
0006ed3c l     O .rwdata	00000005 _ZL13pstrUsageRows
0006ed44 l     O .rwdata	00000005 _ZL16pstrUsageColumns
0006b210 l     O .rodata	0000000c _ZL28pstrUsageCursorPixelPosition
0006b21c l     O .rodata	00000009 _ZL19pstrUsageCursorMode
0006b228 l     O .rodata	00000009 _ZL21pstrUsageCursorEnable
0006b234 l     O .rodata	00000009 _ZL20pstrUsageCursorBlink
0006ed4c l     O .rwdata	00000008 _ZL19pstrUsageFontReport
0006b240 l     O .rodata	00000009 _ZL17pstrUsageFontData
0006b24c l     O .rodata	0000000a _ZL23pstrUsageCharacterWidth
0006b258 l     O .rodata	0000000a _ZL24pstrUsageCharacterHeight
0006b264 l     O .rodata	0000000d _ZL35pstrUsageCharacterSpacingHorizontal
0006b274 l     O .rodata	0000000d _ZL33pstrUsageCharacterSpacingVertical
0006b284 l     O .rodata	0000000d _ZL23pstrUsageUnicodeCharset
0006b294 l     O .rodata	0000000a _ZL21pstrUsageFont7Segment
0006b2a0 l     O .rodata	0000000a _ZL26pstrUsage7SegmentDirectMap
0006b2ac l     O .rodata	0000000b _ZL22pstrUsageFont14Segment
0006b2b8 l     O .rodata	0000000b _ZL27pstrUsage14SegmentDirectMap
0006b2c4 l     O .rodata	0000000c _ZL26pstrUsageDisplayBrightness
0006b2d0 l     O .rodata	0000000c _ZL24pstrUsageDisplayContrast
0006b2dc l     O .rodata	0000000a _ZL27pstrUsageCharacterAttribute
0006b2e8 l     O .rodata	0000000c _ZL26pstrUsageAttributeReadback
0006b2f4 l     O .rodata	0000000a _ZL22pstrUsageAttributeData
0006b300 l     O .rodata	0000000e _ZL29pstrUsageCharAttributeEnhance
0006b310 l     O .rodata	0000000f _ZL31pstrUsageCharAttributeUnderline
0006b320 l     O .rodata	0000000f _ZL27pstrUsageCharAttributeBlink
0006b330 l     O .rodata	0000000b _ZL20pstrUsageBitmapSizeX
0006b33c l     O .rodata	0000000b _ZL20pstrUsageBitmapSizeY
0006b348 l     O .rodata	0000000d _ZL23pstrUsageBitDepthFormat
0006b358 l     O .rodata	0000000a _ZL27pstrUsageDisplayOrientation
0006ed54 l     O .rwdata	00000008 _ZL22pstrUsagePaletteReport
0006b364 l     O .rodata	0000000e _ZL24pstrUsagePaletteDataSize
0006b374 l     O .rodata	0000000d _ZL26pstrUsagePaletteDataOffset
0006b384 l     O .rodata	00000009 _ZL20pstrUsagePaletteData
0006b390 l     O .rodata	00000009 _ZL19pstrUsageBlitReport
0006b39c l     O .rodata	0000000d _ZL24pstrUsageBlitRectangleX1
0006b3ac l     O .rodata	0000000d _ZL24pstrUsageBlitRectangleY1
0006b3bc l     O .rodata	0000000d _ZL24pstrUsageBlitRectangleX2
0006b3cc l     O .rodata	0000000d _ZL24pstrUsageBlitRectangleY2
0006b3dc l     O .rodata	0000000a _ZL17pstrUsageBlitData
0006b3e8 l     O .rodata	00000009 _ZL19pstrUsageSoftButton
0006b3f4 l     O .rodata	0000000c _ZL21pstrUsageSoftButtonID
0006b400 l     O .rodata	0000000e _ZL23pstrUsageSoftButtonSide
0006b410 l     O .rodata	0000000e _ZL26pstrUsageSoftButtonOffset1
0006b420 l     O .rodata	0000000e _ZL26pstrUsageSoftButtonOffset2
0006b430 l     O .rodata	0000000d _ZL25pstrUsageSoftButtonReport
0006b440 l     O .rodata	0000000d _ZL26pstrUsageMedicalUltrasound
0006ed5c l     O .rwdata	00000008 _ZL23pstrUsageVCRAcquisition
0006ed64 l     O .rwdata	00000007 _ZL19pstrUsageFreezeThaw
0006b450 l     O .rodata	0000000b _ZL18pstrUsageClipStore
0006ed6c l     O .rwdata	00000007 _ZL15pstrUsageUpdate
0006ed74 l     O .rwdata	00000005 _ZL13pstrUsageNext
0006ed7c l     O .rwdata	00000005 _ZL13pstrUsageSave
0006ed84 l     O .rwdata	00000006 _ZL14pstrUsagePrint
0006b45c l     O .rodata	00000009 _ZL25pstrUsageMicrophoneEnable
0006ed8c l     O .rwdata	00000005 _ZL13pstrUsageCine
0006b468 l     O .rodata	0000000a _ZL22pstrUsageTransmitPower
0006ed94 l     O .rwdata	00000006 _ZL14pstrUsageFocus
0006ed9c l     O .rwdata	00000006 _ZL14pstrUsageDepth
0006b474 l     O .rodata	0000000d _ZL24pstrUsageSoftStepPrimary
0006b484 l     O .rodata	0000000d _ZL26pstrUsageSoftStepSecondary
0006b494 l     O .rodata	0000000f _ZL30pstrUsageDepthGainCompensation
0006b4a4 l     O .rodata	00000009 _ZL19pstrUsageZoomSelect
0006b4b0 l     O .rodata	00000009 _ZL19pstrUsageZoomAdjust
0006b4bc l     O .rodata	00000012 _ZL34pstrUsageSpectralDopplerModeSelect
0006b4d0 l     O .rodata	00000012 _ZL34pstrUsageSpectralDopplerModeAdjust
0006b4e4 l     O .rodata	00000013 _ZL31pstrUsageColorDopplerModeSelect
0006b4f8 l     O .rodata	00000013 _ZL31pstrUsageColorDopplerModeAdjust
0006b50c l     O .rodata	00000010 _ZL25pstrUsageMotionModeSelect
0006b51c l     O .rodata	00000010 _ZL25pstrUsageMotionModeAdjust
0006b52c l     O .rodata	0000000c _ZL21pstrUsage2DModeSelect
0006b538 l     O .rodata	0000000c _ZL21pstrUsage2DModeAdjust
0006b544 l     O .rodata	0000000e _ZL26pstrUsageSoftControlSelect
0006b554 l     O .rodata	0000000e _ZL26pstrUsageSoftControlAdjust
0006b562 l     O .rodata	00000010 _ZN13_ns_USBH_MIDIL7cin2lenE
0006b572 l     O .rodata	00000010 _ZN13_ns_USBH_MIDIL7sys2cinE
0006eda4 l     O .rwdata	00000004 _ZL5synth
0004af70 l     F .text	00000068 _Z41__static_initialization_and_destruction_0ii
0004afd8 l     F .text	00000030 _GLOBAL__sub_I_Usb
00000000 l    df *ABS*	00000000 si_class_type_info.cc
00000000 l    df *ABS*	00000000 vmi_class_type_info.cc
00000000 l    df *ABS*	00000000 tinfo.cc
00000000 l    df *ABS*	00000000 del_op.cc
00000000 l    df *ABS*	00000000 pure.cc
00000000 l    df *ABS*	00000000 class_type_info.cc
00000000 l    df *ABS*	00000000 eh_terminate.cc
00000000 l    df *ABS*	00000000 eh_unex_handler.cc
00000000 l    df *ABS*	00000000 eh_term_handler.cc
00000000 l    df *ABS*	00000000 eh_personality.cc
0004c20c l     F .text	000000a4 _ZL21size_of_encoded_valueh
0004c2b0 l     F .text	0000020c _ZL28read_encoded_value_with_basehjPKhPj
0004c4bc l     F .text	00000054 _ZL15get_ttype_entryP16lsda_header_infom
0004c510 l     F .text	0000008c _ZL21base_of_encoded_valuehP15_Unwind_Context
0004c59c l     F .text	00000134 _ZL17parse_lsda_headerP15_Unwind_ContextPKhP16lsda_header_info
0004c6d0 l     F .text	00000088 _ZL16get_adjusted_ptrPKSt9type_infoS1_PPv.constprop.3
0004c758 l     F .text	0000022c _ZL28check_compact_exception_specPKSt9type_infoPvPKhij
0004c984 l     F .text	000000a8 _ZL20check_exception_specP16lsda_header_infoPKSt9type_infoPvl
00000000 l    df *ABS*	00000000 eh_throw.cc
0004d25c l     F .text	00000044 _ZL23__gxx_exception_cleanup19_Unwind_Reason_CodeP17_Unwind_Exception
00000000 l    df *ABS*	00000000 eh_catch.cc
00000000 l    df *ABS*	00000000 eh_alloc.cc
0004d544 l     F .text	000000b8 _ZN12_GLOBAL__N_14pool4freeEPv.constprop.4
0007219c l     O .bss	00000010 _ZN12_GLOBAL__N_114emergency_poolE
0004d5fc l     F .text	000000a8 _ZN12_GLOBAL__N_14pool8allocateEj.constprop.5
0004d7ac l     F .text	0000005c _GLOBAL__sub_I___cxa_allocate_exception
00000000 l    df *ABS*	00000000 eh_call.cc
00000000 l    df *ABS*	00000000 eh_globals.cc
00072038 l     O .bss	00000008 _ZL10eh_globals
00000000 l    df *ABS*	00000000 eh_exception.cc
00000000 l    df *ABS*	00000000 libgcc2.c
00000000 l    df *ABS*	00000000 lib2-divmod.c
00000000 l    df *ABS*	00000000 lib2-mul.c
00000000 l    df *ABS*	00000000 addsf3.c
00000000 l    df *ABS*	00000000 divsf3.c
00000000 l    df *ABS*	00000000 gesf2.c
00000000 l    df *ABS*	00000000 mulsf3.c
00000000 l    df *ABS*	00000000 subsf3.c
00000000 l    df *ABS*	00000000 fixsfsi.c
00000000 l    df *ABS*	00000000 floatsisf.c
00000000 l    df *ABS*	00000000 floatunsisf.c
00000000 l    df *ABS*	00000000 unwind-sjlj.c
0004f048 l     F .text	00000118 _Unwind_ForcedUnwind_Phase2
00072040 l     O .bss	00000004 fc_static
0004f160 l     F .text	000000c0 _Unwind_RaiseException_Phase2
0004f220 l     F .text	00000030 uw_install_context.isra.1
00000000 l    df *ABS*	00000000 libgcc2.c
00000000 l    df *ABS*	00000000 libgcc2.c
00000000 l    df *ABS*	00000000 abort.c
00000000 l    df *ABS*	00000000 clock.c
00000000 l    df *ABS*	00000000 impure.c
0006bc34 l     O .rwdata	00000424 impure_data
00000000 l    df *ABS*	00000000 malloc.c
00000000 l    df *ABS*	00000000 mallocr.c
00000000 l    df *ABS*	00000000 memcpy.c
00000000 l    df *ABS*	00000000 memset.c
00000000 l    df *ABS*	00000000 printf.c
00000000 l    df *ABS*	00000000 putchar.c
00000000 l    df *ABS*	00000000 puts.c
00000000 l    df *ABS*	00000000 sbrkr.c
00000000 l    df *ABS*	00000000 signal.c
00000000 l    df *ABS*	00000000 signalr.c
00000000 l    df *ABS*	00000000 sprintf.c
00000000 l    df *ABS*	00000000 strcmp.c
00000000 l    df *ABS*	00000000 strlen.c
00000000 l    df *ABS*	00000000 vfprintf.c
0006ba12 l     O .rodata	00000010 zeroes.4389
0006ba22 l     O .rodata	00000010 blanks.4388
00000000 l    df *ABS*	00000000 timesr.c
00000000 l    df *ABS*	00000000 vfprintf.c
0006ba32 l     O .rodata	00000010 zeroes.4404
00054d80 l     F .text	000000bc __sbprintf
0006ba42 l     O .rodata	00000010 blanks.4403
00000000 l    df *ABS*	00000000 wsetup.c
00000000 l    df *ABS*	00000000 dtoa.c
00054f90 l     F .text	00000228 quorem
00000000 l    df *ABS*	00000000 fflush.c
00000000 l    df *ABS*	00000000 findfp.c
00056ae8 l     F .text	00000008 __fp_unlock
00056afc l     F .text	0000019c __sinit.part.1
00056c98 l     F .text	00000008 __fp_lock
00000000 l    df *ABS*	00000000 mallocr.c
00000000 l    df *ABS*	00000000 fvwrite.c
00000000 l    df *ABS*	00000000 fwalk.c
00000000 l    df *ABS*	00000000 int_errno.c
00000000 l    df *ABS*	00000000 locale.c
0006c480 l     O .rwdata	00000020 lc_ctype_charset
0006c460 l     O .rwdata	00000020 lc_message_charset
0006c4a0 l     O .rwdata	00000038 lconv
00000000 l    df *ABS*	00000000 makebuf.c
00000000 l    df *ABS*	00000000 memchr.c
00000000 l    df *ABS*	00000000 memmove.c
00000000 l    df *ABS*	00000000 mprec.c
0006ba70 l     O .rodata	0000000c p05.2768
00000000 l    df *ABS*	00000000 putc.c
00000000 l    df *ABS*	00000000 mallocr.c
00000000 l    df *ABS*	00000000 s_fpclassify.c
00000000 l    df *ABS*	00000000 stdio.c
00000000 l    df *ABS*	00000000 vfprintf.c
0006bb94 l     O .rodata	00000010 zeroes.4333
0006bba4 l     O .rodata	00000010 blanks.4332
00000000 l    df *ABS*	00000000 vfprintf.c
0005ac98 l     F .text	000000fc __sprint_r.part.0
0006bbb4 l     O .rodata	00000010 zeroes.4349
0005c2d4 l     F .text	000000bc __sbprintf
0006bbc4 l     O .rodata	00000010 blanks.4348
00000000 l    df *ABS*	00000000 wbuf.c
00000000 l    df *ABS*	00000000 writer.c
00000000 l    df *ABS*	00000000 closer.c
00000000 l    df *ABS*	00000000 mallocr.c
00000000 l    df *ABS*	00000000 fclose.c
00000000 l    df *ABS*	00000000 fputwc.c
00000000 l    df *ABS*	00000000 fstatr.c
00000000 l    df *ABS*	00000000 isattyr.c
00000000 l    df *ABS*	00000000 lseekr.c
00000000 l    df *ABS*	00000000 readr.c
00000000 l    df *ABS*	00000000 wcrtomb.c
00000000 l    df *ABS*	00000000 wctomb_r.c
00000000 l    df *ABS*	00000000 libgcc2.c
00000000 l    df *ABS*	00000000 libgcc2.c
00000000 l    df *ABS*	00000000 adddf3.c
00000000 l    df *ABS*	00000000 divdf3.c
00000000 l    df *ABS*	00000000 eqdf2.c
00000000 l    df *ABS*	00000000 gedf2.c
00000000 l    df *ABS*	00000000 ledf2.c
00000000 l    df *ABS*	00000000 muldf3.c
00000000 l    df *ABS*	00000000 subdf3.c
00000000 l    df *ABS*	00000000 fixdfsi.c
00000000 l    df *ABS*	00000000 floatsidf.c
00000000 l    df *ABS*	00000000 floatunsidf.c
00000000 l    df *ABS*	00000000 alt_close.c
000600dc l     F .text	0000003c alt_get_errno
00000000 l    df *ABS*	00000000 alt_dev.c
000601f0 l     F .text	0000002c alt_dev_null_write
00000000 l    df *ABS*	00000000 alt_errno.c
00000000 l    df *ABS*	00000000 alt_exit.c
00000000 l    df *ABS*	00000000 alt_fstat.c
00060250 l     F .text	0000003c alt_get_errno
00000000 l    df *ABS*	00000000 alt_getpid.c
00000000 l    df *ABS*	00000000 alt_isatty.c
00060364 l     F .text	0000003c alt_get_errno
00000000 l    df *ABS*	00000000 alt_kill.c
0006044c l     F .text	0000003c alt_get_errno
00000000 l    df *ABS*	00000000 alt_load.c
000605b8 l     F .text	00000068 alt_load_section
00000000 l    df *ABS*	00000000 alt_lseek.c
000606a4 l     F .text	0000003c alt_get_errno
00000000 l    df *ABS*	00000000 alt_main.c
00000000 l    df *ABS*	00000000 alt_malloc_lock.c
00000000 l    df *ABS*	00000000 alt_read.c
00060880 l     F .text	0000003c alt_get_errno
00000000 l    df *ABS*	00000000 alt_release_fd.c
00000000 l    df *ABS*	00000000 alt_sbrk.c
0006ee10 l     O .rwdata	00000004 heap_end
00000000 l    df *ABS*	00000000 alt_times.c
00060af4 l     F .text	0000003c alt_get_errno
00000000 l    df *ABS*	00000000 alt_usleep.c
00000000 l    df *ABS*	00000000 alt_write.c
00060bd8 l     F .text	0000003c alt_get_errno
00000000 l    df *ABS*	00000000 alt_sys_init.c
00060d14 l     F .text	00000034 alt_dev_reg
0006c680 l     O .rwdata	00000038 i2c_0
0006c6b8 l     O .rwdata	00001060 jtag_uart_0
00000000 l    df *ABS*	00000000 altera_avalon_i2c.c
00060df0 l     F .text	00000110 optional_irq_callback
00060f50 l     F .text	0000009c alt_avalon_i2c_irq
00000000 l    df *ABS*	00000000 altera_avalon_jtag_uart_fd.c
00000000 l    df *ABS*	00000000 altera_avalon_jtag_uart_init.c
00062c2c l     F .text	0000020c altera_avalon_jtag_uart_irq
00062e38 l     F .text	000000a0 altera_avalon_jtag_uart_timeout
00000000 l    df *ABS*	00000000 altera_avalon_jtag_uart_ioctl.c
00000000 l    df *ABS*	00000000 altera_avalon_jtag_uart_read.c
00000000 l    df *ABS*	00000000 altera_avalon_jtag_uart_write.c
00000000 l    df *ABS*	00000000 altera_avalon_spi.c
00000000 l    df *ABS*	00000000 altera_avalon_timer_sc.c
0006366c l     F .text	00000078 alt_avalon_timer_sc_irq
00000000 l    df *ABS*	00000000 alt_alarm_start.c
00000000 l    df *ABS*	00000000 alt_busy_sleep.c
00000000 l    df *ABS*	00000000 alt_dcache_flush_all.c
00000000 l    df *ABS*	00000000 alt_dev_llist_insert.c
00063a04 l     F .text	0000003c alt_get_errno
00000000 l    df *ABS*	00000000 alt_do_ctors.c
00000000 l    df *ABS*	00000000 alt_do_dtors.c
00000000 l    df *ABS*	00000000 alt_find_dev.c
00000000 l    df *ABS*	00000000 alt_icache_flush_all.c
00000000 l    df *ABS*	00000000 alt_iic.c
00000000 l    df *ABS*	00000000 alt_iic_isr_register.c
00000000 l    df *ABS*	00000000 alt_io_redirect.c
00063ef4 l     F .text	000000e4 alt_open_fd
00000000 l    df *ABS*	00000000 alt_irq_vars.c
00000000 l    df *ABS*	00000000 alt_open.c
00064054 l     F .text	0000003c alt_get_errno
00064090 l     F .text	000000ec alt_file_locked
00000000 l    df *ABS*	00000000 alt_printf.c
00000000 l    df *ABS*	00000000 alt_putchar.c
00000000 l    df *ABS*	00000000 alt_tick.c
00000000 l    df *ABS*	00000000 altera_nios2_gen2_irq.c
00000000 l    df *ABS*	00000000 alt_find_file.c
00000000 l    df *ABS*	00000000 alt_get_fd.c
00000000 l    df *ABS*	00000000 atexit.c
00000000 l    df *ABS*	00000000 exit.c
00000000 l    df *ABS*	00000000 memcmp.c
00000000 l    df *ABS*	00000000 __atexit.c
00000000 l    df *ABS*	00000000 __call_atexit.c
00072078 g     O .bss	00000004 alt_instruction_exception_handler
0004d704 g     F .text	00000028 __cxa_free_exception
00064e80  w    O .rodata	0000000c _ZTV16ConfigDescParserILh0ELh0ELh0ELh0EE
00050148 g     F .text	00000018 putchar
0004bd60 g     F .text	00000008 _ZNKSt9type_info15__is_function_pEv
00058d34 g     F .text	00000074 _mprec_log10
00044840  w    F .text	0000003c _ZN20MultiByteValueParserC2Ev
0004c1ac g     F .text	00000018 _ZSt10unexpectedv
00058e20 g     F .text	0000008c __any_on
0005c9e0 g     F .text	00000054 _isatty_r
0006ba7c g     O .rodata	00000028 __mprec_tinytens
000607bc g     F .text	0000007c alt_main
00046f4c g     F .text	000001ac _Z11I2Cbytes_rdP20ALT_AVALON_I2C_DEV_shhPt
00050160 g     F .text	000000c0 _puts_r
00040704 g     F .text	00000058 _ZN3USBC1Ev
000473c8 g     F .text	00000070 _Z18SGTL5000vol_changeP20ALT_AVALON_I2C_DEV_sh
000721d4 g     O .bss	00000100 alt_irq
0004d8a0 g     F .text	00000004 _ZN10__cxxabiv115__forced_unwindD1Ev
000498b4 g     F .text	000000f0 _ZN6USBHID18PrintHidDescriptorEPK18USB_HID_DESCRIPTOR
0005ca34 g     F .text	00000060 _lseek_r
0004f2dc g     F .text	00000020 .hidden _Unwind_GetIPInfo
0006ee28 g       *ABS*	00000000 __flash_rwdata_start
00046790 g     F .text	00000108 _ZN20MultiByteValueParser5ParseEPPhPt
0005eb18 g     F .text	00000088 .hidden __eqdf2
00044840  w    F .text	0000003c _ZN20MultiByteValueParserC1Ev
000428cc g     F .text	00000094 _ZN3USB12getConfDescrEhhthPh
0004d330 g     F .text	00000084 __cxa_rethrow
0004f268 g     F .text	00000014 .hidden _Unwind_SjLj_Unregister
0004c1e8 g     F .text	00000014 _ZSt14set_unexpectedPFvvE
00047190 g     F .text	0000006c _Z16SGTL5000audio_onP20ALT_AVALON_I2C_DEV_s
0004f2cc g     F .text	00000010 .hidden _Unwind_GetIP
000722d4 g       *ABS*	00000000 __alt_heap_start
000491f4  w    F .text	00000040 _ZN21UsbMidiConfigXtracter14EndpointXtractEhhhhPK23USB_ENDPOINT_DESCRIPTOR
0005052c g     F .text	0000005c _kill_r
00047438 g     F .text	00000180 _ZN9USBH_MIDIC2EP3USB
00050104 g     F .text	0000003c printf
00064ea4  w    O .rodata	0000002c _ZTV15USBDeviceConfig
0005caf4 g     F .text	0000009c _wcrtomb_r
000502f4 g     F .text	00000084 _signal_r
00046518  w    F .text	00000034 _ZN20KeyboardReportParser7OnKeyUpEhh
000596c4 g     F .text	0000005c __sseek
00056e48 g     F .text	00000010 __sinit
0005c390 g     F .text	00000140 __swbuf_r
000455b4 g     F .text	000000a8 _Z8set_notehhh
00049f10 g     F .text	000000e4 _ZN8MAX3421e4InitEv
0004d780 g     F .text	0000002c __cxa_free_dependent_exception
0004b0b4 g     F .text	00000010 _ZN10__cxxabiv120__si_class_type_infoD2Ev
000447e0  w    F .text	00000060 _ZN16MultiValueBufferC1Ev
0005791c g     F .text	0000007c _setlocale_r
0006b658  w    O .rodata	00000025 _ZTSN10__cxxabiv120__si_class_type_infoE
00056ca0 g     F .text	00000078 __sfmoreglue
00061648 g     F .text	000000a8 alt_avalon_i2c_rx_read
0006085c g     F .text	00000024 __malloc_unlock
0004d8a0 g     F .text	00000004 _ZN10__cxxabiv115__forced_unwindD2Ev
00048b44 g     F .text	00000564 _ZN14MidiDescParser15ParseDescriptorEPPhPt
0004bae8 g     F .text	00000274 _ZNK10__cxxabiv121__vmi_class_type_info11__do_upcastEPKNS_17__class_type_infoEPKvRNS1_15__upcast_resultE
000492dc  w    F .text	0000003c _ZN9USBH_MIDI17getMsgSizeFromCinEh
00041ffc g     F .text	00000710 _ZN3USB11ConfiguringEhhb
0004d524 g     F .text	00000020 _ZSt18uncaught_exceptionv
0004dfb4 g     F .text	00000440 .hidden __divsf3
00062860 g     F .text	00000044 alt_avalon_i2c_enabled_ints_get
00041d6c g     F .text	00000290 _ZN3USB13AttemptConfigEhhhb
0004a2dc g     F .text	00000074 _ZN8MAX3421e10IntHandlerEv
0006edb4 g     O .rwdata	00000004 peak_sus
0004bddc g     F .text	00000020 __cxa_deleted_virtual
000613cc g     F .text	00000094 alt_avalon_i2c_master_config_speed_get
00042d3c  w    F .text	0000008c _ZN15AddressPoolImplILh16EE15GetUsbDevicePtrEh
000493a0 g     F .text	000000a0 _ZN6USBHID14GetReportDescrEtP13USBReadParser
00049d28 g     F .text	00000080 _ZN8MAX3421e6gpioRdEv
00057c98 g     F .text	0000015c memmove
0006eda8 g     O .rwdata	00000002 sus_h
00046234  w    F .text	00000028 _ZN17MouseReportParser14OnLeftButtonUpEP9MOUSEINFO
0004d878 g     F .text	00000004 _ZNSt9exceptionD2Ev
00056e30 g     F .text	00000018 _cleanup
000620b0 g     F .text	0000020c alt_avalon_i2c_master_transmit_using_interrupts
00057df4 g     F .text	000000a8 _Balloc
0004edc4 g     F .text	00000070 .hidden __fixsfsi
00043e40 g     F .text	00000008 _ZThn4_N7XBOXONE14EndpointXtractEhhhhPK23USB_ENDPOINT_DESCRIPTOR
0005eba0 g     F .text	000000dc .hidden __gtdf2
00043f04 g     F .text	000000f8 _ZN7XBOXONE4PollEv
0006b88c  w    O .rodata	00000014 _ZTVSt13bad_exception
000646e4 g     F .text	00000024 altera_nios2_gen2_irq_init
00040000 g     F .entry	0000000c __reset
00060b30 g     F .text	00000078 times
0004925c  w    F .text	00000028 _ZN14MidiDescParser9getNumEPsEv
0004f318 g     F .text	00000008 .hidden _Unwind_GetRegionStart
0006d734  w    O .rwdata	00000008 _ZTI17UsbConfigXtracter
00040020 g       *ABS*	00000000 __flash_exceptions_start
00048ac8 g     F .text	0000007c _ZN14MidiDescParser5ParseEtPKhRKt
00040390 g     F .text	0000003c _ZN6SPI_SS3SetEh
00044d0c  w    F .text	00000028 _ZN7XBOXONE10GetAddressEv
0005c984 g     F .text	0000005c _fstat_r
00049a04 g     F .text	00000088 _ZN8MAX3421e5regWrEhh
00040a10 g     F .text	0000018c _ZN3USB10SetAddressEhhPP6EpInfoPt
00072050 g     O .bss	00000004 errno
00045f74 g     F .text	00000298 _ZN20KeyboardReportParser10OemToAsciiEhh
00059640 g     F .text	00000008 __seofread
000495b0 g     F .text	00000098 _ZN6USBHID7GetIdleEhhPh
000598f8 g     F .text	000013a0 ___svfiprintf_internal_r
0004f4f4 g     F .text	00000074 .hidden _Unwind_Backtrace
00072064 g     O .bss	00000004 alt_argv
000434cc g     F .text	000001e4 _ZN7XBOXONEC1EP3USB
00075718 g       *ABS*	00000000 _gp
00060ba8 g     F .text	00000030 usleep
000628a4 g     F .text	0000004c alt_avalon_i2c_rx_fifo_threshold_get
0004e8e0 g     F .text	000004e4 .hidden __subsf3
00048454 g     F .text	00000088 _ZN9USBH_MIDI18countSysExDataSizeEPh
0006ded0  w    O .rwdata	00000008 _ZTI21UsbMidiConfigXtracter
0006edae g     O .rwdata	00000002 rel_l
0007202c g     O .bss	00000002 att_h
00060344 g     F .text	00000020 getpid
0004d02c g     F .text	00000230 __cxa_call_unexpected
0004d3b4 g     F .text	00000008 __cxa_get_exception_ptr
0006155c g     F .text	00000044 alt_avalon_i2c_is_busy
0006c500 g     O .rwdata	00000180 alt_fd_list
00049760 g     F .text	00000088 _ZN6USBHID11GetProtocolEhPh
00064df0  w    O .rodata	00000019 _ZTS15AddressPoolImplILh16EE
00047438 g     F .text	00000180 _ZN9USBH_MIDIC1EP3USB
00040684 g     F .text	00000058 _Z5delaym
00044618 g     F .text	000000a4 _ZN7XBOXONE6onInitEv
00050140 g     F .text	00000008 _putchar_r
0004f408 g     F .text	00000044 .hidden _Unwind_SjLj_ForcedUnwind
00061300 g     F .text	000000cc alt_avalon_i2c_master_config_set
00041c0c g     F .text	00000160 _ZN3USB17DefaultAddressingEhhb
0004f298 g     F .text	00000018 .hidden _Unwind_GetCFA
0004c1c4 g     F .text	00000014 _ZSt13set_terminatePFvvE
00063ba4 g     F .text	00000090 alt_find_dev
00064de4  w    O .rodata	0000000c _ZTI15AddressPoolImplILh16EE
00052a80 g     F .text	00000008 _times_r
0004fe64 g     F .text	00000148 memcpy
00040788 g     F .text	00000024 _ZN3USB15getUsbTaskStateEv
000462fc  w    F .text	00000028 _ZN17MouseReportParser18OnMiddleButtonDownEP9MOUSEINFO
000403cc g     F .text	0000003c _ZN6SPI_SS5ClearEh
0004d72c g     F .text	00000054 __cxa_allocate_dependent_exception
00056af0 g     F .text	0000000c _cleanup_r
0004be74 g     F .text	00000018 _ZNK10__cxxabiv117__class_type_info20__do_find_public_srcEiPKvPKS0_S2_
0005ff58 g     F .text	000000dc .hidden __floatsidf
00064e98  w    O .rodata	0000000c _ZTV13USBReadParser
00063fd8 g     F .text	0000007c alt_io_redirect
0005ec7c g     F .text	000000f4 .hidden __ltdf2
00044b60  w    F .text	00000024 _ZN15USBDeviceConfig10GetAddressEv
000407ac g     F .text	00000034 _ZN3USB15setUsbTaskStateEh
00064d10 g       *ABS*	00000000 __DTOR_END__
0004be8c g     F .text	00000010 _ZN10__cxxabiv117__class_type_infoD1Ev
00061ef0 g     F .text	000001c0 alt_avalon_i2c_master_transmit
00050220 g     F .text	00000014 puts
0006b6e0  w    O .rodata	0000000c _ZTIN10__cxxabiv121__vmi_class_type_infoE
000648d4 g     F .text	0000009c alt_exception_cause_generated_bad_addr
000484dc g     F .text	00000334 _ZN9USBH_MIDI9SendSysExEPhth
000497e8 g     F .text	000000cc _ZN6USBHID23PrintEndpointDescriptorEPK23USB_ENDPOINT_DESCRIPTOR
00059578 g     F .text	00000074 __fpclassifyd
0004a464 g     F .text	000009a0 _Z9MIDI_pollv
00058c90 g     F .text	000000a4 __ratio
0005c2b8 g     F .text	0000001c __vfiprintf_internal
00047f58 g     F .text	000000d4 _ZN9USBH_MIDI8RecvDataEPtPh
00063030 g     F .text	0000021c altera_avalon_jtag_uart_read
0004f630 g     F .text	00000014 malloc
000500d4 g     F .text	00000030 _printf_r
00040000 g       *ABS*	00000000 __alt_mem_onchip_memory2_0
0004da08 g     F .text	00000064 .hidden __udivsi3
000603a0 g     F .text	000000ac isatty
00050378 g     F .text	000000bc _raise_r
000499a4 g     F .text	0000003c _ZN8MAX3421eC2Ev
0006bacc g     O .rodata	000000c8 __mprec_tens
000471fc g     F .text	000001cc _Z14SGTL5000statusP20ALT_AVALON_I2C_DEV_s
00057998 g     F .text	0000000c __locale_charset
00040704 g     F .text	00000058 _ZN3USBC2Ev
00044b18  w    F .text	00000024 _ZN15USBDeviceConfig7ReleaseEv
0006116c g     F .text	00000098 alt_avalon_i2c_enable
0007204c g     O .bss	00000004 __malloc_top_pad
00050588 g     F .text	00000004 _getpid_r
00062794 g     F .text	00000068 alt_avalon_i2c_int_disable
00072024 g     O .bss	00000001 usb_task_state
0006edf0 g     O .rwdata	00000004 __mb_cur_max
000579c8 g     F .text	0000000c _localeconv_r
0004b378 g     F .text	00000010 _ZN10__cxxabiv121__vmi_class_type_infoD1Ev
00043e70 g     F .text	00000094 _ZN7XBOXONE7ReleaseEv
000475b8 g     F .text	00000820 _ZN9USBH_MIDI4InitEhhb
00058228 g     F .text	0000003c __i2b
000572cc g     F .text	000004c8 __sfvwrite_r
0004c00c g     F .text	000000b8 _ZNK10__cxxabiv117__class_type_info10__do_catchEPKSt9type_infoPPvj
00050434 g     F .text	000000a8 __sigtramp_r
00048810 g     F .text	00000140 _ZN9USBH_MIDI16extractSysExDataEPhS0_
00042df4  w    F .text	00000260 _ZN15AddressPoolImplILh16EE12AllocAddressEhbh
00050234 g     F .text	00000054 _sbrk_r
0006b728  w    O .rodata	00000020 _ZTVSt9type_info
00044c10  w    F .text	0000002c _ZN15USBDeviceConfig13DEVSUBCLASSOKEh
00049648 g     F .text	00000094 _ZN6USBHID7SetIdleEhhh
0005ca94 g     F .text	00000060 _read_r
0004d880 g     F .text	0000000c _ZNKSt9exception4whatEv
0006ee08 g     O .rwdata	00000004 alt_max_fd
000465e8 g     F .text	00000050 _Z9E_Notifycci
00048950 g     F .text	00000178 _ZN14MidiDescParserC2EP21UsbMidiConfigXtracterb
0005c678 g     F .text	000000f0 _fclose_r
00056ab8 g     F .text	00000030 fflush
0004a374 g     F .text	00000078 _Z6onInitv
00072048 g     O .bss	00000004 __malloc_max_sbrked_mem
00049ca4 g     F .text	00000084 _ZN8MAX3421e7bytesRdEhhPh
000622bc g     F .text	00000210 alt_avalon_i2c_master_receive
000672e0  w    O .rodata	0000000b _ZTS9USBH_MIDI
0005d89c g     F .text	000008ac .hidden __adddf3
0006b68c  w    O .rodata	0000002c _ZTVN10__cxxabiv120__si_class_type_infoE
00044c3c  w    F .text	00000090 _ZN3USB19RegisterDeviceClassEP15USBDeviceConfig
000490a8 g     F .text	00000144 _ZN9USBH_MIDI14EndpointXtractEhhhhPK23USB_ENDPOINT_DESCRIPTOR
00058a38 g     F .text	0000010c __b2d
0005d2d8 g     F .text	000005c4 .hidden __umoddi3
000606e0 g     F .text	000000dc lseek
00046324  w    F .text	0000018c _ZN20KeyboardReportParser17HandleLockingKeysEP6USBHIDh
0004bed0 g     F .text	0000006c _ZNK10__cxxabiv117__class_type_info11__do_upcastEPKS0_PKvRNS0_15__upcast_resultE
00046740 g     F .text	00000028 _Z8E_Notifyhi
0004bdb8 g     F .text	00000004 _ZdlPv
000627fc g     F .text	00000064 alt_avalon_i2c_int_enable
0006ede0 g     O .rwdata	00000004 _global_impure_ptr
0004b388 g     F .text	00000034 _ZN10__cxxabiv121__vmi_class_type_infoD0Ev
00059014 g     F .text	00000564 _realloc_r
000722d4 g       *ABS*	00000000 __bss_end
00063e04 g     F .text	000000f0 alt_iic_isr_register
000645dc g     F .text	00000108 alt_tick
0004035c g     F .text	00000034 _ZN6SPI_SS7DirReadEv
0004f250 g     F .text	00000018 .hidden _Unwind_SjLj_Register
0005ccdc g     F .text	000005fc .hidden __udivdi3
000626bc g     F .text	00000058 alt_avalon_i2c_int_status_get
0005c8e0 g     F .text	00000024 _fputwc_r
0006baa4 g     O .rodata	00000028 __mprec_bigtens
0005800c g     F .text	00000104 __s2b
0004f5cc g     F .text	00000018 abort
00060034 g     F .text	000000a8 .hidden __floatunsidf
000670c4  w    O .rodata	00000014 _ZTS17MouseReportParser
00058778 g     F .text	00000060 __mcmp
000406dc g     F .text	00000028 _Z6millisv
00049318  w    F .text	00000028 _ZN9USBH_MIDI10GetAddressEv
000436b0 g     F .text	00000654 _ZN7XBOXONE4InitEhhb
0004d470 g     F .text	000000b4 __cxa_end_catch
000496dc g     F .text	00000084 _ZN6USBHID11SetProtocolEhh
00056e68 g     F .text	00000018 __fp_lock_all
00064edc  w    O .rodata	00000025 _ZTS16ConfigDescParserILh0ELh0ELh0ELh0EE
00063db8 g     F .text	0000004c alt_ic_irq_enabled
0004d87c g     F .text	00000004 _ZNSt13bad_exceptionD2Ev
000430c0  w    F .text	00000144 _ZN15AddressPoolImplILh16EE9InitEntryEh
000462d4  w    F .text	00000028 _ZN17MouseReportParser16OnMiddleButtonUpEP9MOUSEINFO
00064540 g     F .text	0000009c alt_alarm_stop
00040320 g     F .text	0000003c _ZN6SPI_SS8DirWriteEh
0006726c  w    O .rodata	0000003c _ZTV9USBH_MIDI
000407e0 g     F .text	00000114 _ZN3USB14getEpInfoEntryEhh
00060fec g     F .text	00000054 alt_avalon_i2c_register_callback
0007206c g     O .bss	00000004 alt_irq_active
00061040 g     F .text	000000ec alt_avalon_i2c_init
0004c184 g     F .text	00000018 _ZSt9terminatev
000400fc g     F .exceptions	000000d4 alt_irq_handler
0006c4d8 g     O .rwdata	00000028 alt_dev_null
0004b3bc g     F .text	00000128 _ZNK10__cxxabiv121__vmi_class_type_info20__do_find_public_srcEiPKvPKNS_17__class_type_infoES2_
0004654c  w    F .text	00000028 _ZN20KeyboardReportParser10getNumKeysEv
0004d8a8 g     F .text	00000004 _ZN10__cxxabiv119__foreign_exceptionD2Ev
00044ebc  w    F .text	00000034 _ZN17UsbConfigXtracterC2Ev
0004326c  w    F .text	00000094 _ZN15AddressPoolImplILh16EE16FindAddressIndexEh
00042b94 g     F .text	00000084 _ZN3USB7setConfEhhh
00072030 g     O .bss	00000002 rel_h
000491ec g     F .text	00000008 _ZThn4_N9USBH_MIDI14EndpointXtractEhhhhPK23USB_ENDPOINT_DESCRIPTOR
0006b784  w    O .rodata	00000022 _ZTSN10__cxxabiv117__class_type_infoE
000408f4 g     F .text	0000011c _ZN3USB14setEpInfoEntryEhhP6EpInfo
000639e4 g     F .text	00000020 alt_dcache_flush_all
00058110 g     F .text	00000068 __hi0bits
000672ec  w    O .rodata	0000000c _ZTI14MidiDescParser
00049ee8 g     F .text	00000028 _Z10Vbus_powerb
0006edc8  w    O .rwdata	00000008 _ZTISt9exception
0005fed8 g     F .text	00000080 .hidden __fixdfsi
000670d8  w    O .rodata	00000012 _ZTS15HIDReportParser
0004b008  w    F .text	00000028 _ZN9USBH_MIDIcvbEv
00041240 g     F .text	000000b0 _ZN3USB11outTransferEhhtPh
0006ee28 g       *ABS*	00000000 __ram_rwdata_end
0004bd5c g     F .text	00000004 _ZNSt9type_infoD1Ev
0006ee00 g     O .rwdata	00000008 alt_dev_list
0004d8a8 g     F .text	00000004 _ZN10__cxxabiv119__foreign_exceptionD1Ev
00060c14 g     F .text	00000100 write
00058eac g     F .text	000000a0 _putc_r
0004a350 g     F .text	00000024 _ZN8MAX3421e10GpxHandlerEv
0006197c g     F .text	0000004c alt_avalon_i2c_check_arblost
0004bd70 g     F .text	00000004 _ZNSt9type_infoD0Ev
00044d34  w    F .text	00000028 _ZN7XBOXONE7isReadyEv
0004e3f4 g     F .text	000000bc .hidden __gtsf2
00062758 g     F .text	0000003c alt_avalon_i2c_int_clear
00049374  w    F .text	0000002c _Z10D_PrintHexItEvT_i
00064dd0  w    O .rodata	00000014 _ZTV11AddressPool
0006bc34 g       *ABS*	00000000 __ram_rodata_end
0006028c g     F .text	000000b8 fstat
00042c70  w    F .text	000000cc _ZN15AddressPoolImplILh16EEC2Ev
00060488 g     F .text	00000130 kill
000465c4  w    F .text	00000024 _ZN20KeyboardReportParser10getPadKeysEv
0005ec7c g     F .text	000000f4 .hidden __ledf2
00064f04  w    O .rodata	00000020 _ZTI7XBOXONE
0006ee14 g     O .rwdata	00000008 alt_avalon_i2c_list
00044aa0  w    F .text	0000003c _ZN15USBDeviceConfig4InitEhhb
00046b90 g     F .text	000000ac _Z13I2Creg_DAP_wrP20ALT_AVALON_I2C_DEV_sht
0006701e g     O .rodata	0000000a _ZN20KeyboardReportParser7numKeysE
000584f0 g     F .text	00000140 __pow5mult
00045088  w    F .text	0000007c _ZN16ConfigDescParserILh0ELh0ELh0ELh0EE5ParseEtPKhRKt
0005adac g     F .text	0000150c ___vfiprintf_internal_r
0007205c g     O .bss	00000004 __nlocale_changed
0004da6c g     F .text	00000058 .hidden __umodsi3
0004bd68 g     F .text	00000008 _ZNKSt9type_info11__do_upcastEPKN10__cxxabiv117__class_type_infoEPPv
0004487c  w    F .text	00000080 _ZN20MultiByteValueParser10InitializeEP16MultiValueBuffer
0004a3ec g     F .text	00000078 _Z10MIDI_setupv
0004270c g     F .text	00000138 _ZN3USB13ReleaseDeviceEh
0004c1d8 g     F .text	00000010 _ZSt13get_terminatev
000722d4 g       *ABS*	00000000 end
00064e8c  w    O .rodata	0000000c _ZTV17UsbConfigXtracter
00044e88  w    F .text	00000034 _ZN15USBDeviceConfigC2Ev
00049bbc g     F .text	00000074 _ZN8MAX3421e6gpioWrEh
000464e4  w    F .text	00000034 _ZN20KeyboardReportParser9OnKeyDownEhh
0004f4dc g     F .text	00000018 .hidden _Unwind_DeleteException
00062b6c g     F .text	000000c0 altera_avalon_jtag_uart_init
000462ac  w    F .text	00000028 _ZN17MouseReportParser17OnRightButtonDownEP9MOUSEINFO
000401d0 g     F .exceptions	00000060 alt_instruction_exception_entry
0006112c g     F .text	00000040 alt_avalon_i2c_open
00067034 g     O .rodata	0000000c _ZN20KeyboardReportParser9symKeysLoE
00072034 g     O .bss	00000001 ped_flip
0004bf3c g     F .text	000000d0 _ZNK10__cxxabiv117__class_type_info12__do_dyncastEiNS0_10__sub_kindEPKS0_PKvS3_S5_RNS0_16__dyncast_resultE
0004b378 g     F .text	00000010 _ZN10__cxxabiv121__vmi_class_type_infoD2Ev
0006dec4 g     O .rwdata	00000004 UsbDEBUGlvl
00064d08 g       *ABS*	00000000 __CTOR_LIST__
00080000 g       *ABS*	00000000 __alt_stack_pointer
00061b04 g     F .text	000000e8 alt_avalon_i2c_master_tx
000636e4 g     F .text	0000007c alt_avalon_timer_sc_init
0004f568 g     F .text	00000064 .hidden __clzsi2
0004bdfc g     F .text	00000078 _ZNK10__cxxabiv117__class_type_info11__do_upcastEPKS0_PPv
0006324c g     F .text	00000224 altera_avalon_jtag_uart_write
00056e58 g     F .text	00000004 __sfp_lock_acquire
0006b814  w    O .rodata	00000012 _ZTSSt13bad_exception
00057bb4 g     F .text	000000e4 memchr
00052a88 g     F .text	000022dc ___vfprintf_internal_r
0005058c g     F .text	00000058 _sprintf_r
000447e0  w    F .text	00000060 _ZN16MultiValueBufferC2Ev
00056fbc g     F .text	00000310 _free_r
000642d8 g     F .text	0000022c alt_printf
000579a4 g     F .text	00000010 __locale_mb_cur_max
00064b50 g     F .text	00000180 __call_exitprocs
00040408 g     F .text	0000003c _ZN6SPI_SS6ToggleEh
00072058 g     O .bss	00000004 __mlocale_changed
0006edac g     O .rwdata	00000002 dec_l
00060f00 g     F .text	00000050 alt_avalon_i2c_register_optional_irq_handler
0006ede8 g     O .rwdata	00000004 __malloc_sbrk_base
00040230 g     F .text	0000003c _start
00043e48 g     F .text	00000028 _ZN7XBOXONE23PrintEndpointDescriptorEPK23USB_ENDPOINT_DESCRIPTOR
00072070 g     O .bss	00000004 _alt_tick_rate
0006b718  w    O .rodata	0000000d _ZTSSt9type_info
000624cc g     F .text	000001f0 alt_avalon_i2c_master_receive_using_interrupts
0004bdbc g     F .text	00000020 __cxa_pure_virtual
00064dbc  w    O .rodata	00000014 _ZTV15AddressPoolImplILh16EE
00064f44  w    O .rodata	00000010 _ZTS13USBReadParser
000628f0 g     F .text	00000064 alt_avalon_i2c_rx_fifo_threshold_set
00058630 g     F .text	00000148 __lshift
00063470 g     F .text	000001fc alt_avalon_spi_command
00072074 g     O .bss	00000004 _alt_nticks
000504f0 g     F .text	00000018 signal
000608bc g     F .text	00000104 read
00045a9c g     F .text	0000021c _ZN17MouseReportParser5ParseEP6USBHIDbhPh
00060d80 g     F .text	00000070 alt_sys_init
00064e40  w    O .rodata	00000040 _ZTV7XBOXONE
0004ee34 g     F .text	00000124 .hidden __floatsisf
00059728 g     F .text	000001d0 __ssprint_r
000412f0 g     F .text	000003ac _ZN3USB11OutTransferEP6EpInfottPh
0004052c g     F .text	00000158 _Z14alt_busy_sleepj
00064a38 g     F .text	00000118 __register_exitproc
00042b00 g     F .text	00000094 _ZN3USB7setAddrEhhh
00046638 g     F .text	00000084 _Z8E_NotifyPKci
000672a8  w    O .rodata	0000000c _ZTV14MidiDescParser
00049284  w    F .text	00000058 _ZN9USBH_MIDI17convertStatus2CinEh
00043300  w    F .text	00000104 _ZN15AddressPoolImplILh16EE18FreeAddressByIndexEh
0004b0f8 g     F .text	00000160 _ZNK10__cxxabiv120__si_class_type_info12__do_dyncastEiNS_17__class_type_info10__sub_kindEPKS1_PKvS4_S6_RNS1_16__dyncast_resultE
000464b0  w    F .text	00000034 _ZN20KeyboardReportParser20OnControlKeysChangedEhh
00044ccc  w    F .text	00000040 _ZN17UsbConfigXtracter14EndpointXtractEhhhhPK23USB_ENDPOINT_DESCRIPTOR
00061d28 g     F .text	000001c8 alt_avalon_i2c_master_tx_rx
00058264 g     F .text	0000028c __multiply
00042a58 g     F .text	000000a8 _ZN3USB11getStrDescrEhhthtPh
0006deb2 g     O .rwdata	00000005 _ZN20KeyboardReportParser7padKeysE
00062ed8 g     F .text	00000068 altera_avalon_jtag_uart_close
00042c70  w    F .text	000000cc _ZN15AddressPoolImplILh16EEC1Ev
0004dac4 g     F .text	00000028 .hidden __mulsi3
0006bc34 g       *ABS*	00000000 __ram_rwdata_start
0004f338 g     F .text	000000d0 .hidden _Unwind_SjLj_RaiseException
0004565c g     F .text	00000064 _Z8set_ctrlhhm
00064d10 g       *ABS*	00000000 __ram_rodata_start
000721ac g     O .bss	00000028 __malloc_current_mallinfo
00044f24  w    F .text	00000164 _ZN16ConfigDescParserILh0ELh0ELh0ELh0EEC1EP17UsbConfigXtracter
0004f44c g     F .text	00000044 .hidden _Unwind_SjLj_Resume
00058b44 g     F .text	0000014c __d2b
0006b8b4  w    O .rodata	00000014 _ZTVN10__cxxabiv119__foreign_exceptionE
0004bd5c g     F .text	00000004 _ZNSt9type_infoD2Ev
00049234  w    F .text	00000028 _ZN14MidiDescParser12getConfValueEv
00044938  w    F .text	00000068 _ZN11ByteSkipper10InitializeEP16MultiValueBuffer
0006d720  w    O .rwdata	00000008 _ZTI11AddressPool
0004d8ac g     F .text	00000004 _ZN10__cxxabiv119__foreign_exceptionD0Ev
0004b2f4 g     F .text	00000084 _ZNK10__cxxabiv120__si_class_type_info11__do_upcastEPKNS_17__class_type_infoEPKvRNS1_15__upcast_resultE
000672f8  w    O .rodata	00000011 _ZTS14MidiDescParser
0006b6b8  w    O .rodata	00000026 _ZTSN10__cxxabiv121__vmi_class_type_infoE
00062a08 g     F .text	00000060 altera_avalon_jtag_uart_read_fd
00064810 g     F .text	000000c4 alt_get_fd
00045cb8 g     F .text	000002bc _ZN20KeyboardReportParser5ParseEP6USBHIDbhPh
0006388c g     F .text	00000158 alt_busy_sleep
00046c3c g     F .text	000001b8 _Z11I2Cbytes_wrP20ALT_AVALON_I2C_DEV_shhPt
0006edd8  w    O .rwdata	00000008 _ZTIN10__cxxabiv119__foreign_exceptionE
0005c548 g     F .text	00000054 _close_r
00046e9c g     F .text	000000b0 _Z13I2Creg_DAP_rdP20ALT_AVALON_I2C_DEV_sh
000649bc g     F .text	0000007c memcmp
000615a0 g     F .text	000000a8 alt_avalon_i2c_rx_read_available
00062ac8 g     F .text	00000050 altera_avalon_jtag_uart_close_fd
0004802c g     F .text	00000268 _ZN9USBH_MIDI8RecvDataEPhb
000722d4 g       *ABS*	00000000 __alt_stack_base
00062b18 g     F .text	00000054 altera_avalon_jtag_uart_ioctl_fd
0004b0b4 g     F .text	00000010 _ZN10__cxxabiv120__si_class_type_infoD1Ev
00048294 g     F .text	0000015c _ZN9USBH_MIDI8SendDataEPhh
00044578 g     F .text	000000a0 _ZN7XBOXONE11XboxCommandEPht
00054e3c g     F .text	00000154 __swsetup_r
0004f490 g     F .text	0000004c .hidden _Unwind_SjLj_Resume_or_Rethrow
00072028 g     O .bss	00000004 i2c_dev
0005e148 g     F .text	000009d0 .hidden __divdf3
0004b058  w    F .text	00000028 _ZN9USBH_MIDI9idProductEv
00056d18 g     F .text	00000118 __sfp
00058da8 g     F .text	00000078 __copybits
0004bd60 g     F .text	00000008 _ZNKSt9type_info14__is_pointer_pEv
0006c058 g     O .rwdata	00000408 __malloc_av_
000448fc  w    F .text	0000003c _ZN11ByteSkipperC1Ev
00040444 g     F .text	0000003c _ZN6SPI_SS6DirSetEh
00056e64 g     F .text	00000004 __sinit_lock_release
0005ed70 g     F .text	0000086c .hidden __muldf3
000595ec g     F .text	00000054 __sread
00044ef0  w    F .text	00000034 _ZN13USBReadParserC2Ev
0006b878  w    O .rodata	00000014 _ZTVSt9exception
0004d8a4 g     F .text	00000004 _ZN10__cxxabiv115__forced_unwindD0Ev
00042c3c  w    F .text	00000034 _ZN11AddressPoolC2Ev
00064708 g     F .text	00000108 alt_find_file
00044be4  w    F .text	0000002c _ZN15USBDeviceConfig10DEVCLASSOKEh
00063a40 g     F .text	000000a4 alt_dev_llist_insert
00060838 g     F .text	00000024 __malloc_lock
00060a44 g     F .text	000000b0 sbrk
000507c4 g     F .text	000022bc ___svfprintf_internal_r
000619c8 g     F .text	0000013c alt_avalon_i2c_interrupt_transaction_status
00061930 g     F .text	0000004c alt_avalon_i2c_check_nack
0006b7b4  w    O .rodata	0000002c _ZTVN10__cxxabiv117__class_type_infoE
0004d2a0 g     F .text	00000090 __cxa_throw
00056a5c g     F .text	0000005c _fflush_r
0004f2fc g     F .text	00000010 .hidden _Unwind_SetIP
000470f8 g     F .text	00000098 _Z12SGTL5000initP20ALT_AVALON_I2C_DEV_s
00040b9c g     F .text	00000310 _ZN3USB7ctrlReqEhhhhhhtttPhP13USBReadParser
0005c59c g     F .text	000000dc _calloc_r
00064f30  w    O .rodata	00000014 _ZTS17UsbConfigXtracter
00046768 g     F .text	00000028 _Z8E_Notifydi
00047e50 g     F .text	00000108 _ZN9USBH_MIDI19setupDeviceSpecificEv
0007202e g     O .bss	00000002 dec_h
0007201c g       *ABS*	00000000 __bss_start
0006d744  w    O .rwdata	00000008 _ZTI15USBDeviceConfig
0004ffac g     F .text	00000128 memset
00048950 g     F .text	00000178 _ZN14MidiDescParserC1EP21UsbMidiConfigXtracterb
00045104  w    F .text	000004b0 _ZN16ConfigDescParserILh0ELh0ELh0ELh0EE15ParseDescriptorEPPhPt
0004ae04 g     F .text	0000016c main
00049c30 g     F .text	00000074 _ZN8MAX3421e5regRdEh
00049e24 g     F .text	000000c4 _ZN8MAX3421e5resetEv
000618fc g     F .text	00000034 alt_avalon_i2c_master_target_set
00072068 g     O .bss	00000004 alt_envp
00064f54  w    O .rodata	00000012 _ZTS15USBDeviceConfig
00072044 g     O .bss	00000004 __malloc_max_total_mem
00062a68 g     F .text	00000060 altera_avalon_jtag_uart_write_fd
00072025 g     O .bss	00000001 _ZN8MAX3421e9vbusStateE
0005c4d0 g     F .text	00000018 __swbuf
0004d860 g     F .text	0000000c __cxa_get_globals_fast
00062714 g     F .text	00000044 alt_avalon_i2c_int_raw_status_get
000499a4 g     F .text	0000003c _ZN8MAX3421eC1Ev
00044ebc  w    F .text	00000034 _ZN17UsbConfigXtracterC1Ev
00042c18  w    F .text	00000024 _ZN3USB14GetAddressPoolEv
00059720 g     F .text	00000008 __sclose
00080000 g       *ABS*	00000000 __alt_heap_limit
0005c768 g     F .text	00000014 fclose
0004b080  w    F .text	00000034 _ZN9USBH_MIDI12attachOnInitEPFvvE
0004444c g     F .text	000000f0 _ZN7XBOXONE14getButtonClickE10ButtonEnum
000466bc g     F .text	00000084 _Z11E_NotifyStrPKci
00040480 g     F .text	0000003c _ZN6SPI_SS8DirClearEh
000551b8 g     F .text	00001688 _dtoa_r
0004f658 g     F .text	0000080c _malloc_r
0005cc50 g     F .text	00000030 __ascii_wctomb
0004d88c g     F .text	0000000c _ZNKSt13bad_exception4whatEv
0006ee0c g     O .rwdata	00000004 alt_errno
000670b8  w    O .rodata	0000000c _ZTI17MouseReportParser
00050508 g     F .text	00000010 _init_signal
00042960 g     F .text	000000f8 _ZN3USB12getConfDescrEhhhP13USBReadParser
00046df4 g     F .text	000000a8 _Z9I2Creg_rdP20ALT_AVALON_I2C_DEV_sh
0006b7a8  w    O .rodata	0000000c _ZTIN10__cxxabiv117__class_type_infoE
000446bc g     F .text	00000078 _ZN7XBOXONE12setRumbleOffEv
00057794 g     F .text	000000c4 _fwalk
000499e0 g     F .text	00000024 _ZN8MAX3421e12getVbusStateEv
00043204  w    F .text	00000068 _ZN15AddressPoolImplILh16EE16InitAllAddressesEv
0004d87c g     F .text	00000004 _ZNSt13bad_exceptionD1Ev
00058f4c g     F .text	000000c8 putc
0004d910 g     F .text	00000084 .hidden __divsi3
0006730c  w    O .rodata	00000018 _ZTS21UsbMidiConfigXtracter
00056e98 g     F .text	00000124 _malloc_trim_r
00064d10 g       *ABS*	00000000 __CTOR_END__
0004e4b0 g     F .text	00000430 .hidden __mulsf3
00044adc  w    F .text	0000003c _ZN15USBDeviceConfig15ConfigureDeviceEhhb
00049340  w    F .text	00000034 _ZN21UsbMidiConfigXtracterC2Ev
0006706c  w    O .rodata	00000028 _ZTV17MouseReportParser
00050650 g     F .text	000000dc strcmp
000434cc g     F .text	000001e4 _ZN7XBOXONEC2EP3USB
00064d10 g       *ABS*	00000000 __flash_rodata_start
0006b8a0  w    O .rodata	00000014 _ZTVN10__cxxabiv115__forced_unwindE
0004b030  w    F .text	00000028 _ZN9USBH_MIDI8idVendorEv
00064d10 g       *ABS*	00000000 __DTOR_LIST__
000672b4  w    O .rodata	0000000c _ZTV21UsbMidiConfigXtracter
0005eb18 g     F .text	00000088 .hidden __nedf2
00060d48 g     F .text	00000038 alt_irq_init
000609c0 g     F .text	00000084 alt_release_fd
0004b0c4 g     F .text	00000034 _ZN10__cxxabiv120__si_class_type_infoD0Ev
00064f24  w    O .rodata	00000009 _ZTS7XBOXONE
000505e4 g     F .text	0000006c sprintf
0006b8c8 g     O .rodata	00000100 .hidden __clz_tab
00072054 g     O .bss	00000004 _PathLocale
00064970 g     F .text	00000014 atexit
0004e3f4 g     F .text	000000bc .hidden __gesf2
0005c4e8 g     F .text	00000060 _write_r
00042844 g     F .text	00000088 _ZN3USB11getDevDescrEhhtPh
00042dc8  w    F .text	0000002c _Z10D_PrintHexIhEvT_i
000579d4 g     F .text	00000018 setlocale
000404f8 g     F .text	00000034 _ZN6SPI_SS7PinReadEv
00067040  w    O .rodata	0000002c _ZTV20KeyboardReportParser
00049da8 g     F .text	0000007c _ZN8MAX3421e12gpioRdOutputEv
0004f330 g     F .text	00000008 .hidden _Unwind_GetTextRelBase
0006b6ec  w    O .rodata	0000002c _ZTVN10__cxxabiv121__vmi_class_type_infoE
0004d808 g     F .text	00000058 __cxa_call_terminate
0006ede4 g     O .rwdata	00000004 _impure_ptr
0006edd0  w    O .rwdata	00000008 _ZTIN10__cxxabiv115__forced_unwindE
00064e0c  w    O .rodata	0000000e _ZTS11AddressPool
00072060 g     O .bss	00000004 alt_argc
00043404  w    F .text	000000c8 _ZN15AddressPoolImplILh16EE14FindChildIndexE16UsbDeviceAddressh
00056840 g     F .text	0000021c __sflush_r
00049340  w    F .text	00000034 _ZN21UsbMidiConfigXtracterC1Ev
00043054  w    F .text	0000006c _ZN15AddressPoolImplILh16EE11FreeAddressEh
00063b44 g     F .text	00000060 _do_dtors
00072138 g     O .bss	00000064 Midi
000579c0 g     F .text	00000008 __locale_cjk_lang
000618c4 g     F .text	00000038 alt_avalon_i2c_master_target_get
000617d4 g     F .text	000000f0 alt_avalon_i2c_send_address
0004c1fc g     F .text	00000010 _ZSt14get_unexpectedv
00040020 g       .exceptions	00000000 alt_irq_entry
00042c3c  w    F .text	00000034 _ZN11AddressPoolC1Ev
0004075c g     F .text	0000002c _ZN3USB4initEv
000589d4 g     F .text	00000064 __ulp
0004f320 g     F .text	00000008 .hidden _Unwind_FindEnclosingFunction
00056e80 g     F .text	00000018 __fp_unlock_all
00044f24  w    F .text	00000164 _ZN16ConfigDescParserILh0ELh0ELh0ELh0EEC2EP17UsbConfigXtracter
0004453c g     F .text	0000003c _ZN7XBOXONE12getAnalogHatE13AnalogHatEnum
00044b84  w    F .text	0000002c _ZN15USBDeviceConfig12ResetHubPortEh
0006edf8 g     O .rwdata	00000008 alt_fs_list
0006b854  w    O .rodata	00000024 _ZTSN10__cxxabiv119__foreign_exceptionE
000670a0  w    O .rodata	00000017 _ZTS20KeyboardReportParser
00044ef0  w    F .text	00000034 _ZN13USBReadParserC1Ev
0006edaa g     O .rwdata	00000002 att_l
0004f30c g     F .text	0000000c .hidden _Unwind_GetLanguageSpecificData
00044bb0  w    F .text	00000034 _ZN15USBDeviceConfig8VIDPIDOKEtt
0004d3bc g     F .text	000000b4 __cxa_begin_catch
00044734 g     F .text	000000ac _ZN7XBOXONE11setRumbleOnEhhhh
000456c0 g     F .text	00000314 _Z9calc_adsrttttttttff
0004be8c g     F .text	00000010 _ZN10__cxxabiv117__class_type_infoD2Ev
0004c19c g     F .text	00000010 _ZN10__cxxabiv112__unexpectedEPFvvE
00046284  w    F .text	00000028 _ZN17MouseReportParser15OnRightButtonUpEP9MOUSEINFO
00040020 g       *ABS*	00000000 __ram_exceptions_start
000579ec g     F .text	0000000c localeconv
0004a10c g     F .text	00000174 _ZN8MAX3421e8busprobeEv
0004026c g     F .text	0000003c _ZN6SPI_SS5WriteEh
00044d5c  w    F .text	0000012c _ZN7XBOXONE8VIDPIDOKEtt
0004d89c g     F .text	00000004 _ZNSt13bad_exceptionD0Ev
000629a0 g     F .text	00000068 alt_avalon_i2c_tfr_cmd_fifo_threshold_set
0006edc4 g     O .rwdata	00000004 _ZN10__cxxabiv119__terminate_handlerE
000404bc g     F .text	0000003c _ZN6SPI_SS9DirToggleEh
00049440 g     F .text	000000b8 _ZN6USBHID9SetReportEhhhhtPh
00063c54 g     F .text	00000050 alt_ic_isr_register
00061204 g     F .text	0000004c alt_avalon_i2c_disable
0004d6a4 g     F .text	00000060 __cxa_allocate_exception
0006b680  w    O .rodata	0000000c _ZTIN10__cxxabiv120__si_class_type_infoE
0006ee28 g       *ABS*	00000000 _edata
00044e88  w    F .text	00000034 _ZN15USBDeviceConfigC1Ev
000722d4 g       *ABS*	00000000 _end
0004b4e4 g     F .text	00000604 _ZNK10__cxxabiv121__vmi_class_type_info12__do_dyncastEiNS_17__class_type_info10__sub_kindEPKS1_PKvS4_S6_RNS1_16__dyncast_resultE
0004ca2c g     F .text	00000600 __gxx_personality_sj0
0005c77c g     F .text	00000164 __fputwc
00040230 g       *ABS*	00000000 __ram_exceptions_end
0004181c g     F .text	000003f0 _ZN3USB4TaskEv
00062f40 g     F .text	000000f0 altera_avalon_jtag_uart_ioctl
000402a8 g     F .text	00000044 _ZN6SPI_SS11ClearAndSetEhh
0006d73c  w    O .rwdata	00000008 _ZTI13USBReadParser
00061250 g     F .text	000000b0 alt_avalon_i2c_master_config_get
0004d878 g     F .text	00000004 _ZNSt9exceptionD1Ev
00063d2c g     F .text	0000008c alt_ic_irq_disable
0004620c  w    F .text	00000028 _ZN17MouseReportParser11OnMouseMoveEP9MOUSEINFO
00059648 g     F .text	0000007c __swrite
0006edec g     O .rwdata	00000004 __malloc_trim_threshold
000579b4 g     F .text	0000000c __locale_msgcharset
00064984 g     F .text	00000038 exit
0004f2b0 g     F .text	0000001c .hidden _Unwind_SetGR
0004625c  w    F .text	00000028 _ZN17MouseReportParser16OnLeftButtonDownEP9MOUSEINFO
00057858 g     F .text	000000c4 _fwalk_reent
0004b258 g     F .text	0000009c _ZNK10__cxxabiv120__si_class_type_info20__do_find_public_srcEiPKvPKNS_17__class_type_infoES2_
0004ef58 g     F .text	000000f0 .hidden __floatunsisf
000587d8 g     F .text	000001fc __mdiff
0004c0c4 g     F .text	000000c0 _ZN10__cxxabiv111__terminateEPFvvE
0004d994 g     F .text	00000074 .hidden __modsi3
00040f94 g     F .text	000002ac _ZN3USB10InTransferEP6EpInfotPtPhh
00080000 g       *ABS*	00000000 __alt_data_end
00040020 g     F .exceptions	00000000 alt_exception
00056e5c g     F .text	00000004 __sfp_lock_release
0006b828  w    O .rodata	0000000c _ZTISt13bad_exception
00046574  w    F .text	00000028 _ZN20KeyboardReportParser12getSymKeysUpEv
00043ffc g     F .text	000003c8 _ZN7XBOXONE10readReportEv
00061460 g     F .text	000000fc alt_avalon_i2c_master_config_speed_set
00049ff4 g     F .text	00000118 _ZN8MAX3421e4InitEi
0004169c g     F .text	00000180 _ZN3USB11dispatchPktEhht
000616f0 g     F .text	000000e4 alt_avalon_i2c_cmd_write
000672c0  w    O .rodata	00000020 _ZTI9USBH_MIDI
000443c4 g     F .text	00000088 _ZN7XBOXONE14getButtonPressE10ButtonEnum
0004d8b0 g     F .text	00000060 .hidden __fixunssfsi
00072032 g     O .bss	00000002 sus_l
00047dd8 g     F .text	00000078 _ZN9USBH_MIDI7ReleaseEv
0006021c g     F .text	00000034 _exit
00063760 g     F .text	0000012c alt_alarm_start
00067094  w    O .rodata	0000000c _ZTI20KeyboardReportParser
000483f0 g     F .text	00000064 _ZN9USBH_MIDI13lookupMsgSizeEhh
0004f27c g     F .text	0000001c .hidden _Unwind_GetGR
0004d86c g     F .text	0000000c __cxa_get_globals
00046898 g     F .text	00000254 _ZN13PTPListParser5ParseEPPhPtPFvPK16MultiValueBuffermPKvES7_
000579f8 g     F .text	000001bc __smakebuf_r
0006edc0 g     O .rwdata	00000004 _ZN10__cxxabiv120__unexpected_handlerE
00044b3c  w    F .text	00000024 _ZN15USBDeviceConfig4PollEv
0005072c g     F .text	00000098 strlen
00050288 g     F .text	0000006c _init_signal_r
0006edb8  w    O .rwdata	00000008 _ZTISt9type_info
0006417c g     F .text	0000015c open
0005eba0 g     F .text	000000dc .hidden __gedf2
00064504 g     F .text	0000003c alt_putchar
0006b804  w    O .rodata	0000000d _ZTSSt9exception
0004f5e4 g     F .text	0000004c clock
0004659c  w    F .text	00000028 _ZN20KeyboardReportParser12getSymKeysLoEv
0004a280 g     F .text	0000005c _ZN8MAX3421e4TaskEv
00067028 g     O .rodata	0000000c _ZN20KeyboardReportParser9symKeysUpE
00049a8c g     F .text	00000130 _ZN8MAX3421e7bytesWrEhhPh
0006edf4 g     O .rwdata	00000004 __wctomb
0004d898 g     F .text	00000004 _ZNSt9exceptionD0Ev
0005ad94 g     F .text	00000018 __sprint_r
00063c34 g     F .text	00000020 alt_icache_flush_all
0004f328 g     F .text	00000008 .hidden _Unwind_GetDataRelBase
0007207c g     O .bss	000000bc Usb
0006ee1c g     O .rwdata	00000004 alt_priority_mask
000448fc  w    F .text	0000003c _ZN11ByteSkipperC2Ev
00063ca4 g     F .text	00000088 alt_ic_irq_enable
00054d64 g     F .text	0000001c __vfprintf_internal
000459d4 g     F .text	000000c8 _Z9init_ctrlttttttttff
000402ec g     F .text	00000034 _ZN6SPI_SS4ReadEv
0005cc80 g     F .text	0000005c _wctomb_r
0005f5dc g     F .text	000008fc .hidden __subdf3
00040eac g     F .text	000000e8 _ZN3USB10inTransferEhhPtPhh
00043d04 g     F .text	0000013c _ZN7XBOXONE14EndpointXtractEhhhhPK23USB_ENDPOINT_DESCRIPTOR
00058178 g     F .text	000000b0 __lo0bits
0006ee20 g     O .rwdata	00000008 alt_alarm_list
00063ae4 g     F .text	00000060 _do_ctors
00064ed0  w    O .rodata	0000000c _ZTI16ConfigDescParserILh0ELh0ELh0ELh0EE
00050518 g     F .text	00000014 __sigtramp
000494f8 g     F .text	000000b8 _ZN6USBHID9GetReportEhhhhtPh
0005cb90 g     F .text	000000c0 wcrtomb
00060118 g     F .text	000000d8 close
0004daec g     F .text	000004c8 .hidden __addsf3
0006edb0 g     O .rwdata	00000004 peak_att
00062954 g     F .text	0000004c alt_avalon_i2c_tfr_cmd_fifo_threshold_get
0006b834  w    O .rodata	00000020 _ZTSN10__cxxabiv115__forced_unwindE
00060620 g     F .text	00000084 alt_load
00061bec g     F .text	0000013c alt_avalon_i2c_master_rx
0004bd74 g     F .text	00000044 _ZNKSt9type_info10__do_catchEPKS_PPvj
000449a0  w    F .text	00000100 _ZN11ByteSkipper4SkipEPPhPtt
0005c904 g     F .text	00000080 fputwc
000504dc g     F .text	00000014 raise
0006deb8  w    O .rwdata	00000008 _ZTI15HIDReportParser
0004f644 g     F .text	00000014 free
00056e60 g     F .text	00000004 __sinit_lock_acquire
00057ec4 g     F .text	00000148 __multadd
0004be9c g     F .text	00000034 _ZN10__cxxabiv117__class_type_infoD0Ev
00057e9c g     F .text	00000028 _Bfree
00046aec g     F .text	000000a4 _Z9I2Creg_wrP20ALT_AVALON_I2C_DEV_sht



Disassembly of section .entry:

00040000 <__reset>:
 * Jump to the _start entry point in the .text section if reset code
 * is allowed or if optimizing for RTL simulation.
 */
#if defined(ALT_ALLOW_CODE_AT_RESET) || defined(ALT_SIM_OPTIMIZE)
    /* Jump to the _start entry point in the .text section. */
    movhi r1, %hi(_start)
   40000:	00400134 	movhi	at,4
    ori r1, r1, %lo(_start)
   40004:	08408c14 	ori	at,at,560
    jmp r1
   40008:	0800683a 	jmp	at
	...

Disassembly of section .exceptions:

00040020 <alt_exception>:

#else /* ALT_EXCEPTION_STACK disabled */
        /* 
         * Reserve space on normal stack for registers about to be pushed.
         */
        addi  sp, sp, -76
   40020:	deffed04 	addi	sp,sp,-76
         * documentation for details).
         *
         * Leave a gap in the stack frame at 4(sp) for the muldiv handler to
         * store zero into.
         */
        stw   ra,  0(sp)
   40024:	dfc00015 	stw	ra,0(sp)
        stw   r1,   8(sp)
   40028:	d8400215 	stw	at,8(sp)
        stw   r2,  12(sp)
   4002c:	d8800315 	stw	r2,12(sp)
        stw   r3,  16(sp)
   40030:	d8c00415 	stw	r3,16(sp)
        stw   r4,  20(sp)
   40034:	d9000515 	stw	r4,20(sp)
        stw   r5,  24(sp)
   40038:	d9400615 	stw	r5,24(sp)
        stw   r6,  28(sp)
   4003c:	d9800715 	stw	r6,28(sp)
        stw   r7,  32(sp)
   40040:	d9c00815 	stw	r7,32(sp)
        rdctl r5, estatus   /* Read early to avoid usage stall */
   40044:	000b307a 	rdctl	r5,estatus
        stw   r8,  36(sp)
   40048:	da000915 	stw	r8,36(sp)
        stw   r9,  40(sp)
   4004c:	da400a15 	stw	r9,40(sp)
        stw   r10, 44(sp)
   40050:	da800b15 	stw	r10,44(sp)
        stw   r11, 48(sp)
   40054:	dac00c15 	stw	r11,48(sp)
        stw   r12, 52(sp)
   40058:	db000d15 	stw	r12,52(sp)
        stw   r13, 56(sp)
   4005c:	db400e15 	stw	r13,56(sp)
        stw   r14, 60(sp)
   40060:	db800f15 	stw	r14,60(sp)
        stw   r15, 64(sp)
   40064:	dbc01015 	stw	r15,64(sp)
        /*
         * ea-4 contains the address of the instruction being executed
         * when the exception occured. For interrupt exceptions, we will
         * will be re-issue the isntruction. Store it in 72(sp)
         */
        stw   r5,  68(sp)  /* estatus */
   40068:	d9401115 	stw	r5,68(sp)
        addi  r15, ea, -4  /* instruction that caused exception */
   4006c:	ebffff04 	addi	r15,ea,-4
        stw   r15,  72(sp)
   40070:	dbc01215 	stw	r15,72(sp)
#else
        /*
         * Test to see if the exception was a software exception or caused 
         * by an external interrupt, and vector accordingly.
         */
        rdctl r4, ipending
   40074:	0009313a 	rdctl	r4,ipending
        andi  r2, r5, 1
   40078:	2880004c 	andi	r2,r5,1
        beq   r2, zero, .Lnot_irq
   4007c:	10000326 	beq	r2,zero,4008c <alt_exception+0x6c>
        beq   r4, zero, .Lnot_irq
   40080:	20000226 	beq	r4,zero,4008c <alt_exception+0x6c>
        /*
         * Now that all necessary registers have been preserved, call 
         * alt_irq_handler() to process the interrupts.
         */

        call alt_irq_handler
   40084:	00400fc0 	call	400fc <alt_irq_handler>

        .section .exceptions.irqreturn, "xa"

        br    .Lexception_exit
   40088:	00000706 	br	400a8 <alt_exception+0x88>
         * upon completion, so we write ea (address of instruction *after*
         * the one where the exception occured) into 72(sp). The actual
         * instruction that caused the exception is written in r2, which these
         * handlers will utilize.
         */
        stw ea, 72(sp) /* EA is PC+4 so will skip over instruction causing exception */
   4008c:	df401215 	stw	ea,72(sp)
.Lunknown_16bit:
        addi.n r4, r4, 2 /* Need PC+2 to skip over instruction causing exception */
        stw r4, 72(sp)

#else /* CDX is not Enabled and all instructions are 32bits */
        ldw r2, -4(ea) /* Instruction value that caused exception */
   40090:	e8bfff17 	ldw	r2,-4(ea)
         * debugger is present) or go into an infinite loop since the
         * handling behavior is undefined; in that case we will not return here.
         */

        /* Load exception-causing address as first argument (r4) */
        addi   r4, ea, -4
   40094:	e93fff04 	addi	r4,ea,-4

        /* Call the instruction-exception entry */
        call   alt_instruction_exception_entry
   40098:	00401d00 	call	401d0 <alt_instruction_exception_entry>
         * instruction
         *
         * Return code was 0: Skip. The instruction after the exception is
         * already stored in 72(sp).
         */
        bne   r2, r0, .Lexception_exit
   4009c:	1000021e 	bne	r2,zero,400a8 <alt_exception+0x88>

        /*
         * Otherwise, modify 72(sp) to re-issue the instruction that caused the
         * exception.
         */
        addi  r15, ea, -4  /* instruction that caused exception */
   400a0:	ebffff04 	addi	r15,ea,-4
        stw   r15,  72(sp)
   400a4:	dbc01215 	stw	r15,72(sp)
        /* 
         * Restore the saved registers, so that all general purpose registers 
         * have been restored to their state at the time the interrupt occured.
         */

        ldw   r5,  68(sp)
   400a8:	d9401117 	ldw	r5,68(sp)
        ldw   ea,  72(sp)  /* This becomes the PC once eret is executed */
   400ac:	df401217 	ldw	ea,72(sp)
        ldw   ra,   0(sp)
   400b0:	dfc00017 	ldw	ra,0(sp)

        wrctl estatus, r5
   400b4:	2801707a 	wrctl	estatus,r5

        ldw   r1,   8(sp)
   400b8:	d8400217 	ldw	at,8(sp)
        ldw   r2,  12(sp)
   400bc:	d8800317 	ldw	r2,12(sp)
        ldw   r3,  16(sp)
   400c0:	d8c00417 	ldw	r3,16(sp)
        ldw   r4,  20(sp)
   400c4:	d9000517 	ldw	r4,20(sp)
        ldw   r5,  24(sp)
   400c8:	d9400617 	ldw	r5,24(sp)
        ldw   r6,  28(sp)
   400cc:	d9800717 	ldw	r6,28(sp)
        ldw   r7,  32(sp)
   400d0:	d9c00817 	ldw	r7,32(sp)

#if defined(ALT_EXCEPTION_STACK) && defined(ALT_STACK_CHECK)
        ldw   et, %gprel(alt_exception_old_stack_limit)(gp)
#endif

        ldw   r8,  36(sp)
   400d4:	da000917 	ldw	r8,36(sp)
        ldw   r9,  40(sp)
   400d8:	da400a17 	ldw	r9,40(sp)
        ldw   r10, 44(sp)
   400dc:	da800b17 	ldw	r10,44(sp)
        ldw   r11, 48(sp)
   400e0:	dac00c17 	ldw	r11,48(sp)
        ldw   r12, 52(sp)
   400e4:	db000d17 	ldw	r12,52(sp)
        ldw   r13, 56(sp)
   400e8:	db400e17 	ldw	r13,56(sp)
        ldw   r14, 60(sp)
   400ec:	db800f17 	ldw	r14,60(sp)
        ldw   r15, 64(sp)
   400f0:	dbc01017 	ldw	r15,64(sp)
        stw   et, %gprel(alt_stack_limit_value)(gp)
        stw   zero, %gprel(alt_exception_old_stack_limit)(gp)
#endif /* ALT_STACK_CHECK */
        ldw   sp,  76(sp)
#else /* ALT_EXCEPTION_STACK disabled */
        addi  sp, sp, 76
   400f4:	dec01304 	addi	sp,sp,76

        /*
         * Return to the interrupted instruction.
         */

        eret
   400f8:	ef80083a 	eret

000400fc <alt_irq_handler>:
 * instruction is present if the macro ALT_CI_INTERRUPT_VECTOR defined.
 */

void alt_irq_handler (void) __attribute__ ((section (".exceptions")));
void alt_irq_handler (void)
{
   400fc:	defff904 	addi	sp,sp,-28
   40100:	dfc00615 	stw	ra,24(sp)
   40104:	df000515 	stw	fp,20(sp)
   40108:	df000504 	addi	fp,sp,20
  
  /*
   * Notify the operating system that we are at interrupt level.
   */ 
  
  ALT_OS_INT_ENTER();
   4010c:	0001883a 	nop
#ifndef NIOS2_EIC_PRESENT
static ALT_INLINE alt_u32 ALT_ALWAYS_INLINE alt_irq_pending (void)
{
  alt_u32 active;

  NIOS2_READ_IPENDING (active);
   40110:	0005313a 	rdctl	r2,ipending
   40114:	e0bffe15 	stw	r2,-8(fp)

  return active;
   40118:	e0bffe17 	ldw	r2,-8(fp)
   * Consider the case where the high priority interupt is asserted during
   * the interrupt entry sequence for a lower priority interrupt to see why
   * this is the case.
   */

  active = alt_irq_pending ();
   4011c:	e0bffb15 	stw	r2,-20(fp)

  do
  {
    i = 0;
   40120:	e03ffd15 	stw	zero,-12(fp)
    mask = 1;
   40124:	00800044 	movi	r2,1
   40128:	e0bffc15 	stw	r2,-16(fp)
     * called to clear the interrupt condition.
     */

    do
    {
      if (active & mask)
   4012c:	e0fffb17 	ldw	r3,-20(fp)
   40130:	e0bffc17 	ldw	r2,-16(fp)
   40134:	1884703a 	and	r2,r3,r2
   40138:	10001426 	beq	r2,zero,4018c <alt_irq_handler+0x90>
      { 
#ifdef ALT_ENHANCED_INTERRUPT_API_PRESENT
        alt_irq[i].handler(alt_irq[i].context); 
   4013c:	008001f4 	movhi	r2,7
   40140:	10887504 	addi	r2,r2,8660
   40144:	e0fffd17 	ldw	r3,-12(fp)
   40148:	180690fa 	slli	r3,r3,3
   4014c:	10c5883a 	add	r2,r2,r3
   40150:	10c00017 	ldw	r3,0(r2)
   40154:	008001f4 	movhi	r2,7
   40158:	10887504 	addi	r2,r2,8660
   4015c:	e13ffd17 	ldw	r4,-12(fp)
   40160:	200890fa 	slli	r4,r4,3
   40164:	1105883a 	add	r2,r2,r4
   40168:	10800104 	addi	r2,r2,4
   4016c:	10800017 	ldw	r2,0(r2)
   40170:	1009883a 	mov	r4,r2
   40174:	183ee83a 	callr	r3
#else
        alt_irq[i].handler(alt_irq[i].context, i); 
#endif
        break;
   40178:	0001883a 	nop
#ifndef NIOS2_EIC_PRESENT
static ALT_INLINE alt_u32 ALT_ALWAYS_INLINE alt_irq_pending (void)
{
  alt_u32 active;

  NIOS2_READ_IPENDING (active);
   4017c:	0005313a 	rdctl	r2,ipending
   40180:	e0bfff15 	stw	r2,-4(fp)

  return active;
   40184:	e0bfff17 	ldw	r2,-4(fp)
   40188:	00000706 	br	401a8 <alt_irq_handler+0xac>
      }
      mask <<= 1;
   4018c:	e0bffc17 	ldw	r2,-16(fp)
   40190:	1085883a 	add	r2,r2,r2
   40194:	e0bffc15 	stw	r2,-16(fp)
      i++;
   40198:	e0bffd17 	ldw	r2,-12(fp)
   4019c:	10800044 	addi	r2,r2,1
   401a0:	e0bffd15 	stw	r2,-12(fp)

    } while (1);
   401a4:	003fe106 	br	4012c <__alt_data_end+0xfffc012c>

    active = alt_irq_pending ();
   401a8:	e0bffb15 	stw	r2,-20(fp)
    
  } while (active);
   401ac:	e0bffb17 	ldw	r2,-20(fp)
   401b0:	103fdb1e 	bne	r2,zero,40120 <__alt_data_end+0xfffc0120>

  /*
   * Notify the operating system that interrupt processing is complete.
   */ 

  ALT_OS_INT_EXIT();
   401b4:	0001883a 	nop
}
   401b8:	0001883a 	nop
   401bc:	e037883a 	mov	sp,fp
   401c0:	dfc00117 	ldw	ra,4(sp)
   401c4:	df000017 	ldw	fp,0(sp)
   401c8:	dec00204 	addi	sp,sp,8
   401cc:	f800283a 	ret

000401d0 <alt_instruction_exception_entry>:
 * that handler if it has been registered. Absent a handler, it will
 * break break or hang as discussed below.
 */
int 
alt_instruction_exception_entry (alt_u32 exception_pc)
{
   401d0:	defffb04 	addi	sp,sp,-20
   401d4:	dfc00415 	stw	ra,16(sp)
   401d8:	df000315 	stw	fp,12(sp)
   401dc:	df000304 	addi	fp,sp,12
   401e0:	e13fff15 	stw	r4,-4(fp)
  cause = ( (cause & NIOS2_EXCEPTION_REG_CAUSE_MASK) >>
              NIOS2_EXCEPTION_REG_CAUSE_OFST );

  NIOS2_READ_BADADDR(badaddr);
#else
  cause = NIOS2_EXCEPTION_CAUSE_NOT_PRESENT;
   401e4:	00bfffc4 	movi	r2,-1
   401e8:	e0bffd15 	stw	r2,-12(fp)
  badaddr = 0;
   401ec:	e03ffe15 	stw	zero,-8(fp)
#endif /* NIOS2_HAS_EXTRA_EXCEPTION_INFO */

  if(alt_instruction_exception_handler) {
   401f0:	d0b25817 	ldw	r2,-13984(gp)
   401f4:	10000726 	beq	r2,zero,40214 <alt_instruction_exception_entry+0x44>
     * Call handler. Its return value indicates whether the exception-causing
     * instruction should be re-issued. The code that called us,
     * alt_eceptions_entry.S, will look at this value and adjust the ea
     * register as necessary
     */
    return alt_instruction_exception_handler(cause, exception_pc, badaddr);
   401f8:	d0b25817 	ldw	r2,-13984(gp)
   401fc:	e0fffd17 	ldw	r3,-12(fp)
   40200:	e1bffe17 	ldw	r6,-8(fp)
   40204:	e17fff17 	ldw	r5,-4(fp)
   40208:	1809883a 	mov	r4,r3
   4020c:	103ee83a 	callr	r2
   40210:	00000206 	br	4021c <alt_instruction_exception_entry+0x4c>
   *    (a peripheral which negates its interrupt output before its
   *    interrupt handler has been executed will cause spurious interrupts)
   */
  else {
#ifdef NIOS2_HAS_DEBUG_STUB
    NIOS2_BREAK();
   40214:	003da03a 	break	0
      ;
#endif /* NIOS2_HAS_DEBUG_STUB */
  }

  /* We should not get here. Remove compiler warning. */
  return NIOS2_EXCEPTION_RETURN_REISSUE_INST;
   40218:	0005883a 	mov	r2,zero
}
   4021c:	e037883a 	mov	sp,fp
   40220:	dfc00117 	ldw	ra,4(sp)
   40224:	df000017 	ldw	fp,0(sp)
   40228:	dec00204 	addi	sp,sp,8
   4022c:	f800283a 	ret

Disassembly of section .text:

00040230 <_start>:

    /*
     * Now that the caches are initialized, set up the stack pointer and global pointer.
     * The values provided by the linker are assumed to be correctly aligned.
     */
    movhi sp, %hi(__alt_stack_pointer)
   40230:	06c00234 	movhi	sp,8
    ori sp, sp, %lo(__alt_stack_pointer)
   40234:	dec00014 	ori	sp,sp,0
    movhi gp, %hi(_gp)
   40238:	068001f4 	movhi	gp,7
    ori gp, gp, %lo(_gp)
   4023c:	d695c614 	ori	gp,gp,22296
 */
#ifndef ALT_SIM_OPTIMIZE
    /* Log that the BSS is about to be cleared. */
    ALT_LOG_PUTS(alt_log_msg_bss)

    movhi r2, %hi(__bss_start)
   40240:	008001f4 	movhi	r2,7
    ori r2, r2, %lo(__bss_start)
   40244:	10880714 	ori	r2,r2,8220

    movhi r3, %hi(__bss_end)
   40248:	00c001f4 	movhi	r3,7
    ori r3, r3, %lo(__bss_end)
   4024c:	18c8b514 	ori	r3,r3,8916

    beq r2, r3, 1f
   40250:	10c00326 	beq	r2,r3,40260 <_start+0x30>

0:
    stw zero, (r2)
   40254:	10000015 	stw	zero,0(r2)
    addi r2, r2, 4
   40258:	10800104 	addi	r2,r2,4
    bltu r2, r3, 0b
   4025c:	10fffd36 	bltu	r2,r3,40254 <__alt_data_end+0xfffc0254>
     * section aren't defined until alt_load() has been called).
     */
    mov   et, zero
#endif

    call alt_load
   40260:	00606200 	call	60620 <alt_load>

    /* Log that alt_main is about to be called. */
    ALT_LOG_PUTS(alt_log_msg_alt_main)

    /* Call the C entry point. It should never return. */
    call alt_main
   40264:	00607bc0 	call	607bc <alt_main>

00040268 <alt_after_alt_main>:

    /* Wait in infinite loop in case alt_main does return. */
alt_after_alt_main:
    br alt_after_alt_main
   40268:	003fff06 	br	40268 <__alt_data_end+0xfffc0268>

0004026c <_ZN6SPI_SS5WriteEh>:
#include "../include/Port.h"
#include <stdio.h>
typedef uint8_t DataT;
void SPI_SS::Write(DataT value) {
   4026c:	defffd04 	addi	sp,sp,-12
   40270:	dfc00215 	stw	ra,8(sp)
   40274:	df000115 	stw	fp,4(sp)
   40278:	df000104 	addi	fp,sp,4
   4027c:	2005883a 	mov	r2,r4
   40280:	e0bfff05 	stb	r2,-4(fp)
	printf("Port Write\n");
   40284:	010001b4 	movhi	r4,6
   40288:	21134404 	addi	r4,r4,19728
   4028c:	00502200 	call	50220 <puts>
}
   40290:	0001883a 	nop
   40294:	e037883a 	mov	sp,fp
   40298:	dfc00117 	ldw	ra,4(sp)
   4029c:	df000017 	ldw	fp,0(sp)
   402a0:	dec00204 	addi	sp,sp,8
   402a4:	f800283a 	ret

000402a8 <_ZN6SPI_SS11ClearAndSetEhh>:
void SPI_SS::ClearAndSet(DataT clearMask, DataT value) {
   402a8:	defffc04 	addi	sp,sp,-16
   402ac:	dfc00315 	stw	ra,12(sp)
   402b0:	df000215 	stw	fp,8(sp)
   402b4:	df000204 	addi	fp,sp,8
   402b8:	2007883a 	mov	r3,r4
   402bc:	2805883a 	mov	r2,r5
   402c0:	e0fffe05 	stb	r3,-8(fp)
   402c4:	e0bfff05 	stb	r2,-4(fp)
	printf("Port ClearAndSet\n");
   402c8:	010001b4 	movhi	r4,6
   402cc:	21134704 	addi	r4,r4,19740
   402d0:	00502200 	call	50220 <puts>
}
   402d4:	0001883a 	nop
   402d8:	e037883a 	mov	sp,fp
   402dc:	dfc00117 	ldw	ra,4(sp)
   402e0:	df000017 	ldw	fp,0(sp)
   402e4:	dec00204 	addi	sp,sp,8
   402e8:	f800283a 	ret

000402ec <_ZN6SPI_SS4ReadEv>:
DataT SPI_SS::Read() {
   402ec:	defffe04 	addi	sp,sp,-8
   402f0:	dfc00115 	stw	ra,4(sp)
   402f4:	df000015 	stw	fp,0(sp)
   402f8:	d839883a 	mov	fp,sp
	printf("Port Read\n");
   402fc:	010001b4 	movhi	r4,6
   40300:	21134c04 	addi	r4,r4,19760
   40304:	00502200 	call	50220 <puts>
}
   40308:	0001883a 	nop
   4030c:	e037883a 	mov	sp,fp
   40310:	dfc00117 	ldw	ra,4(sp)
   40314:	df000017 	ldw	fp,0(sp)
   40318:	dec00204 	addi	sp,sp,8
   4031c:	f800283a 	ret

00040320 <_ZN6SPI_SS8DirWriteEh>:
void SPI_SS::DirWrite(DataT value) {
   40320:	defffd04 	addi	sp,sp,-12
   40324:	dfc00215 	stw	ra,8(sp)
   40328:	df000115 	stw	fp,4(sp)
   4032c:	df000104 	addi	fp,sp,4
   40330:	2005883a 	mov	r2,r4
   40334:	e0bfff05 	stb	r2,-4(fp)
	printf("Port DirWrite\n");
   40338:	010001b4 	movhi	r4,6
   4033c:	21134f04 	addi	r4,r4,19772
   40340:	00502200 	call	50220 <puts>
}
   40344:	0001883a 	nop
   40348:	e037883a 	mov	sp,fp
   4034c:	dfc00117 	ldw	ra,4(sp)
   40350:	df000017 	ldw	fp,0(sp)
   40354:	dec00204 	addi	sp,sp,8
   40358:	f800283a 	ret

0004035c <_ZN6SPI_SS7DirReadEv>:
DataT SPI_SS::DirRead() {
   4035c:	defffe04 	addi	sp,sp,-8
   40360:	dfc00115 	stw	ra,4(sp)
   40364:	df000015 	stw	fp,0(sp)
   40368:	d839883a 	mov	fp,sp
	printf("Port DirRead\n");
   4036c:	010001b4 	movhi	r4,6
   40370:	21135304 	addi	r4,r4,19788
   40374:	00502200 	call	50220 <puts>
}
   40378:	0001883a 	nop
   4037c:	e037883a 	mov	sp,fp
   40380:	dfc00117 	ldw	ra,4(sp)
   40384:	df000017 	ldw	fp,0(sp)
   40388:	dec00204 	addi	sp,sp,8
   4038c:	f800283a 	ret

00040390 <_ZN6SPI_SS3SetEh>:
void SPI_SS::Set(DataT value) {
   40390:	defffd04 	addi	sp,sp,-12
   40394:	dfc00215 	stw	ra,8(sp)
   40398:	df000115 	stw	fp,4(sp)
   4039c:	df000104 	addi	fp,sp,4
   403a0:	2005883a 	mov	r2,r4
   403a4:	e0bfff05 	stb	r2,-4(fp)
	printf("Port Set\n");
   403a8:	010001b4 	movhi	r4,6
   403ac:	21135704 	addi	r4,r4,19804
   403b0:	00502200 	call	50220 <puts>
}
   403b4:	0001883a 	nop
   403b8:	e037883a 	mov	sp,fp
   403bc:	dfc00117 	ldw	ra,4(sp)
   403c0:	df000017 	ldw	fp,0(sp)
   403c4:	dec00204 	addi	sp,sp,8
   403c8:	f800283a 	ret

000403cc <_ZN6SPI_SS5ClearEh>:
void SPI_SS::Clear(DataT value) {
   403cc:	defffd04 	addi	sp,sp,-12
   403d0:	dfc00215 	stw	ra,8(sp)
   403d4:	df000115 	stw	fp,4(sp)
   403d8:	df000104 	addi	fp,sp,4
   403dc:	2005883a 	mov	r2,r4
   403e0:	e0bfff05 	stb	r2,-4(fp)
	printf("Port Clear\n");
   403e4:	010001b4 	movhi	r4,6
   403e8:	21135a04 	addi	r4,r4,19816
   403ec:	00502200 	call	50220 <puts>
}
   403f0:	0001883a 	nop
   403f4:	e037883a 	mov	sp,fp
   403f8:	dfc00117 	ldw	ra,4(sp)
   403fc:	df000017 	ldw	fp,0(sp)
   40400:	dec00204 	addi	sp,sp,8
   40404:	f800283a 	ret

00040408 <_ZN6SPI_SS6ToggleEh>:
void SPI_SS::Toggle(DataT value) {
   40408:	defffd04 	addi	sp,sp,-12
   4040c:	dfc00215 	stw	ra,8(sp)
   40410:	df000115 	stw	fp,4(sp)
   40414:	df000104 	addi	fp,sp,4
   40418:	2005883a 	mov	r2,r4
   4041c:	e0bfff05 	stb	r2,-4(fp)
	printf("Port Toggle\n");
   40420:	010001b4 	movhi	r4,6
   40424:	21135d04 	addi	r4,r4,19828
   40428:	00502200 	call	50220 <puts>
}
   4042c:	0001883a 	nop
   40430:	e037883a 	mov	sp,fp
   40434:	dfc00117 	ldw	ra,4(sp)
   40438:	df000017 	ldw	fp,0(sp)
   4043c:	dec00204 	addi	sp,sp,8
   40440:	f800283a 	ret

00040444 <_ZN6SPI_SS6DirSetEh>:
void SPI_SS::DirSet(DataT value) {
   40444:	defffd04 	addi	sp,sp,-12
   40448:	dfc00215 	stw	ra,8(sp)
   4044c:	df000115 	stw	fp,4(sp)
   40450:	df000104 	addi	fp,sp,4
   40454:	2005883a 	mov	r2,r4
   40458:	e0bfff05 	stb	r2,-4(fp)
	printf("Port DirSet\n");
   4045c:	010001b4 	movhi	r4,6
   40460:	21136004 	addi	r4,r4,19840
   40464:	00502200 	call	50220 <puts>
}
   40468:	0001883a 	nop
   4046c:	e037883a 	mov	sp,fp
   40470:	dfc00117 	ldw	ra,4(sp)
   40474:	df000017 	ldw	fp,0(sp)
   40478:	dec00204 	addi	sp,sp,8
   4047c:	f800283a 	ret

00040480 <_ZN6SPI_SS8DirClearEh>:
void SPI_SS::DirClear(DataT value) {
   40480:	defffd04 	addi	sp,sp,-12
   40484:	dfc00215 	stw	ra,8(sp)
   40488:	df000115 	stw	fp,4(sp)
   4048c:	df000104 	addi	fp,sp,4
   40490:	2005883a 	mov	r2,r4
   40494:	e0bfff05 	stb	r2,-4(fp)
	printf("Port DirClear\n");
   40498:	010001b4 	movhi	r4,6
   4049c:	21136304 	addi	r4,r4,19852
   404a0:	00502200 	call	50220 <puts>
}
   404a4:	0001883a 	nop
   404a8:	e037883a 	mov	sp,fp
   404ac:	dfc00117 	ldw	ra,4(sp)
   404b0:	df000017 	ldw	fp,0(sp)
   404b4:	dec00204 	addi	sp,sp,8
   404b8:	f800283a 	ret

000404bc <_ZN6SPI_SS9DirToggleEh>:
void SPI_SS::DirToggle(DataT value) {
   404bc:	defffd04 	addi	sp,sp,-12
   404c0:	dfc00215 	stw	ra,8(sp)
   404c4:	df000115 	stw	fp,4(sp)
   404c8:	df000104 	addi	fp,sp,4
   404cc:	2005883a 	mov	r2,r4
   404d0:	e0bfff05 	stb	r2,-4(fp)
	printf("Port DirToggle\n");
   404d4:	010001b4 	movhi	r4,6
   404d8:	21136704 	addi	r4,r4,19868
   404dc:	00502200 	call	50220 <puts>
}
   404e0:	0001883a 	nop
   404e4:	e037883a 	mov	sp,fp
   404e8:	dfc00117 	ldw	ra,4(sp)
   404ec:	df000017 	ldw	fp,0(sp)
   404f0:	dec00204 	addi	sp,sp,8
   404f4:	f800283a 	ret

000404f8 <_ZN6SPI_SS7PinReadEv>:
DataT SPI_SS::PinRead() {
   404f8:	defffe04 	addi	sp,sp,-8
   404fc:	dfc00115 	stw	ra,4(sp)
   40500:	df000015 	stw	fp,0(sp)
   40504:	d839883a 	mov	fp,sp
	printf("Port PinRead\n");
   40508:	010001b4 	movhi	r4,6
   4050c:	21136b04 	addi	r4,r4,19884
   40510:	00502200 	call	50220 <puts>
}
   40514:	0001883a 	nop
   40518:	e037883a 	mov	sp,fp
   4051c:	dfc00117 	ldw	ra,4(sp)
   40520:	df000017 	ldw	fp,0(sp)
   40524:	dec00204 	addi	sp,sp,8
   40528:	f800283a 	ret

0004052c <_Z14alt_busy_sleepj>:
#include "alt_types.h"

#include "priv/alt_busy_sleep.h"

unsigned int alt_busy_sleep (unsigned int us)
{
   4052c:	defffa04 	addi	sp,sp,-24
   40530:	dfc00515 	stw	ra,20(sp)
   40534:	df000415 	stw	fp,16(sp)
   40538:	df000404 	addi	fp,sp,16
   4053c:	e13fff15 	stw	r4,-4(fp)
  int big_loops;
  alt_u32 cycles_per_loop;

  if (!strcmp(NIOS2_CPU_IMPLEMENTATION,"tiny"))
  {
    cycles_per_loop = 9;
   40540:	00800244 	movi	r2,9
   40544:	e0bffd15 	stw	r2,-12(fp)
    cycles_per_loop = 3;
  }


  big_loops = us / (INT_MAX/
  (ALT_CPU_FREQ/(cycles_per_loop * 1000000)));
   40548:	014003f4 	movhi	r5,15
   4054c:	29509004 	addi	r5,r5,16960
   40550:	e13ffd17 	ldw	r4,-12(fp)
   40554:	004dac40 	call	4dac4 <__mulsi3>
   40558:	100b883a 	mov	r5,r2
   4055c:	01017db4 	movhi	r4,1526
   40560:	21384004 	addi	r4,r4,-7936
   40564:	004da080 	call	4da08 <__udivsi3>
  {
    cycles_per_loop = 3;
  }


  big_loops = us / (INT_MAX/
   40568:	100b883a 	mov	r5,r2
   4056c:	01200034 	movhi	r4,32768
   40570:	213fffc4 	addi	r4,r4,-1
   40574:	004da080 	call	4da08 <__udivsi3>
   40578:	100b883a 	mov	r5,r2
   4057c:	e13fff17 	ldw	r4,-4(fp)
   40580:	004da080 	call	4da08 <__udivsi3>
  (ALT_CPU_FREQ/(cycles_per_loop * 1000000)));
   40584:	e0bffe15 	stw	r2,-8(fp)

  if (big_loops)
   40588:	e0bffe17 	ldw	r2,-8(fp)
   4058c:	10002a26 	beq	r2,zero,40638 <_Z14alt_busy_sleepj+0x10c>
  {
    for(i=0;i<big_loops;i++)
   40590:	e03ffc15 	stw	zero,-16(fp)
   40594:	e0fffc17 	ldw	r3,-16(fp)
   40598:	e0bffe17 	ldw	r2,-8(fp)
   4059c:	1880180e 	bge	r3,r2,40600 <_Z14alt_busy_sleepj+0xd4>
        "\n\tbne %0,zero,0b"
        "\n1:"
        "\n\t.pushsection .debug_alt_sim_info"
        "\n\t.int 4, 0, 0b, 1b"
        "\n\t.popsection"
        :: "r" (INT_MAX));
   405a0:	00a00034 	movhi	r2,32768
   405a4:	10bfffc4 	addi	r2,r2,-1
   405a8:	10bfffc4 	addi	r2,r2,-1
   405ac:	103ffe1e 	bne	r2,zero,405a8 <__alt_data_end+0xfffc05a8>
      us -= (INT_MAX/(ALT_CPU_FREQ/
      (cycles_per_loop * 1000000)));
   405b0:	014003f4 	movhi	r5,15
   405b4:	29509004 	addi	r5,r5,16960
   405b8:	e13ffd17 	ldw	r4,-12(fp)
   405bc:	004dac40 	call	4dac4 <__mulsi3>
        "\n1:"
        "\n\t.pushsection .debug_alt_sim_info"
        "\n\t.int 4, 0, 0b, 1b"
        "\n\t.popsection"
        :: "r" (INT_MAX));
      us -= (INT_MAX/(ALT_CPU_FREQ/
   405c0:	100b883a 	mov	r5,r2
   405c4:	01017db4 	movhi	r4,1526
   405c8:	21384004 	addi	r4,r4,-7936
   405cc:	004da080 	call	4da08 <__udivsi3>
   405d0:	100b883a 	mov	r5,r2
   405d4:	01200034 	movhi	r4,32768
   405d8:	213fffc4 	addi	r4,r4,-1
   405dc:	004da080 	call	4da08 <__udivsi3>
   405e0:	1007883a 	mov	r3,r2
      (cycles_per_loop * 1000000)));
   405e4:	e0bfff17 	ldw	r2,-4(fp)
   405e8:	10c5c83a 	sub	r2,r2,r3
   405ec:	e0bfff15 	stw	r2,-4(fp)
  big_loops = us / (INT_MAX/
  (ALT_CPU_FREQ/(cycles_per_loop * 1000000)));

  if (big_loops)
  {
    for(i=0;i<big_loops;i++)
   405f0:	e0bffc17 	ldw	r2,-16(fp)
   405f4:	10800044 	addi	r2,r2,1
   405f8:	e0bffc15 	stw	r2,-16(fp)
   405fc:	003fe506 	br	40594 <__alt_data_end+0xfffc0594>
      "\n\tbne %0,zero,0b"
      "\n1:"
      "\n\t.pushsection .debug_alt_sim_info"
      "\n\t.int 4, 0, 0b, 1b"
      "\n\t.popsection"
      :: "r" (us*(ALT_CPU_FREQ/(cycles_per_loop * 1000000))));
   40600:	014003f4 	movhi	r5,15
   40604:	29509004 	addi	r5,r5,16960
   40608:	e13ffd17 	ldw	r4,-12(fp)
   4060c:	004dac40 	call	4dac4 <__mulsi3>
   40610:	100b883a 	mov	r5,r2
   40614:	01017db4 	movhi	r4,1526
   40618:	21384004 	addi	r4,r4,-7936
   4061c:	004da080 	call	4da08 <__udivsi3>
   40620:	e17fff17 	ldw	r5,-4(fp)
   40624:	1009883a 	mov	r4,r2
   40628:	004dac40 	call	4dac4 <__mulsi3>
   4062c:	10bfffc4 	addi	r2,r2,-1
   40630:	103ffe1e 	bne	r2,zero,4062c <__alt_data_end+0xfffc062c>
   40634:	00000d06 	br	4066c <_Z14alt_busy_sleepj+0x140>
      "\n\tbgt %0,zero,0b"
      "\n1:"
      "\n\t.pushsection .debug_alt_sim_info"
      "\n\t.int 4, 0, 0b, 1b"
      "\n\t.popsection"
      :: "r" (us*(ALT_CPU_FREQ/(cycles_per_loop * 1000000))));
   40638:	014003f4 	movhi	r5,15
   4063c:	29509004 	addi	r5,r5,16960
   40640:	e13ffd17 	ldw	r4,-12(fp)
   40644:	004dac40 	call	4dac4 <__mulsi3>
   40648:	100b883a 	mov	r5,r2
   4064c:	01017db4 	movhi	r4,1526
   40650:	21384004 	addi	r4,r4,-7936
   40654:	004da080 	call	4da08 <__udivsi3>
   40658:	e17fff17 	ldw	r5,-4(fp)
   4065c:	1009883a 	mov	r4,r2
   40660:	004dac40 	call	4dac4 <__mulsi3>
   40664:	10bfffc4 	addi	r2,r2,-1
   40668:	00bffe16 	blt	zero,r2,40664 <__alt_data_end+0xfffc0664>
  }
#endif /* #ifndef ALT_SIM_OPTIMIZE */
  return 0;
   4066c:	0005883a 	mov	r2,zero
}
   40670:	e037883a 	mov	sp,fp
   40674:	dfc00117 	ldw	ra,4(sp)
   40678:	df000017 	ldw	fp,0(sp)
   4067c:	dec00204 	addi	sp,sp,8
   40680:	f800283a 	ret

00040684 <_Z5delaym>:

void delay(uint32_t a) {
   40684:	defffc04 	addi	sp,sp,-16
   40688:	dfc00315 	stw	ra,12(sp)
   4068c:	df000215 	stw	fp,8(sp)
   40690:	df000204 	addi	fp,sp,8
   40694:	e13fff15 	stw	r4,-4(fp)
//	alt_busy_sleep(1000*a);
	clock_t start = clock();
   40698:	004f5e40 	call	4f5e4 <clock>
   4069c:	e0bffe15 	stw	r2,-8(fp)
	while (clock() - start < a) {}
   406a0:	004f5e40 	call	4f5e4 <clock>
   406a4:	1007883a 	mov	r3,r2
   406a8:	e0bffe17 	ldw	r2,-8(fp)
   406ac:	1887c83a 	sub	r3,r3,r2
   406b0:	e0bfff17 	ldw	r2,-4(fp)
   406b4:	1885803a 	cmpltu	r2,r3,r2
   406b8:	10803fcc 	andi	r2,r2,255
   406bc:	10000126 	beq	r2,zero,406c4 <_Z5delaym+0x40>
   406c0:	003ff706 	br	406a0 <__alt_data_end+0xfffc06a0>
}
   406c4:	0001883a 	nop
   406c8:	e037883a 	mov	sp,fp
   406cc:	dfc00117 	ldw	ra,4(sp)
   406d0:	df000017 	ldw	fp,0(sp)
   406d4:	dec00204 	addi	sp,sp,8
   406d8:	f800283a 	ret

000406dc <_Z6millisv>:
uint32_t millis() {
   406dc:	defffe04 	addi	sp,sp,-8
   406e0:	dfc00115 	stw	ra,4(sp)
   406e4:	df000015 	stw	fp,0(sp)
   406e8:	d839883a 	mov	fp,sp
	return (uint32_t) clock();
   406ec:	004f5e40 	call	4f5e4 <clock>
}
   406f0:	e037883a 	mov	sp,fp
   406f4:	dfc00117 	ldw	ra,4(sp)
   406f8:	df000017 	ldw	fp,0(sp)
   406fc:	dec00204 	addi	sp,sp,8
   40700:	f800283a 	ret

00040704 <_ZN3USBC1Ev>:

static uint8_t usb_error = 0;
static uint8_t usb_task_state;

/* constructor */
USB::USB() : bmHubPre(0) {
   40704:	defffd04 	addi	sp,sp,-12
   40708:	dfc00215 	stw	ra,8(sp)
   4070c:	df000115 	stw	fp,4(sp)
   40710:	df000104 	addi	fp,sp,4
   40714:	e13fff15 	stw	r4,-4(fp)
   40718:	e13fff17 	ldw	r4,-4(fp)
   4071c:	00499a40 	call	499a4 <_ZN8MAX3421eC1Ev>
   40720:	e0bfff17 	ldw	r2,-4(fp)
   40724:	1009883a 	mov	r4,r2
   40728:	0042c700 	call	42c70 <_ZN15AddressPoolImplILh16EEC1Ev>
   4072c:	e0bfff17 	ldw	r2,-4(fp)
   40730:	10002e05 	stb	zero,184(r2)
        usb_task_state = USB_DETACHED_SUBSTATE_INITIALIZE; //set up state machine
   40734:	00800444 	movi	r2,17
   40738:	d0b24145 	stb	r2,-14075(gp)
        init();
   4073c:	e13fff17 	ldw	r4,-4(fp)
   40740:	004075c0 	call	4075c <_ZN3USB4initEv>
}
   40744:	0001883a 	nop
   40748:	e037883a 	mov	sp,fp
   4074c:	dfc00117 	ldw	ra,4(sp)
   40750:	df000017 	ldw	fp,0(sp)
   40754:	dec00204 	addi	sp,sp,8
   40758:	f800283a 	ret

0004075c <_ZN3USB4initEv>:

/* Initialize data structures */
void USB::init() {
   4075c:	defffe04 	addi	sp,sp,-8
   40760:	df000115 	stw	fp,4(sp)
   40764:	df000104 	addi	fp,sp,4
   40768:	e13fff15 	stw	r4,-4(fp)
        //devConfigIndex = 0;
        bmHubPre = 0;
   4076c:	e0bfff17 	ldw	r2,-4(fp)
   40770:	10002e05 	stb	zero,184(r2)
}
   40774:	0001883a 	nop
   40778:	e037883a 	mov	sp,fp
   4077c:	df000017 	ldw	fp,0(sp)
   40780:	dec00104 	addi	sp,sp,4
   40784:	f800283a 	ret

00040788 <_ZN3USB15getUsbTaskStateEv>:

uint8_t USB::getUsbTaskState(void) {
   40788:	defffe04 	addi	sp,sp,-8
   4078c:	df000115 	stw	fp,4(sp)
   40790:	df000104 	addi	fp,sp,4
   40794:	e13fff15 	stw	r4,-4(fp)
        return ( usb_task_state);
   40798:	d0b24143 	ldbu	r2,-14075(gp)
}
   4079c:	e037883a 	mov	sp,fp
   407a0:	df000017 	ldw	fp,0(sp)
   407a4:	dec00104 	addi	sp,sp,4
   407a8:	f800283a 	ret

000407ac <_ZN3USB15setUsbTaskStateEh>:

void USB::setUsbTaskState(uint8_t state) {
   407ac:	defffd04 	addi	sp,sp,-12
   407b0:	df000215 	stw	fp,8(sp)
   407b4:	df000204 	addi	fp,sp,8
   407b8:	e13ffe15 	stw	r4,-8(fp)
   407bc:	2805883a 	mov	r2,r5
   407c0:	e0bfff05 	stb	r2,-4(fp)
        usb_task_state = state;
   407c4:	e0bfff03 	ldbu	r2,-4(fp)
   407c8:	d0b24145 	stb	r2,-14075(gp)
}
   407cc:	0001883a 	nop
   407d0:	e037883a 	mov	sp,fp
   407d4:	df000017 	ldw	fp,0(sp)
   407d8:	dec00104 	addi	sp,sp,4
   407dc:	f800283a 	ret

000407e0 <_ZN3USB14getEpInfoEntryEhh>:

EpInfo* USB::getEpInfoEntry(uint8_t addr, uint8_t ep) {
   407e0:	defff804 	addi	sp,sp,-32
   407e4:	dfc00715 	stw	ra,28(sp)
   407e8:	df000615 	stw	fp,24(sp)
   407ec:	df000604 	addi	fp,sp,24
   407f0:	e13ffd15 	stw	r4,-12(fp)
   407f4:	2807883a 	mov	r3,r5
   407f8:	3005883a 	mov	r2,r6
   407fc:	e0fffe05 	stb	r3,-8(fp)
   40800:	e0bfff05 	stb	r2,-4(fp)
        UsbDevice *p = addrPool.GetUsbDevicePtr(addr);
   40804:	e0bffd17 	ldw	r2,-12(fp)
   40808:	e0fffe03 	ldbu	r3,-8(fp)
   4080c:	180b883a 	mov	r5,r3
   40810:	1009883a 	mov	r4,r2
   40814:	0042d3c0 	call	42d3c <_ZN15AddressPoolImplILh16EE15GetUsbDevicePtrEh>
   40818:	e0bffc15 	stw	r2,-16(fp)

        if(!p || !p->epinfo)
   4081c:	e0bffc17 	ldw	r2,-16(fp)
   40820:	10000c26 	beq	r2,zero,40854 <_ZN3USB14getEpInfoEntryEhh+0x74>
   40824:	e0bffc17 	ldw	r2,-16(fp)
   40828:	10c00003 	ldbu	r3,0(r2)
   4082c:	11000043 	ldbu	r4,1(r2)
   40830:	2008923a 	slli	r4,r4,8
   40834:	20c6b03a 	or	r3,r4,r3
   40838:	11000083 	ldbu	r4,2(r2)
   4083c:	2008943a 	slli	r4,r4,16
   40840:	20c6b03a 	or	r3,r4,r3
   40844:	108000c3 	ldbu	r2,3(r2)
   40848:	1004963a 	slli	r2,r2,24
   4084c:	10c4b03a 	or	r2,r2,r3
   40850:	1000021e 	bne	r2,zero,4085c <_ZN3USB14getEpInfoEntryEhh+0x7c>
                return NULL;
   40854:	0005883a 	mov	r2,zero
   40858:	00002106 	br	408e0 <_ZN3USB14getEpInfoEntryEhh+0x100>

        EpInfo *pep = p->epinfo;
   4085c:	e0bffc17 	ldw	r2,-16(fp)
   40860:	10c00003 	ldbu	r3,0(r2)
   40864:	11000043 	ldbu	r4,1(r2)
   40868:	2008923a 	slli	r4,r4,8
   4086c:	20c6b03a 	or	r3,r4,r3
   40870:	11000083 	ldbu	r4,2(r2)
   40874:	2008943a 	slli	r4,r4,16
   40878:	20c6b03a 	or	r3,r4,r3
   4087c:	108000c3 	ldbu	r2,3(r2)
   40880:	1004963a 	slli	r2,r2,24
   40884:	10c4b03a 	or	r2,r2,r3
   40888:	e0bffa15 	stw	r2,-24(fp)

        for(uint8_t i = 0; i < p->epcount; i++) {
   4088c:	e03ffb05 	stb	zero,-20(fp)
   40890:	e0bffc17 	ldw	r2,-16(fp)
   40894:	10800143 	ldbu	r2,5(r2)
   40898:	10803fcc 	andi	r2,r2,255
   4089c:	e0fffb03 	ldbu	r3,-20(fp)
   408a0:	18800e2e 	bgeu	r3,r2,408dc <_ZN3USB14getEpInfoEntryEhh+0xfc>
                if((pep)->epAddr == ep)
   408a4:	e0bffa17 	ldw	r2,-24(fp)
   408a8:	10800003 	ldbu	r2,0(r2)
   408ac:	10c03fcc 	andi	r3,r2,255
   408b0:	e0bfff03 	ldbu	r2,-4(fp)
   408b4:	1880021e 	bne	r3,r2,408c0 <_ZN3USB14getEpInfoEntryEhh+0xe0>
                        return pep;
   408b8:	e0bffa17 	ldw	r2,-24(fp)
   408bc:	00000806 	br	408e0 <_ZN3USB14getEpInfoEntryEhh+0x100>

                pep++;
   408c0:	e0bffa17 	ldw	r2,-24(fp)
   408c4:	108000c4 	addi	r2,r2,3
   408c8:	e0bffa15 	stw	r2,-24(fp)
        if(!p || !p->epinfo)
                return NULL;

        EpInfo *pep = p->epinfo;

        for(uint8_t i = 0; i < p->epcount; i++) {
   408cc:	e0bffb03 	ldbu	r2,-20(fp)
   408d0:	10800044 	addi	r2,r2,1
   408d4:	e0bffb05 	stb	r2,-20(fp)
   408d8:	003fed06 	br	40890 <__alt_data_end+0xfffc0890>
                if((pep)->epAddr == ep)
                        return pep;

                pep++;
        }
        return NULL;
   408dc:	0005883a 	mov	r2,zero
}
   408e0:	e037883a 	mov	sp,fp
   408e4:	dfc00117 	ldw	ra,4(sp)
   408e8:	df000017 	ldw	fp,0(sp)
   408ec:	dec00204 	addi	sp,sp,8
   408f0:	f800283a 	ret

000408f4 <_ZN3USB14setEpInfoEntryEhhP6EpInfo>:

/* set device table entry */

/* each device is different and has different number of endpoints. This function plugs endpoint record structure, defined in application, to devtable */
uint8_t USB::setEpInfoEntry(uint8_t addr, uint8_t epcount, EpInfo* eprecord_ptr) {
   408f4:	defff904 	addi	sp,sp,-28
   408f8:	dfc00615 	stw	ra,24(sp)
   408fc:	df000515 	stw	fp,20(sp)
   40900:	df000504 	addi	fp,sp,20
   40904:	e13ffc15 	stw	r4,-16(fp)
   40908:	2807883a 	mov	r3,r5
   4090c:	3005883a 	mov	r2,r6
   40910:	e1ffff15 	stw	r7,-4(fp)
   40914:	e0fffd05 	stb	r3,-12(fp)
   40918:	e0bffe05 	stb	r2,-8(fp)
        if(!eprecord_ptr)
   4091c:	e0bfff17 	ldw	r2,-4(fp)
   40920:	1000021e 	bne	r2,zero,4092c <_ZN3USB14setEpInfoEntryEhhP6EpInfo+0x38>
                return USB_ERROR_INVALID_ARGUMENT;
   40924:	00bff604 	movi	r2,-40
   40928:	00003406 	br	409fc <_ZN3USB14setEpInfoEntryEhhP6EpInfo+0x108>

        UsbDevice *p = addrPool.GetUsbDevicePtr(addr);
   4092c:	e0bffc17 	ldw	r2,-16(fp)
   40930:	e0fffd03 	ldbu	r3,-12(fp)
   40934:	180b883a 	mov	r5,r3
   40938:	1009883a 	mov	r4,r2
   4093c:	0042d3c0 	call	42d3c <_ZN15AddressPoolImplILh16EE15GetUsbDevicePtrEh>
   40940:	e0bffb15 	stw	r2,-20(fp)

        if(!p)
   40944:	e0bffb17 	ldw	r2,-20(fp)
   40948:	1000021e 	bne	r2,zero,40954 <_ZN3USB14setEpInfoEntryEhhP6EpInfo+0x60>
                return USB_ERROR_ADDRESS_NOT_FOUND_IN_POOL;
   4094c:	00bff584 	movi	r2,-42
   40950:	00002a06 	br	409fc <_ZN3USB14setEpInfoEntryEhhP6EpInfo+0x108>

        p->address.devAddress = addr;
   40954:	e0bffb17 	ldw	r2,-20(fp)
   40958:	e0fffd03 	ldbu	r3,-12(fp)
   4095c:	10c00105 	stb	r3,4(r2)
        p->epinfo = eprecord_ptr;
   40960:	e0bffb17 	ldw	r2,-20(fp)
   40964:	e0ffff17 	ldw	r3,-4(fp)
   40968:	19403fcc 	andi	r5,r3,255
   4096c:	10c00003 	ldbu	r3,0(r2)
   40970:	1806703a 	and	r3,r3,zero
   40974:	1809883a 	mov	r4,r3
   40978:	2807883a 	mov	r3,r5
   4097c:	20c6b03a 	or	r3,r4,r3
   40980:	10c00005 	stb	r3,0(r2)
   40984:	e0ffff17 	ldw	r3,-4(fp)
   40988:	1806d23a 	srli	r3,r3,8
   4098c:	19403fcc 	andi	r5,r3,255
   40990:	10c00043 	ldbu	r3,1(r2)
   40994:	1806703a 	and	r3,r3,zero
   40998:	1809883a 	mov	r4,r3
   4099c:	2807883a 	mov	r3,r5
   409a0:	20c6b03a 	or	r3,r4,r3
   409a4:	10c00045 	stb	r3,1(r2)
   409a8:	e0ffff17 	ldw	r3,-4(fp)
   409ac:	1806d43a 	srli	r3,r3,16
   409b0:	19403fcc 	andi	r5,r3,255
   409b4:	10c00083 	ldbu	r3,2(r2)
   409b8:	1806703a 	and	r3,r3,zero
   409bc:	1809883a 	mov	r4,r3
   409c0:	2807883a 	mov	r3,r5
   409c4:	20c6b03a 	or	r3,r4,r3
   409c8:	10c00085 	stb	r3,2(r2)
   409cc:	e0ffff17 	ldw	r3,-4(fp)
   409d0:	180ad63a 	srli	r5,r3,24
   409d4:	10c000c3 	ldbu	r3,3(r2)
   409d8:	1806703a 	and	r3,r3,zero
   409dc:	1809883a 	mov	r4,r3
   409e0:	2807883a 	mov	r3,r5
   409e4:	20c6b03a 	or	r3,r4,r3
   409e8:	10c000c5 	stb	r3,3(r2)
        p->epcount = epcount;
   409ec:	e0bffb17 	ldw	r2,-20(fp)
   409f0:	e0fffe03 	ldbu	r3,-8(fp)
   409f4:	10c00145 	stb	r3,5(r2)

        return 0;
   409f8:	0005883a 	mov	r2,zero
}
   409fc:	e037883a 	mov	sp,fp
   40a00:	dfc00117 	ldw	ra,4(sp)
   40a04:	df000017 	ldw	fp,0(sp)
   40a08:	dec00204 	addi	sp,sp,8
   40a0c:	f800283a 	ret

00040a10 <_ZN3USB10SetAddressEhhPP6EpInfoPt>:

uint8_t USB::SetAddress(uint8_t addr, uint8_t ep, EpInfo **ppep, uint16_t *nak_limit) {
   40a10:	defff804 	addi	sp,sp,-32
   40a14:	dfc00715 	stw	ra,28(sp)
   40a18:	df000615 	stw	fp,24(sp)
   40a1c:	df000604 	addi	fp,sp,24
   40a20:	e13ffc15 	stw	r4,-16(fp)
   40a24:	2807883a 	mov	r3,r5
   40a28:	3005883a 	mov	r2,r6
   40a2c:	e1ffff15 	stw	r7,-4(fp)
   40a30:	e0fffd05 	stb	r3,-12(fp)
   40a34:	e0bffe05 	stb	r2,-8(fp)
        UsbDevice *p = addrPool.GetUsbDevicePtr(addr);
   40a38:	e0bffc17 	ldw	r2,-16(fp)
   40a3c:	e0fffd03 	ldbu	r3,-12(fp)
   40a40:	180b883a 	mov	r5,r3
   40a44:	1009883a 	mov	r4,r2
   40a48:	0042d3c0 	call	42d3c <_ZN15AddressPoolImplILh16EE15GetUsbDevicePtrEh>
   40a4c:	e0bffa15 	stw	r2,-24(fp)

        if(!p)
   40a50:	e0bffa17 	ldw	r2,-24(fp)
   40a54:	1000021e 	bne	r2,zero,40a60 <_ZN3USB10SetAddressEhhPP6EpInfoPt+0x50>
                return USB_ERROR_ADDRESS_NOT_FOUND_IN_POOL;
   40a58:	00bff584 	movi	r2,-42
   40a5c:	00004a06 	br	40b88 <_ZN3USB10SetAddressEhhPP6EpInfoPt+0x178>

        if(!p->epinfo)
   40a60:	e0bffa17 	ldw	r2,-24(fp)
   40a64:	10c00003 	ldbu	r3,0(r2)
   40a68:	11000043 	ldbu	r4,1(r2)
   40a6c:	2008923a 	slli	r4,r4,8
   40a70:	20c6b03a 	or	r3,r4,r3
   40a74:	11000083 	ldbu	r4,2(r2)
   40a78:	2008943a 	slli	r4,r4,16
   40a7c:	20c6b03a 	or	r3,r4,r3
   40a80:	108000c3 	ldbu	r2,3(r2)
   40a84:	1004963a 	slli	r2,r2,24
   40a88:	10c4b03a 	or	r2,r2,r3
   40a8c:	1000021e 	bne	r2,zero,40a98 <_ZN3USB10SetAddressEhhPP6EpInfoPt+0x88>
                return USB_ERROR_EPINFO_IS_NULL;
   40a90:	00bff5c4 	movi	r2,-41
   40a94:	00003c06 	br	40b88 <_ZN3USB10SetAddressEhhPP6EpInfoPt+0x178>

        *ppep = getEpInfoEntry(addr, ep);
   40a98:	e0bffd03 	ldbu	r2,-12(fp)
   40a9c:	e0fffe03 	ldbu	r3,-8(fp)
   40aa0:	180d883a 	mov	r6,r3
   40aa4:	100b883a 	mov	r5,r2
   40aa8:	e13ffc17 	ldw	r4,-16(fp)
   40aac:	00407e00 	call	407e0 <_ZN3USB14getEpInfoEntryEhh>
   40ab0:	1007883a 	mov	r3,r2
   40ab4:	e0bfff17 	ldw	r2,-4(fp)
   40ab8:	10c00015 	stw	r3,0(r2)

        if(!*ppep)
   40abc:	e0bfff17 	ldw	r2,-4(fp)
   40ac0:	10800017 	ldw	r2,0(r2)
   40ac4:	1000021e 	bne	r2,zero,40ad0 <_ZN3USB10SetAddressEhhPP6EpInfoPt+0xc0>
                return USB_ERROR_EP_NOT_FOUND_IN_TBL;
   40ac8:	00bff6c4 	movi	r2,-37
   40acc:	00002e06 	br	40b88 <_ZN3USB10SetAddressEhhPP6EpInfoPt+0x178>

        *nak_limit = (0x0001UL << (((*ppep)->bmNakPower > USB_NAK_MAX_POWER) ? USB_NAK_MAX_POWER : (*ppep)->bmNakPower));
   40ad0:	e0bfff17 	ldw	r2,-4(fp)
   40ad4:	10800017 	ldw	r2,0(r2)
   40ad8:	10800083 	ldbu	r2,2(r2)
   40adc:	1004d0ba 	srli	r2,r2,2
   40ae0:	10803fcc 	andi	r2,r2,255
   40ae4:	10c00410 	cmplti	r3,r2,16
   40ae8:	1800011e 	bne	r3,zero,40af0 <_ZN3USB10SetAddressEhhPP6EpInfoPt+0xe0>
   40aec:	008003c4 	movi	r2,15
   40af0:	00c00044 	movi	r3,1
   40af4:	1884983a 	sll	r2,r3,r2
   40af8:	1007883a 	mov	r3,r2
   40afc:	e0800217 	ldw	r2,8(fp)
   40b00:	10c0000d 	sth	r3,0(r2)
        (*nak_limit)--;
   40b04:	e0800217 	ldw	r2,8(fp)
   40b08:	1080000b 	ldhu	r2,0(r2)
   40b0c:	10bfffc4 	addi	r2,r2,-1
   40b10:	1007883a 	mov	r3,r2
   40b14:	e0800217 	ldw	r2,8(fp)
   40b18:	10c0000d 	sth	r3,0(r2)
          USBTRACE2(" EP: ", ep);
          USBTRACE2(" NAK Power: ",(*ppep)->bmNakPower);
          USBTRACE2(" NAK Limit: ", nak_limit);
          USBTRACE("\r\n");
         */
        regWr(rPERADDR, addr); //set peripheral address
   40b1c:	e0bffd03 	ldbu	r2,-12(fp)
   40b20:	100d883a 	mov	r6,r2
   40b24:	01403804 	movi	r5,224
   40b28:	e13ffc17 	ldw	r4,-16(fp)
   40b2c:	0049a040 	call	49a04 <_ZN8MAX3421e5regWrEhh>

        uint8_t mode = regRd(rMODE);
   40b30:	01403604 	movi	r5,216
   40b34:	e13ffc17 	ldw	r4,-16(fp)
   40b38:	0049c300 	call	49c30 <_ZN8MAX3421e5regRdEh>
   40b3c:	e0bffb05 	stb	r2,-20(fp)
        //Serial.println(p->lowspeed, HEX);



        // Set bmLOWSPEED and bmHUBPRE in case of low-speed device, reset them otherwise
        regWr(rMODE, (p->lowspeed) ? mode | bmLOWSPEED | bmHubPre : mode & ~(bmHUBPRE | bmLOWSPEED));
   40b40:	e0bffa17 	ldw	r2,-24(fp)
   40b44:	10800183 	ldbu	r2,6(r2)
   40b48:	10803fcc 	andi	r2,r2,255
   40b4c:	10000726 	beq	r2,zero,40b6c <_ZN3USB10SetAddressEhhPP6EpInfoPt+0x15c>
   40b50:	e0bffc17 	ldw	r2,-16(fp)
   40b54:	10c02e03 	ldbu	r3,184(r2)
   40b58:	e0bffb03 	ldbu	r2,-20(fp)
   40b5c:	1884b03a 	or	r2,r3,r2
   40b60:	10800094 	ori	r2,r2,2
   40b64:	10803fcc 	andi	r2,r2,255
   40b68:	00000206 	br	40b74 <_ZN3USB10SetAddressEhhPP6EpInfoPt+0x164>
   40b6c:	e0bffb03 	ldbu	r2,-20(fp)
   40b70:	10803e4c 	andi	r2,r2,249
   40b74:	100d883a 	mov	r6,r2
   40b78:	01403604 	movi	r5,216
   40b7c:	e13ffc17 	ldw	r4,-16(fp)
   40b80:	0049a040 	call	49a04 <_ZN8MAX3421e5regWrEhh>

        return 0;
   40b84:	0005883a 	mov	r2,zero
}
   40b88:	e037883a 	mov	sp,fp
   40b8c:	dfc00117 	ldw	ra,4(sp)
   40b90:	df000017 	ldw	fp,0(sp)
   40b94:	dec00204 	addi	sp,sp,8
   40b98:	f800283a 	ret

00040b9c <_ZN3USB7ctrlReqEhhhhhhtttPhP13USBReadParser>:
/* return codes:                */
/* 00       =   success         */

/* 01-0f    =   non-zero HRSLT  */
uint8_t USB::ctrlReq(uint8_t addr, uint8_t ep, uint8_t bmReqType, uint8_t bRequest, uint8_t wValLo, uint8_t wValHi,
        uint16_t wInd, uint16_t total, uint16_t nbytes, uint8_t* dataptr, USBReadParser *p) {
   40b9c:	deffeb04 	addi	sp,sp,-84
   40ba0:	dfc01415 	stw	ra,80(sp)
   40ba4:	df001315 	stw	fp,76(sp)
   40ba8:	dc001215 	stw	r16,72(sp)
   40bac:	df001304 	addi	fp,sp,76
   40bb0:	e13ff515 	stw	r4,-44(fp)
   40bb4:	2815883a 	mov	r10,r5
   40bb8:	3013883a 	mov	r9,r6
   40bbc:	3811883a 	mov	r8,r7
   40bc0:	e1c00217 	ldw	r7,8(fp)
   40bc4:	e1800317 	ldw	r6,12(fp)
   40bc8:	e1400417 	ldw	r5,16(fp)
   40bcc:	e1000517 	ldw	r4,20(fp)
   40bd0:	e0c00617 	ldw	r3,24(fp)
   40bd4:	e0800717 	ldw	r2,28(fp)
   40bd8:	e2bff605 	stb	r10,-40(fp)
   40bdc:	e27ff705 	stb	r9,-36(fp)
   40be0:	e23ff805 	stb	r8,-32(fp)
   40be4:	e1fff905 	stb	r7,-28(fp)
   40be8:	e1bffa05 	stb	r6,-24(fp)
   40bec:	e17ffb05 	stb	r5,-20(fp)
   40bf0:	e13ffc0d 	sth	r4,-16(fp)
   40bf4:	e0fffd0d 	sth	r3,-12(fp)
   40bf8:	e0bffe0d 	sth	r2,-8(fp)
        bool direction = false; //request direction, IN or OUT
   40bfc:	e03ff005 	stb	zero,-64(fp)
        uint8_t rcode;
        SETUP_PKT setup_pkt;

        EpInfo *pep = NULL;
   40c00:	e03ff315 	stw	zero,-52(fp)
        uint16_t nak_limit = 0;
   40c04:	e03ff40d 	sth	zero,-48(fp)

        rcode = SetAddress(addr, ep, &pep, &nak_limit);
   40c08:	e0fff603 	ldbu	r3,-40(fp)
   40c0c:	e13ff703 	ldbu	r4,-36(fp)
   40c10:	e17ff304 	addi	r5,fp,-52
   40c14:	e0bff404 	addi	r2,fp,-48
   40c18:	d8800015 	stw	r2,0(sp)
   40c1c:	280f883a 	mov	r7,r5
   40c20:	200d883a 	mov	r6,r4
   40c24:	180b883a 	mov	r5,r3
   40c28:	e13ff517 	ldw	r4,-44(fp)
   40c2c:	0040a100 	call	40a10 <_ZN3USB10SetAddressEhhPP6EpInfoPt>
   40c30:	e0bfef05 	stb	r2,-68(fp)

        if(rcode)
   40c34:	e0bfef03 	ldbu	r2,-68(fp)
   40c38:	10000226 	beq	r2,zero,40c44 <_ZN3USB7ctrlReqEhhhhhhtttPhP13USBReadParser+0xa8>
                return rcode;
   40c3c:	e0bfef03 	ldbu	r2,-68(fp)
   40c40:	00009406 	br	40e94 <_ZN3USB7ctrlReqEhhhhhhtttPhP13USBReadParser+0x2f8>

        direction = ((bmReqType & 0x80) > 0);
   40c44:	e0bff803 	ldbu	r2,-32(fp)
   40c48:	1080200c 	andi	r2,r2,128
   40c4c:	0084803a 	cmplt	r2,zero,r2
   40c50:	e0bff005 	stb	r2,-64(fp)

        /* fill in setup packet */
        setup_pkt.ReqType_u.bmRequestType = bmReqType;
   40c54:	e0bff803 	ldbu	r2,-32(fp)
   40c58:	e0bff105 	stb	r2,-60(fp)
        setup_pkt.bRequest = bRequest;
   40c5c:	e0bff903 	ldbu	r2,-28(fp)
   40c60:	e0bff145 	stb	r2,-59(fp)
        setup_pkt.wVal_u.wValueLo = wValLo;
   40c64:	e0bffa03 	ldbu	r2,-24(fp)
   40c68:	e0bff185 	stb	r2,-58(fp)
        setup_pkt.wVal_u.wValueHi = wValHi;
   40c6c:	e0bffb03 	ldbu	r2,-20(fp)
   40c70:	e0bff1c5 	stb	r2,-57(fp)
        setup_pkt.wIndex = wInd;
   40c74:	e0bffc0b 	ldhu	r2,-16(fp)
   40c78:	e0bff20d 	sth	r2,-56(fp)
        setup_pkt.wLength = total;
   40c7c:	e0bffd0b 	ldhu	r2,-12(fp)
   40c80:	e0bff28d 	sth	r2,-54(fp)

        bytesWr(rSUDFIFO, 8, (uint8_t*) & setup_pkt); //transfer to setup packet FIFO
   40c84:	e0bff104 	addi	r2,fp,-60
   40c88:	100f883a 	mov	r7,r2
   40c8c:	01800204 	movi	r6,8
   40c90:	01400804 	movi	r5,32
   40c94:	e13ff517 	ldw	r4,-44(fp)
   40c98:	0049a8c0 	call	49a8c <_ZN8MAX3421e7bytesWrEhhPh>

        rcode = dispatchPkt(tokSETUP, ep, nak_limit); //dispatch packet
   40c9c:	e0bff703 	ldbu	r2,-36(fp)
   40ca0:	e0fff40b 	ldhu	r3,-48(fp)
   40ca4:	18ffffcc 	andi	r3,r3,65535
   40ca8:	180f883a 	mov	r7,r3
   40cac:	100d883a 	mov	r6,r2
   40cb0:	01400404 	movi	r5,16
   40cb4:	e13ff517 	ldw	r4,-44(fp)
   40cb8:	004169c0 	call	4169c <_ZN3USB11dispatchPktEhht>
   40cbc:	e0bfef05 	stb	r2,-68(fp)

        if(rcode) //return HRSLT if not zero
   40cc0:	e0bfef03 	ldbu	r2,-68(fp)
   40cc4:	10000226 	beq	r2,zero,40cd0 <_ZN3USB7ctrlReqEhhhhhhtttPhP13USBReadParser+0x134>
                return ( rcode);
   40cc8:	e0bfef03 	ldbu	r2,-68(fp)
   40ccc:	00007106 	br	40e94 <_ZN3USB7ctrlReqEhhhhhhtttPhP13USBReadParser+0x2f8>

        if(dataptr != NULL) //data stage, if present
   40cd0:	e0800817 	ldw	r2,32(fp)
   40cd4:	10006226 	beq	r2,zero,40e60 <_ZN3USB7ctrlReqEhhhhhhtttPhP13USBReadParser+0x2c4>
        {
                if(direction) //IN transfer
   40cd8:	e0bff003 	ldbu	r2,-64(fp)
   40cdc:	10004a26 	beq	r2,zero,40e08 <_ZN3USB7ctrlReqEhhhhhhtttPhP13USBReadParser+0x26c>
                {
                        uint16_t left = total;
   40ce0:	e0bffd0b 	ldhu	r2,-12(fp)
   40ce4:	e0bfef8d 	sth	r2,-66(fp)

                        pep->bmRcvToggle = 1; //bmRCVTOG1;
   40ce8:	e0bff317 	ldw	r2,-52(fp)
   40cec:	10c00083 	ldbu	r3,2(r2)
   40cf0:	18c00094 	ori	r3,r3,2
   40cf4:	10c00085 	stb	r3,2(r2)

                        while(left) {
   40cf8:	e0bfef8b 	ldhu	r2,-66(fp)
   40cfc:	10005426 	beq	r2,zero,40e50 <_ZN3USB7ctrlReqEhhhhhhtttPhP13USBReadParser+0x2b4>
                                // Bytes read into buffer
#if defined(ESP8266) || defined(ESP32)
                        yield(); // needed in order to reset the watchdog timer on the ESP8266
#endif
                                uint16_t read = nbytes;
   40d00:	e0bffe0b 	ldhu	r2,-8(fp)
   40d04:	e0bff48d 	sth	r2,-46(fp)
                                //uint16_t read = (left<nbytes) ? left : nbytes;

                                rcode = InTransfer(pep, nak_limit, &read, dataptr);
   40d08:	e0fff317 	ldw	r3,-52(fp)
   40d0c:	e0bff40b 	ldhu	r2,-48(fp)
   40d10:	113fffcc 	andi	r4,r2,65535
   40d14:	e17ff484 	addi	r5,fp,-46
   40d18:	d8000115 	stw	zero,4(sp)
   40d1c:	e0800817 	ldw	r2,32(fp)
   40d20:	d8800015 	stw	r2,0(sp)
   40d24:	280f883a 	mov	r7,r5
   40d28:	200d883a 	mov	r6,r4
   40d2c:	180b883a 	mov	r5,r3
   40d30:	e13ff517 	ldw	r4,-44(fp)
   40d34:	0040f940 	call	40f94 <_ZN3USB10InTransferEP6EpInfotPtPhh>
   40d38:	e0bfef05 	stb	r2,-68(fp)
                                if(rcode == hrTOGERR) {
   40d3c:	e0bfef03 	ldbu	r2,-68(fp)
   40d40:	10800198 	cmpnei	r2,r2,6
   40d44:	1000111e 	bne	r2,zero,40d8c <_ZN3USB7ctrlReqEhhhhhhtttPhP13USBReadParser+0x1f0>
                                        // yes, we flip it wrong here so that next time it is actually correct!
                                        pep->bmRcvToggle = (regRd(rHRSL) & bmSNDTOGRD) ? 0 : 1;
   40d48:	e43ff317 	ldw	r16,-52(fp)
   40d4c:	01403e04 	movi	r5,248
   40d50:	e13ff517 	ldw	r4,-44(fp)
   40d54:	0049c300 	call	49c30 <_ZN8MAX3421e5regRdEh>
   40d58:	10803fcc 	andi	r2,r2,255
   40d5c:	1080080c 	andi	r2,r2,32
   40d60:	1005003a 	cmpeq	r2,r2,zero
   40d64:	1080004c 	andi	r2,r2,1
   40d68:	1089883a 	add	r4,r2,r2
   40d6c:	80c00083 	ldbu	r3,2(r16)
   40d70:	00bfff44 	movi	r2,-3
   40d74:	1884703a 	and	r2,r3,r2
   40d78:	1007883a 	mov	r3,r2
   40d7c:	2005883a 	mov	r2,r4
   40d80:	1884b03a 	or	r2,r3,r2
   40d84:	80800085 	stb	r2,2(r16)
   40d88:	003fdb06 	br	40cf8 <__alt_data_end+0xfffc0cf8>
                                        continue;
                                }

                                if(rcode)
   40d8c:	e0bfef03 	ldbu	r2,-68(fp)
   40d90:	10000226 	beq	r2,zero,40d9c <_ZN3USB7ctrlReqEhhhhhhtttPhP13USBReadParser+0x200>
                                        return rcode;
   40d94:	e0bfef03 	ldbu	r2,-68(fp)
   40d98:	00003e06 	br	40e94 <_ZN3USB7ctrlReqEhhhhhhtttPhP13USBReadParser+0x2f8>

                                // Invoke callback function if inTransfer completed successfully and callback function pointer is specified
                                if(!rcode && p)
   40d9c:	e0bfef03 	ldbu	r2,-68(fp)
   40da0:	1000101e 	bne	r2,zero,40de4 <_ZN3USB7ctrlReqEhhhhhhtttPhP13USBReadParser+0x248>
   40da4:	e0800917 	ldw	r2,36(fp)
   40da8:	10000e26 	beq	r2,zero,40de4 <_ZN3USB7ctrlReqEhhhhhhtttPhP13USBReadParser+0x248>
                                        ((USBReadParser*)p)->Parse(read, dataptr, total - left);
   40dac:	e0800917 	ldw	r2,36(fp)
   40db0:	10800017 	ldw	r2,0(r2)
   40db4:	10800017 	ldw	r2,0(r2)
   40db8:	e0fff48b 	ldhu	r3,-46(fp)
   40dbc:	197fffcc 	andi	r5,r3,65535
   40dc0:	e13ffd0b 	ldhu	r4,-12(fp)
   40dc4:	e0ffef8b 	ldhu	r3,-66(fp)
   40dc8:	20c7c83a 	sub	r3,r4,r3
   40dcc:	e0fff08d 	sth	r3,-62(fp)
   40dd0:	e0fff084 	addi	r3,fp,-62
   40dd4:	180f883a 	mov	r7,r3
   40dd8:	e1800817 	ldw	r6,32(fp)
   40ddc:	e1000917 	ldw	r4,36(fp)
   40de0:	103ee83a 	callr	r2

                                left -= read;
   40de4:	e0bff48b 	ldhu	r2,-46(fp)
   40de8:	e0ffef8b 	ldhu	r3,-66(fp)
   40dec:	1885c83a 	sub	r2,r3,r2
   40df0:	e0bfef8d 	sth	r2,-66(fp)

                                if(read < nbytes)
   40df4:	e0bff48b 	ldhu	r2,-46(fp)
   40df8:	10ffffcc 	andi	r3,r2,65535
   40dfc:	e0bffe0b 	ldhu	r2,-8(fp)
   40e00:	18801236 	bltu	r3,r2,40e4c <_ZN3USB7ctrlReqEhhhhhhtttPhP13USBReadParser+0x2b0>
                {
                        uint16_t left = total;

                        pep->bmRcvToggle = 1; //bmRCVTOG1;

                        while(left) {
   40e04:	003fbc06 	br	40cf8 <__alt_data_end+0xfffc0cf8>
                                if(read < nbytes)
                                        break;
                        }
                } else //OUT transfer
                {
                        pep->bmSndToggle = 1; //bmSNDTOG1;
   40e08:	e0bff317 	ldw	r2,-52(fp)
   40e0c:	10c00083 	ldbu	r3,2(r2)
   40e10:	18c00054 	ori	r3,r3,1
   40e14:	10c00085 	stb	r3,2(r2)
                        rcode = OutTransfer(pep, nak_limit, nbytes, dataptr);
   40e18:	e0fff317 	ldw	r3,-52(fp)
   40e1c:	e0bff40b 	ldhu	r2,-48(fp)
   40e20:	113fffcc 	andi	r4,r2,65535
   40e24:	e17ffe0b 	ldhu	r5,-8(fp)
   40e28:	e0800817 	ldw	r2,32(fp)
   40e2c:	d8800015 	stw	r2,0(sp)
   40e30:	280f883a 	mov	r7,r5
   40e34:	200d883a 	mov	r6,r4
   40e38:	180b883a 	mov	r5,r3
   40e3c:	e13ff517 	ldw	r4,-44(fp)
   40e40:	00412f00 	call	412f0 <_ZN3USB11OutTransferEP6EpInfottPh>
   40e44:	e0bfef05 	stb	r2,-68(fp)
   40e48:	00000106 	br	40e50 <_ZN3USB7ctrlReqEhhhhhhtttPhP13USBReadParser+0x2b4>
                                        ((USBReadParser*)p)->Parse(read, dataptr, total - left);

                                left -= read;

                                if(read < nbytes)
                                        break;
   40e4c:	0001883a 	nop
                } else //OUT transfer
                {
                        pep->bmSndToggle = 1; //bmSNDTOG1;
                        rcode = OutTransfer(pep, nak_limit, nbytes, dataptr);
                }
                if(rcode) //return error
   40e50:	e0bfef03 	ldbu	r2,-68(fp)
   40e54:	10000226 	beq	r2,zero,40e60 <_ZN3USB7ctrlReqEhhhhhhtttPhP13USBReadParser+0x2c4>
                        return ( rcode);
   40e58:	e0bfef03 	ldbu	r2,-68(fp)
   40e5c:	00000d06 	br	40e94 <_ZN3USB7ctrlReqEhhhhhhtttPhP13USBReadParser+0x2f8>
        }
        // Status stage
        return dispatchPkt((direction) ? tokOUTHS : tokINHS, ep, nak_limit); //GET if direction
   40e60:	e0bff003 	ldbu	r2,-64(fp)
   40e64:	10000226 	beq	r2,zero,40e70 <_ZN3USB7ctrlReqEhhhhhhtttPhP13USBReadParser+0x2d4>
   40e68:	00802804 	movi	r2,160
   40e6c:	00000106 	br	40e74 <_ZN3USB7ctrlReqEhhhhhhtttPhP13USBReadParser+0x2d8>
   40e70:	00802004 	movi	r2,128
   40e74:	e0fff703 	ldbu	r3,-36(fp)
   40e78:	e13ff40b 	ldhu	r4,-48(fp)
   40e7c:	213fffcc 	andi	r4,r4,65535
   40e80:	200f883a 	mov	r7,r4
   40e84:	180d883a 	mov	r6,r3
   40e88:	100b883a 	mov	r5,r2
   40e8c:	e13ff517 	ldw	r4,-44(fp)
   40e90:	004169c0 	call	4169c <_ZN3USB11dispatchPktEhht>
}
   40e94:	e6ffff04 	addi	sp,fp,-4
   40e98:	dfc00217 	ldw	ra,8(sp)
   40e9c:	df000117 	ldw	fp,4(sp)
   40ea0:	dc000017 	ldw	r16,0(sp)
   40ea4:	dec00304 	addi	sp,sp,12
   40ea8:	f800283a 	ret

00040eac <_ZN3USB10inTransferEhhPtPhh>:
/* IN transfer to arbitrary endpoint. Assumes PERADDR is set. Handles multiple packets if necessary. Transfers 'nbytes' bytes. */
/* Keep sending INs and writes data to memory area pointed by 'data'                                                           */

/* rcode 0 if no errors. rcode 01-0f is relayed from dispatchPkt(). Rcode f0 means RCVDAVIRQ error,
            fe USB xfer timeout */
uint8_t USB::inTransfer(uint8_t addr, uint8_t ep, uint16_t *nbytesptr, uint8_t* data, uint8_t bInterval /*= 0*/) {
   40eac:	defff404 	addi	sp,sp,-48
   40eb0:	dfc00b15 	stw	ra,44(sp)
   40eb4:	df000a15 	stw	fp,40(sp)
   40eb8:	df000a04 	addi	fp,sp,40
   40ebc:	e13ffb15 	stw	r4,-20(fp)
   40ec0:	2809883a 	mov	r4,r5
   40ec4:	3007883a 	mov	r3,r6
   40ec8:	e1fffe15 	stw	r7,-8(fp)
   40ecc:	e0800317 	ldw	r2,12(fp)
   40ed0:	e13ffc05 	stb	r4,-16(fp)
   40ed4:	e0fffd05 	stb	r3,-12(fp)
   40ed8:	e0bfff05 	stb	r2,-4(fp)
        EpInfo *pep = NULL;
   40edc:	e03ff915 	stw	zero,-28(fp)
        uint16_t nak_limit = 0;
   40ee0:	e03ffa0d 	sth	zero,-24(fp)

        uint8_t rcode = SetAddress(addr, ep, &pep, &nak_limit);
   40ee4:	e0fffc03 	ldbu	r3,-16(fp)
   40ee8:	e13ffd03 	ldbu	r4,-12(fp)
   40eec:	e17ff904 	addi	r5,fp,-28
   40ef0:	e0bffa04 	addi	r2,fp,-24
   40ef4:	d8800015 	stw	r2,0(sp)
   40ef8:	280f883a 	mov	r7,r5
   40efc:	200d883a 	mov	r6,r4
   40f00:	180b883a 	mov	r5,r3
   40f04:	e13ffb17 	ldw	r4,-20(fp)
   40f08:	0040a100 	call	40a10 <_ZN3USB10SetAddressEhhPP6EpInfoPt>
   40f0c:	e0bff805 	stb	r2,-32(fp)

        if(rcode) {
   40f10:	e0bff803 	ldbu	r2,-32(fp)
   40f14:	10000e26 	beq	r2,zero,40f50 <_ZN3USB10inTransferEhhPtPhh+0xa4>
                USBTRACE3("(USB::InTransfer) SetAddress Failed ", rcode, 0x81);
   40f18:	e0bff803 	ldbu	r2,-32(fp)
   40f1c:	01402044 	movi	r5,129
   40f20:	1009883a 	mov	r4,r2
   40f24:	0042dc80 	call	42dc8 <_Z10D_PrintHexIhEvT_i>
                USBTRACE3("(USB::InTransfer) addr requested ", addr, 0x81);
   40f28:	e0bffc03 	ldbu	r2,-16(fp)
   40f2c:	01402044 	movi	r5,129
   40f30:	1009883a 	mov	r4,r2
   40f34:	0042dc80 	call	42dc8 <_Z10D_PrintHexIhEvT_i>
                USBTRACE3("(USB::InTransfer) ep requested ", ep, 0x81);
   40f38:	e0bffd03 	ldbu	r2,-12(fp)
   40f3c:	01402044 	movi	r5,129
   40f40:	1009883a 	mov	r4,r2
   40f44:	0042dc80 	call	42dc8 <_Z10D_PrintHexIhEvT_i>
                return rcode;
   40f48:	e0bff803 	ldbu	r2,-32(fp)
   40f4c:	00000c06 	br	40f80 <_ZN3USB10inTransferEhhPtPhh+0xd4>
        }
        return InTransfer(pep, nak_limit, nbytesptr, data, bInterval);
   40f50:	e0fff917 	ldw	r3,-28(fp)
   40f54:	e0bffa0b 	ldhu	r2,-24(fp)
   40f58:	113fffcc 	andi	r4,r2,65535
   40f5c:	e0bfff03 	ldbu	r2,-4(fp)
   40f60:	d8800115 	stw	r2,4(sp)
   40f64:	e0800217 	ldw	r2,8(fp)
   40f68:	d8800015 	stw	r2,0(sp)
   40f6c:	e1fffe17 	ldw	r7,-8(fp)
   40f70:	200d883a 	mov	r6,r4
   40f74:	180b883a 	mov	r5,r3
   40f78:	e13ffb17 	ldw	r4,-20(fp)
   40f7c:	0040f940 	call	40f94 <_ZN3USB10InTransferEP6EpInfotPtPhh>
}
   40f80:	e037883a 	mov	sp,fp
   40f84:	dfc00117 	ldw	ra,4(sp)
   40f88:	df000017 	ldw	fp,0(sp)
   40f8c:	dec00204 	addi	sp,sp,8
   40f90:	f800283a 	ret

00040f94 <_ZN3USB10InTransferEP6EpInfotPtPhh>:

uint8_t USB::InTransfer(EpInfo *pep, uint16_t nak_limit, uint16_t *nbytesptr, uint8_t* data, uint8_t bInterval /*= 0*/) {
   40f94:	defff704 	addi	sp,sp,-36
   40f98:	dfc00815 	stw	ra,32(sp)
   40f9c:	df000715 	stw	fp,28(sp)
   40fa0:	df000704 	addi	fp,sp,28
   40fa4:	e13ffb15 	stw	r4,-20(fp)
   40fa8:	e17ffc15 	stw	r5,-16(fp)
   40fac:	3007883a 	mov	r3,r6
   40fb0:	e1fffe15 	stw	r7,-8(fp)
   40fb4:	e0800317 	ldw	r2,12(fp)
   40fb8:	e0fffd0d 	sth	r3,-12(fp)
   40fbc:	e0bfff05 	stb	r2,-4(fp)
        uint8_t rcode = 0;
   40fc0:	e03ff905 	stb	zero,-28(fp)
        uint8_t pktsize;

        uint16_t nbytes = *nbytesptr;
   40fc4:	e0bffe17 	ldw	r2,-8(fp)
   40fc8:	1080000b 	ldhu	r2,0(r2)
   40fcc:	e0bffa0d 	sth	r2,-24(fp)
        //printf("Requesting %i bytes ", nbytes);
        uint8_t maxpktsize = pep->maxPktSize;
   40fd0:	e0bffc17 	ldw	r2,-16(fp)
   40fd4:	10800043 	ldbu	r2,1(r2)
   40fd8:	e0bffa85 	stb	r2,-22(fp)

        *nbytesptr = 0;
   40fdc:	e0bffe17 	ldw	r2,-8(fp)
   40fe0:	1000000d 	sth	zero,0(r2)
        regWr(rHCTL, (pep->bmRcvToggle) ? bmRCVTOG1 : bmRCVTOG0); //set toggle value
   40fe4:	e0bffc17 	ldw	r2,-16(fp)
   40fe8:	10800083 	ldbu	r2,2(r2)
   40fec:	1080008c 	andi	r2,r2,2
   40ff0:	10803fcc 	andi	r2,r2,255
   40ff4:	10000226 	beq	r2,zero,41000 <_ZN3USB10InTransferEP6EpInfotPtPhh+0x6c>
   40ff8:	00800804 	movi	r2,32
   40ffc:	00000106 	br	41004 <_ZN3USB10InTransferEP6EpInfotPtPhh+0x70>
   41000:	00800404 	movi	r2,16
   41004:	100d883a 	mov	r6,r2
   41008:	01403a04 	movi	r5,232
   4100c:	e13ffb17 	ldw	r4,-20(fp)
   41010:	0049a040 	call	49a04 <_ZN8MAX3421e5regWrEhh>
        // use a 'break' to exit this loop
        while(1) {
#if defined(ESP8266) || defined(ESP32)
                        yield(); // needed in order to reset the watchdog timer on the ESP8266
#endif
                rcode = dispatchPkt(tokIN, pep->epAddr, nak_limit); //IN packet to EP-'endpoint'. Function takes care of NAKS.
   41014:	e0bffc17 	ldw	r2,-16(fp)
   41018:	10800003 	ldbu	r2,0(r2)
   4101c:	10803fcc 	andi	r2,r2,255
   41020:	e0fffd0b 	ldhu	r3,-12(fp)
   41024:	180f883a 	mov	r7,r3
   41028:	100d883a 	mov	r6,r2
   4102c:	000b883a 	mov	r5,zero
   41030:	e13ffb17 	ldw	r4,-20(fp)
   41034:	004169c0 	call	4169c <_ZN3USB11dispatchPktEhht>
   41038:	e0bff905 	stb	r2,-28(fp)
                if(rcode == hrTOGERR) {
   4103c:	e0bff903 	ldbu	r2,-28(fp)
   41040:	10800198 	cmpnei	r2,r2,6
   41044:	10001e1e 	bne	r2,zero,410c0 <_ZN3USB10InTransferEP6EpInfotPtPhh+0x12c>
                        // yes, we flip it wrong here so that next time it is actually correct!
                        pep->bmRcvToggle = (regRd(rHRSL) & bmRCVTOGRD) ? 0 : 1;
   41048:	01403e04 	movi	r5,248
   4104c:	e13ffb17 	ldw	r4,-20(fp)
   41050:	0049c300 	call	49c30 <_ZN8MAX3421e5regRdEh>
   41054:	10803fcc 	andi	r2,r2,255
   41058:	1080040c 	andi	r2,r2,16
   4105c:	1005003a 	cmpeq	r2,r2,zero
   41060:	1007883a 	mov	r3,r2
   41064:	e0bffc17 	ldw	r2,-16(fp)
   41068:	18c0004c 	andi	r3,r3,1
   4106c:	18cb883a 	add	r5,r3,r3
   41070:	11000083 	ldbu	r4,2(r2)
   41074:	00ffff44 	movi	r3,-3
   41078:	20c6703a 	and	r3,r4,r3
   4107c:	1809883a 	mov	r4,r3
   41080:	2807883a 	mov	r3,r5
   41084:	20c6b03a 	or	r3,r4,r3
   41088:	10c00085 	stb	r3,2(r2)
                        regWr(rHCTL, (pep->bmRcvToggle) ? bmRCVTOG1 : bmRCVTOG0); //set toggle value
   4108c:	e0bffc17 	ldw	r2,-16(fp)
   41090:	10800083 	ldbu	r2,2(r2)
   41094:	1080008c 	andi	r2,r2,2
   41098:	10803fcc 	andi	r2,r2,255
   4109c:	10000226 	beq	r2,zero,410a8 <_ZN3USB10InTransferEP6EpInfotPtPhh+0x114>
   410a0:	00800804 	movi	r2,32
   410a4:	00000106 	br	410ac <_ZN3USB10InTransferEP6EpInfotPtPhh+0x118>
   410a8:	00800404 	movi	r2,16
   410ac:	100d883a 	mov	r6,r2
   410b0:	01403a04 	movi	r5,232
   410b4:	e13ffb17 	ldw	r4,-20(fp)
   410b8:	0049a040 	call	49a04 <_ZN8MAX3421e5regWrEhh>
                        continue;
   410bc:	00005806 	br	41220 <_ZN3USB10InTransferEP6EpInfotPtPhh+0x28c>
                }
                if(rcode) {
   410c0:	e0bff903 	ldbu	r2,-28(fp)
   410c4:	1000571e 	bne	r2,zero,41224 <_ZN3USB10InTransferEP6EpInfotPtPhh+0x290>
                 * the only case when absence of RCVDAVIRQ makes sense is when toggle error occurred.
                 * Need to add handling for that
                 *
                 * NOTE: I've seen this happen with SPI corruption -- xxxajk
                 */
                if((regRd(rHIRQ) & bmRCVDAVIRQ) == 0) {
   410c8:	01403204 	movi	r5,200
   410cc:	e13ffb17 	ldw	r4,-20(fp)
   410d0:	0049c300 	call	49c30 <_ZN8MAX3421e5regRdEh>
   410d4:	10803fcc 	andi	r2,r2,255
   410d8:	1080010c 	andi	r2,r2,4
   410dc:	1005003a 	cmpeq	r2,r2,zero
   410e0:	10803fcc 	andi	r2,r2,255
   410e4:	10000326 	beq	r2,zero,410f4 <_ZN3USB10InTransferEP6EpInfotPtPhh+0x160>
                        //printf(">>>>>>>> Problem! NO RCVDAVIRQ!\r\n");
                        rcode = 0xf0; //receive error
   410e8:	00bffc04 	movi	r2,-16
   410ec:	e0bff905 	stb	r2,-28(fp)
                        break;
   410f0:	00004d06 	br	41228 <_ZN3USB10InTransferEP6EpInfotPtPhh+0x294>
                }
                pktsize = regRd(rRCVBC); //number of received bytes
   410f4:	01400c04 	movi	r5,48
   410f8:	e13ffb17 	ldw	r4,-20(fp)
   410fc:	0049c300 	call	49c30 <_ZN8MAX3421e5regRdEh>
   41100:	e0bff945 	stb	r2,-27(fp)
                //printf("Got %i bytes \r\n", pktsize);
                // This would be OK, but...
                //assert(pktsize <= nbytes);
                if(pktsize > nbytes) {
   41104:	e0bff943 	ldbu	r2,-27(fp)
   41108:	10bfffcc 	andi	r2,r2,65535
   4110c:	e0fffa0b 	ldhu	r3,-24(fp)
   41110:	1880022e 	bgeu	r3,r2,4111c <_ZN3USB10InTransferEP6EpInfotPtPhh+0x188>
                        // This can happen. Use of assert on Arduino locks up the Arduino.
                        // So I will trim the value, and hope for the best.
                        //printf(">>>>>>>> Problem! Wanted %i bytes but got %i.\r\n", nbytes, pktsize);
                        pktsize = nbytes;
   41114:	e0bffa0b 	ldhu	r2,-24(fp)
   41118:	e0bff945 	stb	r2,-27(fp)
                }

                int16_t mem_left = (int16_t)nbytes - *((int16_t*)nbytesptr);
   4111c:	e0bffe17 	ldw	r2,-8(fp)
   41120:	1080000b 	ldhu	r2,0(r2)
   41124:	1007883a 	mov	r3,r2
   41128:	e0bffa0b 	ldhu	r2,-24(fp)
   4112c:	10c5c83a 	sub	r2,r2,r3
   41130:	e0bff98d 	sth	r2,-26(fp)

                if(mem_left < 0)
   41134:	e0bff98f 	ldh	r2,-26(fp)
   41138:	1000010e 	bge	r2,zero,41140 <_ZN3USB10InTransferEP6EpInfotPtPhh+0x1ac>
                        mem_left = 0;
   4113c:	e03ff98d 	sth	zero,-26(fp)

                data = bytesRd(rRCVFIFO, ((pktsize > mem_left) ? mem_left : pktsize), data);
   41140:	e0bff943 	ldbu	r2,-27(fp)
   41144:	e0fff98f 	ldh	r3,-26(fp)
   41148:	1880010e 	bge	r3,r2,41150 <_ZN3USB10InTransferEP6EpInfotPtPhh+0x1bc>
   4114c:	1805883a 	mov	r2,r3
   41150:	10803fcc 	andi	r2,r2,255
   41154:	e1c00217 	ldw	r7,8(fp)
   41158:	100d883a 	mov	r6,r2
   4115c:	01400204 	movi	r5,8
   41160:	e13ffb17 	ldw	r4,-20(fp)
   41164:	0049ca40 	call	49ca4 <_ZN8MAX3421e7bytesRdEhhPh>
   41168:	e0800215 	stw	r2,8(fp)

                regWr(rHIRQ, bmRCVDAVIRQ); // Clear the IRQ & free the buffer
   4116c:	01800104 	movi	r6,4
   41170:	01403204 	movi	r5,200
   41174:	e13ffb17 	ldw	r4,-20(fp)
   41178:	0049a040 	call	49a04 <_ZN8MAX3421e5regWrEhh>
                *nbytesptr += pktsize; // add this packet's byte count to total transfer length
   4117c:	e0bffe17 	ldw	r2,-8(fp)
   41180:	10c0000b 	ldhu	r3,0(r2)
   41184:	e0bff943 	ldbu	r2,-27(fp)
   41188:	1885883a 	add	r2,r3,r2
   4118c:	1007883a 	mov	r3,r2
   41190:	e0bffe17 	ldw	r2,-8(fp)
   41194:	10c0000d 	sth	r3,0(r2)

                /* The transfer is complete under two conditions:           */
                /* 1. The device sent a short packet (L.T. maxPacketSize)   */
                /* 2. 'nbytes' have been transferred.                       */
                if((pktsize < maxpktsize) || (*nbytesptr >= nbytes)) // have we transferred 'nbytes' bytes?
   41198:	e0fff943 	ldbu	r3,-27(fp)
   4119c:	e0bffa83 	ldbu	r2,-22(fp)
   411a0:	18800536 	bltu	r3,r2,411b8 <_ZN3USB10InTransferEP6EpInfotPtPhh+0x224>
   411a4:	e0bffe17 	ldw	r2,-8(fp)
   411a8:	1080000b 	ldhu	r2,0(r2)
   411ac:	10ffffcc 	andi	r3,r2,65535
   411b0:	e0bffa0b 	ldhu	r2,-24(fp)
   411b4:	18801536 	bltu	r3,r2,4120c <_ZN3USB10InTransferEP6EpInfotPtPhh+0x278>
                {
                        // Save toggle value
                        pep->bmRcvToggle = ((regRd(rHRSL) & bmRCVTOGRD)) ? 1 : 0;
   411b8:	01403e04 	movi	r5,248
   411bc:	e13ffb17 	ldw	r4,-20(fp)
   411c0:	0049c300 	call	49c30 <_ZN8MAX3421e5regRdEh>
   411c4:	10803fcc 	andi	r2,r2,255
   411c8:	1080040c 	andi	r2,r2,16
   411cc:	10000226 	beq	r2,zero,411d8 <_ZN3USB10InTransferEP6EpInfotPtPhh+0x244>
   411d0:	00c00044 	movi	r3,1
   411d4:	00000106 	br	411dc <_ZN3USB10InTransferEP6EpInfotPtPhh+0x248>
   411d8:	0007883a 	mov	r3,zero
   411dc:	e0bffc17 	ldw	r2,-16(fp)
   411e0:	18c0004c 	andi	r3,r3,1
   411e4:	18cb883a 	add	r5,r3,r3
   411e8:	11000083 	ldbu	r4,2(r2)
   411ec:	00ffff44 	movi	r3,-3
   411f0:	20c6703a 	and	r3,r4,r3
   411f4:	1809883a 	mov	r4,r3
   411f8:	2807883a 	mov	r3,r5
   411fc:	20c6b03a 	or	r3,r4,r3
   41200:	10c00085 	stb	r3,2(r2)
                        //printf("\r\n");
                        rcode = 0;
   41204:	e03ff905 	stb	zero,-28(fp)
                        break;
   41208:	00000706 	br	41228 <_ZN3USB10InTransferEP6EpInfotPtPhh+0x294>
                } else if(bInterval > 0)
   4120c:	e0bfff03 	ldbu	r2,-4(fp)
   41210:	103f8026 	beq	r2,zero,41014 <__alt_data_end+0xfffc1014>
                        delay(bInterval); // Delay according to polling interval
   41214:	e0bfff03 	ldbu	r2,-4(fp)
   41218:	1009883a 	mov	r4,r2
   4121c:	00406840 	call	40684 <_Z5delaym>

        *nbytesptr = 0;
        regWr(rHCTL, (pep->bmRcvToggle) ? bmRCVTOG1 : bmRCVTOG0); //set toggle value

        // use a 'break' to exit this loop
        while(1) {
   41220:	003f7c06 	br	41014 <__alt_data_end+0xfffc1014>
                        regWr(rHCTL, (pep->bmRcvToggle) ? bmRCVTOG1 : bmRCVTOG0); //set toggle value
                        continue;
                }
                if(rcode) {
                        //printf(">>>>>>>> Problem! dispatchPkt %2.2x\r\n", rcode);
                        break; //should be 0, indicating ACK. Else return error code.
   41224:	0001883a 	nop
                        rcode = 0;
                        break;
                } else if(bInterval > 0)
                        delay(bInterval); // Delay according to polling interval
        } //while( 1 )
        return ( rcode);
   41228:	e0bff903 	ldbu	r2,-28(fp)
}
   4122c:	e037883a 	mov	sp,fp
   41230:	dfc00117 	ldw	ra,4(sp)
   41234:	df000017 	ldw	fp,0(sp)
   41238:	dec00204 	addi	sp,sp,8
   4123c:	f800283a 	ret

00041240 <_ZN3USB11outTransferEhhtPh>:

/* OUT transfer to arbitrary endpoint. Handles multiple packets if necessary. Transfers 'nbytes' bytes. */
/* Handles NAK bug per Maxim Application Note 4000 for single buffer transfer   */

/* rcode 0 if no errors. rcode 01-0f is relayed from HRSL                       */
uint8_t USB::outTransfer(uint8_t addr, uint8_t ep, uint16_t nbytes, uint8_t* data) {
   41240:	defff604 	addi	sp,sp,-40
   41244:	dfc00915 	stw	ra,36(sp)
   41248:	df000815 	stw	fp,32(sp)
   4124c:	df000804 	addi	fp,sp,32
   41250:	e13ffc15 	stw	r4,-16(fp)
   41254:	2809883a 	mov	r4,r5
   41258:	3007883a 	mov	r3,r6
   4125c:	3805883a 	mov	r2,r7
   41260:	e13ffd05 	stb	r4,-12(fp)
   41264:	e0fffe05 	stb	r3,-8(fp)
   41268:	e0bfff0d 	sth	r2,-4(fp)
        EpInfo *pep = NULL;
   4126c:	e03ffa15 	stw	zero,-24(fp)
        uint16_t nak_limit = 0;
   41270:	e03ffb0d 	sth	zero,-20(fp)

        uint8_t rcode = SetAddress(addr, ep, &pep, &nak_limit);
   41274:	e0fffd03 	ldbu	r3,-12(fp)
   41278:	e13ffe03 	ldbu	r4,-8(fp)
   4127c:	e17ffa04 	addi	r5,fp,-24
   41280:	e0bffb04 	addi	r2,fp,-20
   41284:	d8800015 	stw	r2,0(sp)
   41288:	280f883a 	mov	r7,r5
   4128c:	200d883a 	mov	r6,r4
   41290:	180b883a 	mov	r5,r3
   41294:	e13ffc17 	ldw	r4,-16(fp)
   41298:	0040a100 	call	40a10 <_ZN3USB10SetAddressEhhPP6EpInfoPt>
   4129c:	e0bff905 	stb	r2,-28(fp)

        if(rcode)
   412a0:	e0bff903 	ldbu	r2,-28(fp)
   412a4:	10000226 	beq	r2,zero,412b0 <_ZN3USB11outTransferEhhtPh+0x70>
                return rcode;
   412a8:	e0bff903 	ldbu	r2,-28(fp)
   412ac:	00000b06 	br	412dc <_ZN3USB11outTransferEhhtPh+0x9c>

        return OutTransfer(pep, nak_limit, nbytes, data);
   412b0:	e0fffa17 	ldw	r3,-24(fp)
   412b4:	e0bffb0b 	ldhu	r2,-20(fp)
   412b8:	113fffcc 	andi	r4,r2,65535
   412bc:	e17fff0b 	ldhu	r5,-4(fp)
   412c0:	e0800217 	ldw	r2,8(fp)
   412c4:	d8800015 	stw	r2,0(sp)
   412c8:	280f883a 	mov	r7,r5
   412cc:	200d883a 	mov	r6,r4
   412d0:	180b883a 	mov	r5,r3
   412d4:	e13ffc17 	ldw	r4,-16(fp)
   412d8:	00412f00 	call	412f0 <_ZN3USB11OutTransferEP6EpInfottPh>
}
   412dc:	e037883a 	mov	sp,fp
   412e0:	dfc00117 	ldw	ra,4(sp)
   412e4:	df000017 	ldw	fp,0(sp)
   412e8:	dec00204 	addi	sp,sp,8
   412ec:	f800283a 	ret

000412f0 <_ZN3USB11OutTransferEP6EpInfottPh>:

uint8_t USB::OutTransfer(EpInfo *pep, uint16_t nak_limit, uint16_t nbytes, uint8_t *data) {
   412f0:	defff404 	addi	sp,sp,-48
   412f4:	dfc00b15 	stw	ra,44(sp)
   412f8:	df000a15 	stw	fp,40(sp)
   412fc:	df000a04 	addi	fp,sp,40
   41300:	e13ffc15 	stw	r4,-16(fp)
   41304:	e17ffd15 	stw	r5,-12(fp)
   41308:	3007883a 	mov	r3,r6
   4130c:	3805883a 	mov	r2,r7
   41310:	e0fffe0d 	sth	r3,-8(fp)
   41314:	e0bfff0d 	sth	r2,-4(fp)
        uint8_t rcode = hrSUCCESS, retry_count;
   41318:	e03ff605 	stb	zero,-40(fp)
        uint8_t *data_p = data; //local copy of the data pointer
   4131c:	e0800217 	ldw	r2,8(fp)
   41320:	e0bff715 	stw	r2,-36(fp)
        uint16_t bytes_tosend, nak_count;
        uint16_t bytes_left = nbytes;
   41324:	e0bfff0b 	ldhu	r2,-4(fp)
   41328:	e0bff88d 	sth	r2,-30(fp)

        uint8_t maxpktsize = pep->maxPktSize;
   4132c:	e0bffd17 	ldw	r2,-12(fp)
   41330:	10800043 	ldbu	r2,1(r2)
   41334:	e0bff905 	stb	r2,-28(fp)

        if(maxpktsize < 1 || maxpktsize > 64)
   41338:	e0bff903 	ldbu	r2,-28(fp)
   4133c:	10000326 	beq	r2,zero,4134c <_ZN3USB11OutTransferEP6EpInfottPh+0x5c>
   41340:	e0bff903 	ldbu	r2,-28(fp)
   41344:	10801070 	cmpltui	r2,r2,65
   41348:	1000021e 	bne	r2,zero,41354 <_ZN3USB11OutTransferEP6EpInfottPh+0x64>
                return USB_ERROR_INVALID_MAX_PKT_SIZE;
   4134c:	00bff684 	movi	r2,-38
   41350:	0000cd06 	br	41688 <_ZN3USB11OutTransferEP6EpInfottPh+0x398>

        uint32_t timeout = (uint32_t)millis() + USB_XFER_TIMEOUT;
   41354:	00406dc0 	call	406dc <_Z6millisv>
   41358:	1084e204 	addi	r2,r2,5000
   4135c:	e0bffa15 	stw	r2,-24(fp)

        regWr(rHCTL, (pep->bmSndToggle) ? bmSNDTOG1 : bmSNDTOG0); //set toggle value
   41360:	e0bffd17 	ldw	r2,-12(fp)
   41364:	10800083 	ldbu	r2,2(r2)
   41368:	1080004c 	andi	r2,r2,1
   4136c:	10803fcc 	andi	r2,r2,255
   41370:	10000226 	beq	r2,zero,4137c <_ZN3USB11OutTransferEP6EpInfottPh+0x8c>
   41374:	00802004 	movi	r2,128
   41378:	00000106 	br	41380 <_ZN3USB11OutTransferEP6EpInfottPh+0x90>
   4137c:	00801004 	movi	r2,64
   41380:	100d883a 	mov	r6,r2
   41384:	01403a04 	movi	r5,232
   41388:	e13ffc17 	ldw	r4,-16(fp)
   4138c:	0049a040 	call	49a04 <_ZN8MAX3421e5regWrEhh>

        while(bytes_left) {
   41390:	e0bff88b 	ldhu	r2,-30(fp)
   41394:	1000a926 	beq	r2,zero,4163c <_ZN3USB11OutTransferEP6EpInfottPh+0x34c>
#if defined(ESP8266) || defined(ESP32)
                        yield(); // needed in order to reset the watchdog timer on the ESP8266
#endif
                retry_count = 0;
   41398:	e03ff645 	stb	zero,-39(fp)
                nak_count = 0;
   4139c:	e03ff80d 	sth	zero,-32(fp)
                bytes_tosend = (bytes_left >= maxpktsize) ? maxpktsize : bytes_left;
   413a0:	e0bff903 	ldbu	r2,-28(fp)
   413a4:	e17ff88b 	ldhu	r5,-30(fp)
   413a8:	10ffffcc 	andi	r3,r2,65535
   413ac:	293fffcc 	andi	r4,r5,65535
   413b0:	20c0012e 	bgeu	r4,r3,413b8 <_ZN3USB11OutTransferEP6EpInfottPh+0xc8>
   413b4:	2805883a 	mov	r2,r5
   413b8:	e0bffb0d 	sth	r2,-20(fp)
                bytesWr(rSNDFIFO, bytes_tosend, data_p); //filling output FIFO
   413bc:	e0bffb0b 	ldhu	r2,-20(fp)
   413c0:	10803fcc 	andi	r2,r2,255
   413c4:	e1fff717 	ldw	r7,-36(fp)
   413c8:	100d883a 	mov	r6,r2
   413cc:	01400404 	movi	r5,16
   413d0:	e13ffc17 	ldw	r4,-16(fp)
   413d4:	0049a8c0 	call	49a8c <_ZN8MAX3421e7bytesWrEhhPh>
                regWr(rSNDBC, bytes_tosend); //set number of bytes
   413d8:	e0bffb0b 	ldhu	r2,-20(fp)
   413dc:	10803fcc 	andi	r2,r2,255
   413e0:	100d883a 	mov	r6,r2
   413e4:	01400e04 	movi	r5,56
   413e8:	e13ffc17 	ldw	r4,-16(fp)
   413ec:	0049a040 	call	49a04 <_ZN8MAX3421e5regWrEhh>
                regWr(rHXFR, (tokOUT | pep->epAddr)); //dispatch packet
   413f0:	e0bffd17 	ldw	r2,-12(fp)
   413f4:	10800003 	ldbu	r2,0(r2)
   413f8:	10800814 	ori	r2,r2,32
   413fc:	10803fcc 	andi	r2,r2,255
   41400:	100d883a 	mov	r6,r2
   41404:	01403c04 	movi	r5,240
   41408:	e13ffc17 	ldw	r4,-16(fp)
   4140c:	0049a040 	call	49a04 <_ZN8MAX3421e5regWrEhh>
                while(!(regRd(rHIRQ) & bmHXFRDNIRQ)){
   41410:	01403204 	movi	r5,200
   41414:	e13ffc17 	ldw	r4,-16(fp)
   41418:	0049c300 	call	49c30 <_ZN8MAX3421e5regRdEh>
   4141c:	0084303a 	nor	r2,zero,r2
   41420:	10803fcc 	andi	r2,r2,255
   41424:	1004d1fa 	srli	r2,r2,7
   41428:	10803fcc 	andi	r2,r2,255
   4142c:	10000126 	beq	r2,zero,41434 <_ZN3USB11OutTransferEP6EpInfottPh+0x144>
   41430:	003ff706 	br	41410 <__alt_data_end+0xfffc1410>
#if defined(ESP8266) || defined(ESP32)
                        yield(); // needed in order to reset the watchdog timer on the ESP8266
#endif
                } //wait for the completion IRQ
                regWr(rHIRQ, bmHXFRDNIRQ); //clear IRQ
   41434:	01802004 	movi	r6,128
   41438:	01403204 	movi	r5,200
   4143c:	e13ffc17 	ldw	r4,-16(fp)
   41440:	0049a040 	call	49a04 <_ZN8MAX3421e5regWrEhh>
                rcode = (regRd(rHRSL) & 0x0f);
   41444:	01403e04 	movi	r5,248
   41448:	e13ffc17 	ldw	r4,-16(fp)
   4144c:	0049c300 	call	49c30 <_ZN8MAX3421e5regRdEh>
   41450:	108003cc 	andi	r2,r2,15
   41454:	e0bff605 	stb	r2,-40(fp)

                while(rcode && ((int32_t)((uint32_t)millis() - timeout) < 0L)) {
   41458:	e0bff603 	ldbu	r2,-40(fp)
   4145c:	10000726 	beq	r2,zero,4147c <_ZN3USB11OutTransferEP6EpInfottPh+0x18c>
   41460:	00406dc0 	call	406dc <_Z6millisv>
   41464:	1007883a 	mov	r3,r2
   41468:	e0bffa17 	ldw	r2,-24(fp)
   4146c:	1885c83a 	sub	r2,r3,r2
   41470:	1000020e 	bge	r2,zero,4147c <_ZN3USB11OutTransferEP6EpInfottPh+0x18c>
   41474:	00800044 	movi	r2,1
   41478:	00000106 	br	41480 <_ZN3USB11OutTransferEP6EpInfottPh+0x190>
   4147c:	0005883a 	mov	r2,zero
   41480:	10803fcc 	andi	r2,r2,255
   41484:	10006426 	beq	r2,zero,41618 <_ZN3USB11OutTransferEP6EpInfottPh+0x328>
#if defined(ESP8266) || defined(ESP32)
                        yield(); // needed in order to reset the watchdog timer on the ESP8266
#endif
                        switch(rcode) {
   41488:	e0bff603 	ldbu	r2,-40(fp)
   4148c:	10c001a0 	cmpeqi	r3,r2,6
   41490:	1800151e 	bne	r3,zero,414e8 <_ZN3USB11OutTransferEP6EpInfottPh+0x1f8>
   41494:	10c003a0 	cmpeqi	r3,r2,14
   41498:	18000c1e 	bne	r3,zero,414cc <_ZN3USB11OutTransferEP6EpInfottPh+0x1dc>
   4149c:	10800120 	cmpeqi	r2,r2,4
   414a0:	1000011e 	bne	r2,zero,414a8 <_ZN3USB11OutTransferEP6EpInfottPh+0x1b8>
                                        // yes, we flip it wrong here so that next time it is actually correct!
                                        pep->bmSndToggle = (regRd(rHRSL) & bmSNDTOGRD) ? 0 : 1;
                                        regWr(rHCTL, (pep->bmSndToggle) ? bmSNDTOG1 : bmSNDTOG0); //set toggle value
                                        break;
                                default:
                                        goto breakout;
   414a4:	00006506 	br	4163c <_ZN3USB11OutTransferEP6EpInfottPh+0x34c>
#if defined(ESP8266) || defined(ESP32)
                        yield(); // needed in order to reset the watchdog timer on the ESP8266
#endif
                        switch(rcode) {
                                case hrNAK:
                                        nak_count++;
   414a8:	e0bff80b 	ldhu	r2,-32(fp)
   414ac:	10800044 	addi	r2,r2,1
   414b0:	e0bff80d 	sth	r2,-32(fp)
                                        if(nak_limit && (nak_count == nak_limit))
   414b4:	e0bffe0b 	ldhu	r2,-8(fp)
   414b8:	10002826 	beq	r2,zero,4155c <_ZN3USB11OutTransferEP6EpInfottPh+0x26c>
   414bc:	e0fff80b 	ldhu	r3,-32(fp)
   414c0:	e0bffe0b 	ldhu	r2,-8(fp)
   414c4:	1880251e 	bne	r3,r2,4155c <_ZN3USB11OutTransferEP6EpInfottPh+0x26c>
                                                goto breakout;
   414c8:	00005c06 	br	4163c <_ZN3USB11OutTransferEP6EpInfottPh+0x34c>
                                        //return ( rcode);
                                        break;
                                case hrTIMEOUT:
                                        retry_count++;
   414cc:	e0bff643 	ldbu	r2,-39(fp)
   414d0:	10800044 	addi	r2,r2,1
   414d4:	e0bff645 	stb	r2,-39(fp)
                                        if(retry_count == USB_RETRY_LIMIT)
   414d8:	e0bff643 	ldbu	r2,-39(fp)
   414dc:	108000d8 	cmpnei	r2,r2,3
   414e0:	1000201e 	bne	r2,zero,41564 <_ZN3USB11OutTransferEP6EpInfottPh+0x274>
                                                goto breakout;
   414e4:	00005506 	br	4163c <_ZN3USB11OutTransferEP6EpInfottPh+0x34c>
                                        //return ( rcode);
                                        break;
                                case hrTOGERR:
                                        // yes, we flip it wrong here so that next time it is actually correct!
                                        pep->bmSndToggle = (regRd(rHRSL) & bmSNDTOGRD) ? 0 : 1;
   414e8:	01403e04 	movi	r5,248
   414ec:	e13ffc17 	ldw	r4,-16(fp)
   414f0:	0049c300 	call	49c30 <_ZN8MAX3421e5regRdEh>
   414f4:	10803fcc 	andi	r2,r2,255
   414f8:	1080080c 	andi	r2,r2,32
   414fc:	1005003a 	cmpeq	r2,r2,zero
   41500:	1007883a 	mov	r3,r2
   41504:	e0bffd17 	ldw	r2,-12(fp)
   41508:	1940004c 	andi	r5,r3,1
   4150c:	11000083 	ldbu	r4,2(r2)
   41510:	00ffff84 	movi	r3,-2
   41514:	20c6703a 	and	r3,r4,r3
   41518:	1809883a 	mov	r4,r3
   4151c:	2807883a 	mov	r3,r5
   41520:	20c6b03a 	or	r3,r4,r3
   41524:	10c00085 	stb	r3,2(r2)
                                        regWr(rHCTL, (pep->bmSndToggle) ? bmSNDTOG1 : bmSNDTOG0); //set toggle value
   41528:	e0bffd17 	ldw	r2,-12(fp)
   4152c:	10800083 	ldbu	r2,2(r2)
   41530:	1080004c 	andi	r2,r2,1
   41534:	10803fcc 	andi	r2,r2,255
   41538:	10000226 	beq	r2,zero,41544 <_ZN3USB11OutTransferEP6EpInfottPh+0x254>
   4153c:	00802004 	movi	r2,128
   41540:	00000106 	br	41548 <_ZN3USB11OutTransferEP6EpInfottPh+0x258>
   41544:	00801004 	movi	r2,64
   41548:	100d883a 	mov	r6,r2
   4154c:	01403a04 	movi	r5,232
   41550:	e13ffc17 	ldw	r4,-16(fp)
   41554:	0049a040 	call	49a04 <_ZN8MAX3421e5regWrEhh>
                                        break;
   41558:	00000306 	br	41568 <_ZN3USB11OutTransferEP6EpInfottPh+0x278>
                                case hrNAK:
                                        nak_count++;
                                        if(nak_limit && (nak_count == nak_limit))
                                                goto breakout;
                                        //return ( rcode);
                                        break;
   4155c:	0001883a 	nop
   41560:	00000106 	br	41568 <_ZN3USB11OutTransferEP6EpInfottPh+0x278>
                                case hrTIMEOUT:
                                        retry_count++;
                                        if(retry_count == USB_RETRY_LIMIT)
                                                goto breakout;
                                        //return ( rcode);
                                        break;
   41564:	0001883a 	nop
                                default:
                                        goto breakout;
                        }//switch( rcode

                        /* process NAK according to Host out NAK bug */
                        regWr(rSNDBC, 0);
   41568:	000d883a 	mov	r6,zero
   4156c:	01400e04 	movi	r5,56
   41570:	e13ffc17 	ldw	r4,-16(fp)
   41574:	0049a040 	call	49a04 <_ZN8MAX3421e5regWrEhh>
                        regWr(rSNDFIFO, *data_p);
   41578:	e0bff717 	ldw	r2,-36(fp)
   4157c:	10800003 	ldbu	r2,0(r2)
   41580:	10803fcc 	andi	r2,r2,255
   41584:	100d883a 	mov	r6,r2
   41588:	01400404 	movi	r5,16
   4158c:	e13ffc17 	ldw	r4,-16(fp)
   41590:	0049a040 	call	49a04 <_ZN8MAX3421e5regWrEhh>
                        regWr(rSNDBC, bytes_tosend);
   41594:	e0bffb0b 	ldhu	r2,-20(fp)
   41598:	10803fcc 	andi	r2,r2,255
   4159c:	100d883a 	mov	r6,r2
   415a0:	01400e04 	movi	r5,56
   415a4:	e13ffc17 	ldw	r4,-16(fp)
   415a8:	0049a040 	call	49a04 <_ZN8MAX3421e5regWrEhh>
                        regWr(rHXFR, (tokOUT | pep->epAddr)); //dispatch packet
   415ac:	e0bffd17 	ldw	r2,-12(fp)
   415b0:	10800003 	ldbu	r2,0(r2)
   415b4:	10800814 	ori	r2,r2,32
   415b8:	10803fcc 	andi	r2,r2,255
   415bc:	100d883a 	mov	r6,r2
   415c0:	01403c04 	movi	r5,240
   415c4:	e13ffc17 	ldw	r4,-16(fp)
   415c8:	0049a040 	call	49a04 <_ZN8MAX3421e5regWrEhh>
                        while(!(regRd(rHIRQ) & bmHXFRDNIRQ)){
   415cc:	01403204 	movi	r5,200
   415d0:	e13ffc17 	ldw	r4,-16(fp)
   415d4:	0049c300 	call	49c30 <_ZN8MAX3421e5regRdEh>
   415d8:	0084303a 	nor	r2,zero,r2
   415dc:	10803fcc 	andi	r2,r2,255
   415e0:	1004d1fa 	srli	r2,r2,7
   415e4:	10803fcc 	andi	r2,r2,255
   415e8:	10000126 	beq	r2,zero,415f0 <_ZN3USB11OutTransferEP6EpInfottPh+0x300>
   415ec:	003ff706 	br	415cc <__alt_data_end+0xfffc15cc>
#if defined(ESP8266) || defined(ESP32)
                        yield(); // needed in order to reset the watchdog timer on the ESP8266
#endif
                        } //wait for the completion IRQ
                        regWr(rHIRQ, bmHXFRDNIRQ); //clear IRQ
   415f0:	01802004 	movi	r6,128
   415f4:	01403204 	movi	r5,200
   415f8:	e13ffc17 	ldw	r4,-16(fp)
   415fc:	0049a040 	call	49a04 <_ZN8MAX3421e5regWrEhh>
                        rcode = (regRd(rHRSL) & 0x0f);
   41600:	01403e04 	movi	r5,248
   41604:	e13ffc17 	ldw	r4,-16(fp)
   41608:	0049c300 	call	49c30 <_ZN8MAX3421e5regRdEh>
   4160c:	108003cc 	andi	r2,r2,15
   41610:	e0bff605 	stb	r2,-40(fp)
#endif
                } //wait for the completion IRQ
                regWr(rHIRQ, bmHXFRDNIRQ); //clear IRQ
                rcode = (regRd(rHRSL) & 0x0f);

                while(rcode && ((int32_t)((uint32_t)millis() - timeout) < 0L)) {
   41614:	003f9006 	br	41458 <__alt_data_end+0xfffc1458>
#endif
                        } //wait for the completion IRQ
                        regWr(rHIRQ, bmHXFRDNIRQ); //clear IRQ
                        rcode = (regRd(rHRSL) & 0x0f);
                }//while( rcode && ....
                bytes_left -= bytes_tosend;
   41618:	e0fff88b 	ldhu	r3,-30(fp)
   4161c:	e0bffb0b 	ldhu	r2,-20(fp)
   41620:	1885c83a 	sub	r2,r3,r2
   41624:	e0bff88d 	sth	r2,-30(fp)
                data_p += bytes_tosend;
   41628:	e0bffb0b 	ldhu	r2,-20(fp)
   4162c:	e0fff717 	ldw	r3,-36(fp)
   41630:	1885883a 	add	r2,r3,r2
   41634:	e0bff715 	stw	r2,-36(fp)

        uint32_t timeout = (uint32_t)millis() + USB_XFER_TIMEOUT;

        regWr(rHCTL, (pep->bmSndToggle) ? bmSNDTOG1 : bmSNDTOG0); //set toggle value

        while(bytes_left) {
   41638:	003f5506 	br	41390 <__alt_data_end+0xfffc1390>
                bytes_left -= bytes_tosend;
                data_p += bytes_tosend;
        }//while( bytes_left...
breakout:

        pep->bmSndToggle = (regRd(rHRSL) & bmSNDTOGRD) ? 1 : 0; //bmSNDTOG1 : bmSNDTOG0;  //update toggle
   4163c:	01403e04 	movi	r5,248
   41640:	e13ffc17 	ldw	r4,-16(fp)
   41644:	0049c300 	call	49c30 <_ZN8MAX3421e5regRdEh>
   41648:	10803fcc 	andi	r2,r2,255
   4164c:	1080080c 	andi	r2,r2,32
   41650:	10000226 	beq	r2,zero,4165c <_ZN3USB11OutTransferEP6EpInfottPh+0x36c>
   41654:	00c00044 	movi	r3,1
   41658:	00000106 	br	41660 <_ZN3USB11OutTransferEP6EpInfottPh+0x370>
   4165c:	0007883a 	mov	r3,zero
   41660:	e0bffd17 	ldw	r2,-12(fp)
   41664:	1940004c 	andi	r5,r3,1
   41668:	11000083 	ldbu	r4,2(r2)
   4166c:	00ffff84 	movi	r3,-2
   41670:	20c6703a 	and	r3,r4,r3
   41674:	1809883a 	mov	r4,r3
   41678:	2807883a 	mov	r3,r5
   4167c:	20c6b03a 	or	r3,r4,r3
   41680:	10c00085 	stb	r3,2(r2)
        return ( rcode); //should be 0 in all cases
   41684:	e0bff603 	ldbu	r2,-40(fp)
}
   41688:	e037883a 	mov	sp,fp
   4168c:	dfc00117 	ldw	ra,4(sp)
   41690:	df000017 	ldw	fp,0(sp)
   41694:	dec00204 	addi	sp,sp,8
   41698:	f800283a 	ret

0004169c <_ZN3USB11dispatchPktEhht>:
/* If NAK, tries to re-send up to nak_limit times                                                   */
/* If nak_limit == 0, do not count NAKs, exit after timeout                                         */
/* If bus timeout, re-sends up to USB_RETRY_LIMIT times                                             */

/* return codes 0x00-0x0f are HRSLT( 0x00 being success ), 0xff means timeout                       */
uint8_t USB::dispatchPkt(uint8_t token, uint8_t ep, uint16_t nak_limit) {
   4169c:	defff704 	addi	sp,sp,-36
   416a0:	dfc00815 	stw	ra,32(sp)
   416a4:	df000715 	stw	fp,28(sp)
   416a8:	df000704 	addi	fp,sp,28
   416ac:	e13ffc15 	stw	r4,-16(fp)
   416b0:	2809883a 	mov	r4,r5
   416b4:	3007883a 	mov	r3,r6
   416b8:	3805883a 	mov	r2,r7
   416bc:	e13ffd05 	stb	r4,-12(fp)
   416c0:	e0fffe05 	stb	r3,-8(fp)
   416c4:	e0bfff0d 	sth	r2,-4(fp)
        uint32_t timeout = (uint32_t)millis() + USB_XFER_TIMEOUT;
   416c8:	00406dc0 	call	406dc <_Z6millisv>
   416cc:	1084e204 	addi	r2,r2,5000
   416d0:	e0bffa15 	stw	r2,-24(fp)
        uint8_t tmpdata;
        uint8_t rcode = hrSUCCESS;
   416d4:	e03ff905 	stb	zero,-28(fp)
        uint8_t retry_count = 0;
   416d8:	e03ff945 	stb	zero,-27(fp)
        uint16_t nak_count = 0;
   416dc:	e03ff98d 	sth	zero,-26(fp)

        while((int32_t)((uint32_t)millis() - timeout) < 0L) {
   416e0:	00406dc0 	call	406dc <_Z6millisv>
   416e4:	1007883a 	mov	r3,r2
   416e8:	e0bffa17 	ldw	r2,-24(fp)
   416ec:	1885c83a 	sub	r2,r3,r2
   416f0:	1004d7fa 	srli	r2,r2,31
   416f4:	10803fcc 	andi	r2,r2,255
   416f8:	10004226 	beq	r2,zero,41804 <_ZN3USB11dispatchPktEhht+0x168>
#if defined(ESP8266) || defined(ESP32)
                        yield(); // needed in order to reset the watchdog timer on the ESP8266
#endif
                regWr(rHXFR, (token | ep)); //launch the transfer
   416fc:	e0fffd03 	ldbu	r3,-12(fp)
   41700:	e0bffe03 	ldbu	r2,-8(fp)
   41704:	1884b03a 	or	r2,r3,r2
   41708:	10803fcc 	andi	r2,r2,255
   4170c:	100d883a 	mov	r6,r2
   41710:	01403c04 	movi	r5,240
   41714:	e13ffc17 	ldw	r4,-16(fp)
   41718:	0049a040 	call	49a04 <_ZN8MAX3421e5regWrEhh>
                rcode = USB_ERROR_TRANSFER_TIMEOUT;
   4171c:	00bfffc4 	movi	r2,-1
   41720:	e0bff905 	stb	r2,-28(fp)

                while((int32_t)((uint32_t)millis() - timeout) < 0L) //wait for transfer completion
   41724:	00406dc0 	call	406dc <_Z6millisv>
   41728:	1007883a 	mov	r3,r2
   4172c:	e0bffa17 	ldw	r2,-24(fp)
   41730:	1885c83a 	sub	r2,r3,r2
   41734:	1004d7fa 	srli	r2,r2,31
   41738:	10803fcc 	andi	r2,r2,255
   4173c:	10000e26 	beq	r2,zero,41778 <_ZN3USB11dispatchPktEhht+0xdc>
                {
#if defined(ESP8266) || defined(ESP32)
                        yield(); // needed in order to reset the watchdog timer on the ESP8266
#endif
                        tmpdata = regRd(rHIRQ);
   41740:	01403204 	movi	r5,200
   41744:	e13ffc17 	ldw	r4,-16(fp)
   41748:	0049c300 	call	49c30 <_ZN8MAX3421e5regRdEh>
   4174c:	e0bffb05 	stb	r2,-20(fp)

                        if(tmpdata & bmHXFRDNIRQ) {
   41750:	e0bffb03 	ldbu	r2,-20(fp)
   41754:	10803fcc 	andi	r2,r2,255
   41758:	1080201c 	xori	r2,r2,128
   4175c:	10bfe004 	addi	r2,r2,-128
   41760:	103ff00e 	bge	r2,zero,41724 <__alt_data_end+0xfffc1724>
                                regWr(rHIRQ, bmHXFRDNIRQ); //clear the interrupt
   41764:	01802004 	movi	r6,128
   41768:	01403204 	movi	r5,200
   4176c:	e13ffc17 	ldw	r4,-16(fp)
   41770:	0049a040 	call	49a04 <_ZN8MAX3421e5regWrEhh>
                                rcode = 0x00;
   41774:	e03ff905 	stb	zero,-28(fp)
                }//while ( millis() < timeout

                //if (rcode != 0x00) //exit if timeout
                //        return ( rcode);

                rcode = (regRd(rHRSL) & 0x0f); //analyze transfer result
   41778:	01403e04 	movi	r5,248
   4177c:	e13ffc17 	ldw	r4,-16(fp)
   41780:	0049c300 	call	49c30 <_ZN8MAX3421e5regRdEh>
   41784:	108003cc 	andi	r2,r2,15
   41788:	e0bff905 	stb	r2,-28(fp)

                switch(rcode) {
   4178c:	e0bff903 	ldbu	r2,-28(fp)
   41790:	10c00120 	cmpeqi	r3,r2,4
   41794:	1800031e 	bne	r3,zero,417a4 <_ZN3USB11dispatchPktEhht+0x108>
   41798:	108003a0 	cmpeqi	r2,r2,14
   4179c:	10000b1e 	bne	r2,zero,417cc <_ZN3USB11dispatchPktEhht+0x130>
   417a0:	00001206 	br	417ec <_ZN3USB11dispatchPktEhht+0x150>
                        case hrNAK:
                                nak_count++;
   417a4:	e0bff98b 	ldhu	r2,-26(fp)
   417a8:	10800044 	addi	r2,r2,1
   417ac:	e0bff98d 	sth	r2,-26(fp)
                                if(nak_limit && (nak_count == nak_limit))
   417b0:	e0bfff0b 	ldhu	r2,-4(fp)
   417b4:	10000f26 	beq	r2,zero,417f4 <_ZN3USB11dispatchPktEhht+0x158>
   417b8:	e0fff98b 	ldhu	r3,-26(fp)
   417bc:	e0bfff0b 	ldhu	r2,-4(fp)
   417c0:	18800c1e 	bne	r3,r2,417f4 <_ZN3USB11dispatchPktEhht+0x158>
                                        return (rcode);
   417c4:	e0bff903 	ldbu	r2,-28(fp)
   417c8:	00000f06 	br	41808 <_ZN3USB11dispatchPktEhht+0x16c>
                                break;
                        case hrTIMEOUT:
                                retry_count++;
   417cc:	e0bff943 	ldbu	r2,-27(fp)
   417d0:	10800044 	addi	r2,r2,1
   417d4:	e0bff945 	stb	r2,-27(fp)
                                if(retry_count == USB_RETRY_LIMIT)
   417d8:	e0bff943 	ldbu	r2,-27(fp)
   417dc:	108000d8 	cmpnei	r2,r2,3
   417e0:	1000061e 	bne	r2,zero,417fc <_ZN3USB11dispatchPktEhht+0x160>
                                        return (rcode);
   417e4:	e0bff903 	ldbu	r2,-28(fp)
   417e8:	00000706 	br	41808 <_ZN3USB11dispatchPktEhht+0x16c>
                                break;
                        default:
                                return (rcode);
   417ec:	e0bff903 	ldbu	r2,-28(fp)
   417f0:	00000506 	br	41808 <_ZN3USB11dispatchPktEhht+0x16c>
                switch(rcode) {
                        case hrNAK:
                                nak_count++;
                                if(nak_limit && (nak_count == nak_limit))
                                        return (rcode);
                                break;
   417f4:	0001883a 	nop
   417f8:	003fb906 	br	416e0 <__alt_data_end+0xfffc16e0>
                        case hrTIMEOUT:
                                retry_count++;
                                if(retry_count == USB_RETRY_LIMIT)
                                        return (rcode);
                                break;
   417fc:	0001883a 	nop
        uint8_t tmpdata;
        uint8_t rcode = hrSUCCESS;
        uint8_t retry_count = 0;
        uint16_t nak_count = 0;

        while((int32_t)((uint32_t)millis() - timeout) < 0L) {
   41800:	003fb706 	br	416e0 <__alt_data_end+0xfffc16e0>
                        default:
                                return (rcode);
                }//switch( rcode

        }//while( timeout > millis()
        return ( rcode);
   41804:	e0bff903 	ldbu	r2,-28(fp)
}
   41808:	e037883a 	mov	sp,fp
   4180c:	dfc00117 	ldw	ra,4(sp)
   41810:	df000017 	ldw	fp,0(sp)
   41814:	dec00204 	addi	sp,sp,8
   41818:	f800283a 	ret

0004181c <_ZN3USB4TaskEv>:

/* USB main task. Performs enumeration/cleanup */
void USB::Task(void) //USB state machine
{
   4181c:	defffa04 	addi	sp,sp,-24
   41820:	dfc00515 	stw	ra,20(sp)
   41824:	df000415 	stw	fp,16(sp)
   41828:	df000404 	addi	fp,sp,16
   4182c:	e13ffe15 	stw	r4,-8(fp)
        uint8_t rcode;
        uint8_t tmpdata;
        static uint32_t delay = 0;
        //USB_DEVICE_DESCRIPTOR buf;
        bool lowspeed = false;
   41830:	e03ffc05 	stb	zero,-16(fp)

        MAX3421e::Task();
   41834:	e13ffe17 	ldw	r4,-8(fp)
   41838:	004a2800 	call	4a280 <_ZN8MAX3421e4TaskEv>

        tmpdata = getVbusState();
   4183c:	e13ffe17 	ldw	r4,-8(fp)
   41840:	00499e00 	call	499e0 <_ZN8MAX3421e12getVbusStateEv>
   41844:	e0bffcc5 	stb	r2,-13(fp)

        /* modify USB task state if Vbus changed */
        switch(tmpdata) {
   41848:	e0bffcc3 	ldbu	r2,-13(fp)
   4184c:	10c00060 	cmpeqi	r3,r2,1
   41850:	1800091e 	bne	r3,zero,41878 <_ZN3USB4TaskEv+0x5c>
   41854:	10c00088 	cmpgei	r3,r2,2
   41858:	1800021e 	bne	r3,zero,41864 <_ZN3USB4TaskEv+0x48>
   4185c:	10000a26 	beq	r2,zero,41888 <_ZN3USB4TaskEv+0x6c>
   41860:	00001f06 	br	418e0 <_ZN3USB4TaskEv+0xc4>
   41864:	10c000a0 	cmpeqi	r3,r2,2
   41868:	1800121e 	bne	r3,zero,418b4 <_ZN3USB4TaskEv+0x98>
   4186c:	108000e0 	cmpeqi	r2,r2,3
   41870:	10000e1e 	bne	r2,zero,418ac <_ZN3USB4TaskEv+0x90>
   41874:	00001a06 	br	418e0 <_ZN3USB4TaskEv+0xc4>
                case SE1: //illegal state
                        usb_task_state = USB_DETACHED_SUBSTATE_ILLEGAL;
   41878:	008004c4 	movi	r2,19
   4187c:	d0b24145 	stb	r2,-14075(gp)
                        lowspeed = false;
   41880:	e03ffc05 	stb	zero,-16(fp)
                        break;
   41884:	00001606 	br	418e0 <_ZN3USB4TaskEv+0xc4>
                case SE0: //disconnected
                        if((usb_task_state & USB_STATE_MASK) != USB_STATE_DETACHED)
   41888:	d0b24143 	ldbu	r2,-14075(gp)
   4188c:	10803fcc 	andi	r2,r2,255
   41890:	10803c0c 	andi	r2,r2,240
   41894:	10800420 	cmpeqi	r2,r2,16
   41898:	1000021e 	bne	r2,zero,418a4 <_ZN3USB4TaskEv+0x88>
                                usb_task_state = USB_DETACHED_SUBSTATE_INITIALIZE;
   4189c:	00800444 	movi	r2,17
   418a0:	d0b24145 	stb	r2,-14075(gp)
                        lowspeed = false;
   418a4:	e03ffc05 	stb	zero,-16(fp)
                        break;
   418a8:	00000d06 	br	418e0 <_ZN3USB4TaskEv+0xc4>
                case LSHOST:

                        lowspeed = true;
   418ac:	00800044 	movi	r2,1
   418b0:	e0bffc05 	stb	r2,-16(fp)
                        //intentional fallthrough
                case FSHOST: //attached
                        if((usb_task_state & USB_STATE_MASK) == USB_STATE_DETACHED) {
   418b4:	d0b24143 	ldbu	r2,-14075(gp)
   418b8:	10803fcc 	andi	r2,r2,255
   418bc:	10803c0c 	andi	r2,r2,240
   418c0:	10800418 	cmpnei	r2,r2,16
   418c4:	1000051e 	bne	r2,zero,418dc <_ZN3USB4TaskEv+0xc0>
                                delay = (uint32_t)millis() + USB_SETTLE_DELAY;
   418c8:	00406dc0 	call	406dc <_Z6millisv>
   418cc:	10803204 	addi	r2,r2,200
   418d0:	d0b24215 	stw	r2,-14072(gp)
                                usb_task_state = USB_ATTACHED_SUBSTATE_SETTLE;
   418d4:	00800804 	movi	r2,32
   418d8:	d0b24145 	stb	r2,-14075(gp)
                        }
                        break;
   418dc:	0001883a 	nop
        }// switch( tmpdata

        for(uint8_t i = 0; i < USB_NUMDEVICES; i++)
   418e0:	e03ffc45 	stb	zero,-15(fp)
   418e4:	e0bffc43 	ldbu	r2,-15(fp)
   418e8:	10800428 	cmpgeui	r2,r2,16
   418ec:	1000201e 	bne	r2,zero,41970 <_ZN3USB4TaskEv+0x154>
                if(devConfig[i])
   418f0:	e0bffc43 	ldbu	r2,-15(fp)
   418f4:	e0fffe17 	ldw	r3,-8(fp)
   418f8:	10800784 	addi	r2,r2,30
   418fc:	1085883a 	add	r2,r2,r2
   41900:	1085883a 	add	r2,r2,r2
   41904:	1885883a 	add	r2,r3,r2
   41908:	10800017 	ldw	r2,0(r2)
   4190c:	10001426 	beq	r2,zero,41960 <_ZN3USB4TaskEv+0x144>
                        rcode = devConfig[i]->Poll();
   41910:	e0bffc43 	ldbu	r2,-15(fp)
   41914:	e0fffe17 	ldw	r3,-8(fp)
   41918:	10800784 	addi	r2,r2,30
   4191c:	1085883a 	add	r2,r2,r2
   41920:	1085883a 	add	r2,r2,r2
   41924:	1885883a 	add	r2,r3,r2
   41928:	10800017 	ldw	r2,0(r2)
   4192c:	10800017 	ldw	r2,0(r2)
   41930:	10800304 	addi	r2,r2,12
   41934:	10c00017 	ldw	r3,0(r2)
   41938:	e0bffc43 	ldbu	r2,-15(fp)
   4193c:	e13ffe17 	ldw	r4,-8(fp)
   41940:	10800784 	addi	r2,r2,30
   41944:	1085883a 	add	r2,r2,r2
   41948:	1085883a 	add	r2,r2,r2
   4194c:	2085883a 	add	r2,r4,r2
   41950:	10800017 	ldw	r2,0(r2)
   41954:	1009883a 	mov	r4,r2
   41958:	183ee83a 	callr	r3
   4195c:	e0bffd05 	stb	r2,-12(fp)
                                usb_task_state = USB_ATTACHED_SUBSTATE_SETTLE;
                        }
                        break;
        }// switch( tmpdata

        for(uint8_t i = 0; i < USB_NUMDEVICES; i++)
   41960:	e0bffc43 	ldbu	r2,-15(fp)
   41964:	10800044 	addi	r2,r2,1
   41968:	e0bffc45 	stb	r2,-15(fp)
   4196c:	003fdd06 	br	418e4 <__alt_data_end+0xfffc18e4>
                if(devConfig[i])
                        rcode = devConfig[i]->Poll();

        switch(usb_task_state) {
   41970:	d0b24143 	ldbu	r2,-14075(gp)
   41974:	10803fcc 	andi	r2,r2,255
   41978:	10c01020 	cmpeqi	r3,r2,64
   4197c:	1800511e 	bne	r3,zero,41ac4 <_ZN3USB4TaskEv+0x2a8>
   41980:	10c01048 	cmpgei	r3,r2,65
   41984:	18000c1e 	bne	r3,zero,419b8 <_ZN3USB4TaskEv+0x19c>
   41988:	10c004e0 	cmpeqi	r3,r2,19
   4198c:	18008e1e 	bne	r3,zero,41bc8 <_ZN3USB4TaskEv+0x3ac>
   41990:	10c00508 	cmpgei	r3,r2,20
   41994:	1800031e 	bne	r3,zero,419a4 <_ZN3USB4TaskEv+0x188>
   41998:	10800460 	cmpeqi	r2,r2,17
   4199c:	10000f1e 	bne	r2,zero,419dc <_ZN3USB4TaskEv+0x1c0>
                                        rcode = devConfig[i]->Release();

                        usb_task_state = USB_DETACHED_SUBSTATE_WAIT_FOR_DEVICE;
                        break;
                case USB_DETACHED_SUBSTATE_WAIT_FOR_DEVICE: //just sit here
                        break;
   419a0:	00009406 	br	41bf4 <_ZN3USB4TaskEv+0x3d8>

        for(uint8_t i = 0; i < USB_NUMDEVICES; i++)
                if(devConfig[i])
                        rcode = devConfig[i]->Poll();

        switch(usb_task_state) {
   419a4:	10c00820 	cmpeqi	r3,r2,32
   419a8:	1800351e 	bne	r3,zero,41a80 <_ZN3USB4TaskEv+0x264>
   419ac:	10800c20 	cmpeqi	r2,r2,48
   419b0:	10003d1e 	bne	r2,zero,41aa8 <_ZN3USB4TaskEv+0x28c>
                        break;
                case USB_STATE_ERROR:
                        //MAX3421E::Init();
                        break;
        } // switch( usb_task_state )
}
   419b4:	00008f06 	br	41bf4 <_ZN3USB4TaskEv+0x3d8>

        for(uint8_t i = 0; i < USB_NUMDEVICES; i++)
                if(devConfig[i])
                        rcode = devConfig[i]->Poll();

        switch(usb_task_state) {
   419b8:	10c02020 	cmpeqi	r3,r2,128
   419bc:	18006e1e 	bne	r3,zero,41b78 <_ZN3USB4TaskEv+0x35c>
   419c0:	10c02048 	cmpgei	r3,r2,129
   419c4:	18008b1e 	bne	r3,zero,41bf4 <_ZN3USB4TaskEv+0x3d8>
   419c8:	10c01420 	cmpeqi	r3,r2,80
   419cc:	1800521e 	bne	r3,zero,41b18 <_ZN3USB4TaskEv+0x2fc>
   419d0:	10801460 	cmpeqi	r2,r2,81
   419d4:	10005e1e 	bne	r2,zero,41b50 <_ZN3USB4TaskEv+0x334>
                        break;
                case USB_STATE_ERROR:
                        //MAX3421E::Init();
                        break;
        } // switch( usb_task_state )
}
   419d8:	00008606 	br	41bf4 <_ZN3USB4TaskEv+0x3d8>
                if(devConfig[i])
                        rcode = devConfig[i]->Poll();

        switch(usb_task_state) {
                case USB_DETACHED_SUBSTATE_INITIALIZE:
                        init();
   419dc:	e13ffe17 	ldw	r4,-8(fp)
   419e0:	004075c0 	call	4075c <_ZN3USB4initEv>

                        for(uint8_t i = 0; i < USB_NUMDEVICES; i++)
   419e4:	e03ffc85 	stb	zero,-14(fp)
   419e8:	e0bffc83 	ldbu	r2,-14(fp)
   419ec:	10800428 	cmpgeui	r2,r2,16
   419f0:	1000201e 	bne	r2,zero,41a74 <_ZN3USB4TaskEv+0x258>
                                if(devConfig[i])
   419f4:	e0bffc83 	ldbu	r2,-14(fp)
   419f8:	e0fffe17 	ldw	r3,-8(fp)
   419fc:	10800784 	addi	r2,r2,30
   41a00:	1085883a 	add	r2,r2,r2
   41a04:	1085883a 	add	r2,r2,r2
   41a08:	1885883a 	add	r2,r3,r2
   41a0c:	10800017 	ldw	r2,0(r2)
   41a10:	10001426 	beq	r2,zero,41a64 <_ZN3USB4TaskEv+0x248>
                                        rcode = devConfig[i]->Release();
   41a14:	e0bffc83 	ldbu	r2,-14(fp)
   41a18:	e0fffe17 	ldw	r3,-8(fp)
   41a1c:	10800784 	addi	r2,r2,30
   41a20:	1085883a 	add	r2,r2,r2
   41a24:	1085883a 	add	r2,r2,r2
   41a28:	1885883a 	add	r2,r3,r2
   41a2c:	10800017 	ldw	r2,0(r2)
   41a30:	10800017 	ldw	r2,0(r2)
   41a34:	10800204 	addi	r2,r2,8
   41a38:	10c00017 	ldw	r3,0(r2)
   41a3c:	e0bffc83 	ldbu	r2,-14(fp)
   41a40:	e13ffe17 	ldw	r4,-8(fp)
   41a44:	10800784 	addi	r2,r2,30
   41a48:	1085883a 	add	r2,r2,r2
   41a4c:	1085883a 	add	r2,r2,r2
   41a50:	2085883a 	add	r2,r4,r2
   41a54:	10800017 	ldw	r2,0(r2)
   41a58:	1009883a 	mov	r4,r2
   41a5c:	183ee83a 	callr	r3
   41a60:	e0bffd05 	stb	r2,-12(fp)

        switch(usb_task_state) {
                case USB_DETACHED_SUBSTATE_INITIALIZE:
                        init();

                        for(uint8_t i = 0; i < USB_NUMDEVICES; i++)
   41a64:	e0bffc83 	ldbu	r2,-14(fp)
   41a68:	10800044 	addi	r2,r2,1
   41a6c:	e0bffc85 	stb	r2,-14(fp)
   41a70:	003fdd06 	br	419e8 <__alt_data_end+0xfffc19e8>
                                if(devConfig[i])
                                        rcode = devConfig[i]->Release();

                        usb_task_state = USB_DETACHED_SUBSTATE_WAIT_FOR_DEVICE;
   41a74:	00800484 	movi	r2,18
   41a78:	d0b24145 	stb	r2,-14075(gp)
                        break;
   41a7c:	00005d06 	br	41bf4 <_ZN3USB4TaskEv+0x3d8>
                case USB_DETACHED_SUBSTATE_WAIT_FOR_DEVICE: //just sit here
                        break;
                case USB_DETACHED_SUBSTATE_ILLEGAL: //just sit here
                        break;
                case USB_ATTACHED_SUBSTATE_SETTLE: //settle time for just attached device
                        if((int32_t)((uint32_t)millis() - delay) >= 0L)
   41a80:	00406dc0 	call	406dc <_Z6millisv>
   41a84:	1007883a 	mov	r3,r2
   41a88:	d0b24217 	ldw	r2,-14072(gp)
   41a8c:	1885c83a 	sub	r2,r3,r2
   41a90:	0084303a 	nor	r2,zero,r2
   41a94:	1004d7fa 	srli	r2,r2,31
   41a98:	10803fcc 	andi	r2,r2,255
   41a9c:	10004c26 	beq	r2,zero,41bd0 <_ZN3USB4TaskEv+0x3b4>
                                usb_task_state = USB_ATTACHED_SUBSTATE_RESET_DEVICE;
   41aa0:	00800c04 	movi	r2,48
   41aa4:	d0b24145 	stb	r2,-14075(gp)
                        else break; // don't fall through
                case USB_ATTACHED_SUBSTATE_RESET_DEVICE:
                        regWr(rHCTL, bmBUSRST); //issue bus reset
   41aa8:	01800044 	movi	r6,1
   41aac:	01403a04 	movi	r5,232
   41ab0:	e13ffe17 	ldw	r4,-8(fp)
   41ab4:	0049a040 	call	49a04 <_ZN8MAX3421e5regWrEhh>
                        usb_task_state = USB_ATTACHED_SUBSTATE_WAIT_RESET_COMPLETE;
   41ab8:	00801004 	movi	r2,64
   41abc:	d0b24145 	stb	r2,-14075(gp)
                        break;
   41ac0:	00004c06 	br	41bf4 <_ZN3USB4TaskEv+0x3d8>
                case USB_ATTACHED_SUBSTATE_WAIT_RESET_COMPLETE:
                        if((regRd(rHCTL) & bmBUSRST) == 0) {
   41ac4:	01403a04 	movi	r5,232
   41ac8:	e13ffe17 	ldw	r4,-8(fp)
   41acc:	0049c300 	call	49c30 <_ZN8MAX3421e5regRdEh>
   41ad0:	10803fcc 	andi	r2,r2,255
   41ad4:	1080004c 	andi	r2,r2,1
   41ad8:	1005003a 	cmpeq	r2,r2,zero
   41adc:	10803fcc 	andi	r2,r2,255
   41ae0:	10003d26 	beq	r2,zero,41bd8 <_ZN3USB4TaskEv+0x3bc>
                                tmpdata = regRd(rMODE) | bmSOFKAENAB; //start SOF generation
   41ae4:	01403604 	movi	r5,216
   41ae8:	e13ffe17 	ldw	r4,-8(fp)
   41aec:	0049c300 	call	49c30 <_ZN8MAX3421e5regRdEh>
   41af0:	10800214 	ori	r2,r2,8
   41af4:	e0bffcc5 	stb	r2,-13(fp)
                                regWr(rMODE, tmpdata);
   41af8:	e0bffcc3 	ldbu	r2,-13(fp)
   41afc:	100d883a 	mov	r6,r2
   41b00:	01403604 	movi	r5,216
   41b04:	e13ffe17 	ldw	r4,-8(fp)
   41b08:	0049a040 	call	49a04 <_ZN8MAX3421e5regWrEhh>
                                usb_task_state = USB_ATTACHED_SUBSTATE_WAIT_SOF;
   41b0c:	00801404 	movi	r2,80
   41b10:	d0b24145 	stb	r2,-14075(gp)
                                //delay = (uint32_t)millis() + 20; //20ms wait after reset per USB spec
                        }
                        break;
   41b14:	00003006 	br	41bd8 <_ZN3USB4TaskEv+0x3bc>
                case USB_ATTACHED_SUBSTATE_WAIT_SOF: //todo: change check order
                        if(regRd(rHIRQ) & bmFRAMEIRQ) {
   41b18:	01403204 	movi	r5,200
   41b1c:	e13ffe17 	ldw	r4,-8(fp)
   41b20:	0049c300 	call	49c30 <_ZN8MAX3421e5regRdEh>
   41b24:	10803fcc 	andi	r2,r2,255
   41b28:	1080100c 	andi	r2,r2,64
   41b2c:	1004c03a 	cmpne	r2,r2,zero
   41b30:	10803fcc 	andi	r2,r2,255
   41b34:	10002a26 	beq	r2,zero,41be0 <_ZN3USB4TaskEv+0x3c4>
                                //when first SOF received _and_ 20ms has passed we can continue
                                /*
                                if (delay < (uint32_t)millis()) //20ms passed
                                        usb_task_state = USB_STATE_CONFIGURING;
                                 */
                                usb_task_state = USB_ATTACHED_SUBSTATE_WAIT_RESET;
   41b38:	00801444 	movi	r2,81
   41b3c:	d0b24145 	stb	r2,-14075(gp)
                                delay = (uint32_t)millis() + 20;
   41b40:	00406dc0 	call	406dc <_Z6millisv>
   41b44:	10800504 	addi	r2,r2,20
   41b48:	d0b24215 	stw	r2,-14072(gp)
                        }
                        break;
   41b4c:	00002406 	br	41be0 <_ZN3USB4TaskEv+0x3c4>
                case USB_ATTACHED_SUBSTATE_WAIT_RESET:
                        if((int32_t)((uint32_t)millis() - delay) >= 0L) usb_task_state = USB_STATE_CONFIGURING;
   41b50:	00406dc0 	call	406dc <_Z6millisv>
   41b54:	1007883a 	mov	r3,r2
   41b58:	d0b24217 	ldw	r2,-14072(gp)
   41b5c:	1885c83a 	sub	r2,r3,r2
   41b60:	0084303a 	nor	r2,zero,r2
   41b64:	1004d7fa 	srli	r2,r2,31
   41b68:	10803fcc 	andi	r2,r2,255
   41b6c:	10001e26 	beq	r2,zero,41be8 <_ZN3USB4TaskEv+0x3cc>
   41b70:	00bfe004 	movi	r2,-128
   41b74:	d0b24145 	stb	r2,-14075(gp)
                case USB_STATE_CONFIGURING:

                        //Serial.print("\r\nConf.LS: ");
                        //Serial.println(lowspeed, HEX);

                        rcode = Configuring(0, 0, lowspeed);
   41b78:	e0bffc03 	ldbu	r2,-16(fp)
   41b7c:	100f883a 	mov	r7,r2
   41b80:	000d883a 	mov	r6,zero
   41b84:	000b883a 	mov	r5,zero
   41b88:	e13ffe17 	ldw	r4,-8(fp)
   41b8c:	0041ffc0 	call	41ffc <_ZN3USB11ConfiguringEhhb>
   41b90:	e0bffd05 	stb	r2,-12(fp)

                        if(rcode) {
   41b94:	e0bffd03 	ldbu	r2,-12(fp)
   41b98:	10000826 	beq	r2,zero,41bbc <_ZN3USB4TaskEv+0x3a0>
                                if(rcode != USB_DEV_CONFIG_ERROR_DEVICE_INIT_INCOMPLETE) {
   41b9c:	e0bffd03 	ldbu	r2,-12(fp)
   41ba0:	108034a0 	cmpeqi	r2,r2,210
   41ba4:	1000121e 	bne	r2,zero,41bf0 <_ZN3USB4TaskEv+0x3d4>
                                        usb_error = rcode;
   41ba8:	e0bffd03 	ldbu	r2,-12(fp)
   41bac:	d0b24105 	stb	r2,-14076(gp)
                                        usb_task_state = USB_STATE_ERROR;
   41bb0:	00bfe804 	movi	r2,-96
   41bb4:	d0b24145 	stb	r2,-14075(gp)
                                }
                        } else
                                usb_task_state = USB_STATE_RUNNING;
                        break;
   41bb8:	00000d06 	br	41bf0 <_ZN3USB4TaskEv+0x3d4>
                                if(rcode != USB_DEV_CONFIG_ERROR_DEVICE_INIT_INCOMPLETE) {
                                        usb_error = rcode;
                                        usb_task_state = USB_STATE_ERROR;
                                }
                        } else
                                usb_task_state = USB_STATE_RUNNING;
   41bbc:	00bfe404 	movi	r2,-112
   41bc0:	d0b24145 	stb	r2,-14075(gp)
                        break;
   41bc4:	00000a06 	br	41bf0 <_ZN3USB4TaskEv+0x3d4>
                        usb_task_state = USB_DETACHED_SUBSTATE_WAIT_FOR_DEVICE;
                        break;
                case USB_DETACHED_SUBSTATE_WAIT_FOR_DEVICE: //just sit here
                        break;
                case USB_DETACHED_SUBSTATE_ILLEGAL: //just sit here
                        break;
   41bc8:	0001883a 	nop
   41bcc:	00000906 	br	41bf4 <_ZN3USB4TaskEv+0x3d8>
                case USB_ATTACHED_SUBSTATE_SETTLE: //settle time for just attached device
                        if((int32_t)((uint32_t)millis() - delay) >= 0L)
                                usb_task_state = USB_ATTACHED_SUBSTATE_RESET_DEVICE;
                        else break; // don't fall through
   41bd0:	0001883a 	nop
   41bd4:	00000706 	br	41bf4 <_ZN3USB4TaskEv+0x3d8>
                                tmpdata = regRd(rMODE) | bmSOFKAENAB; //start SOF generation
                                regWr(rMODE, tmpdata);
                                usb_task_state = USB_ATTACHED_SUBSTATE_WAIT_SOF;
                                //delay = (uint32_t)millis() + 20; //20ms wait after reset per USB spec
                        }
                        break;
   41bd8:	0001883a 	nop
   41bdc:	00000506 	br	41bf4 <_ZN3USB4TaskEv+0x3d8>
                                        usb_task_state = USB_STATE_CONFIGURING;
                                 */
                                usb_task_state = USB_ATTACHED_SUBSTATE_WAIT_RESET;
                                delay = (uint32_t)millis() + 20;
                        }
                        break;
   41be0:	0001883a 	nop
   41be4:	00000306 	br	41bf4 <_ZN3USB4TaskEv+0x3d8>
                case USB_ATTACHED_SUBSTATE_WAIT_RESET:
                        if((int32_t)((uint32_t)millis() - delay) >= 0L) usb_task_state = USB_STATE_CONFIGURING;
                        else break; // don't fall through
   41be8:	0001883a 	nop
   41bec:	00000106 	br	41bf4 <_ZN3USB4TaskEv+0x3d8>
                                        usb_error = rcode;
                                        usb_task_state = USB_STATE_ERROR;
                                }
                        } else
                                usb_task_state = USB_STATE_RUNNING;
                        break;
   41bf0:	0001883a 	nop
                        break;
                case USB_STATE_ERROR:
                        //MAX3421E::Init();
                        break;
        } // switch( usb_task_state )
}
   41bf4:	0001883a 	nop
   41bf8:	e037883a 	mov	sp,fp
   41bfc:	dfc00117 	ldw	ra,4(sp)
   41c00:	df000017 	ldw	fp,0(sp)
   41c04:	dec00204 	addi	sp,sp,8
   41c08:	f800283a 	ret

00041c0c <_ZN3USB17DefaultAddressingEhhb>:

uint8_t USB::DefaultAddressing(uint8_t parent, uint8_t port, bool lowspeed) {
   41c0c:	defff704 	addi	sp,sp,-36
   41c10:	dfc00815 	stw	ra,32(sp)
   41c14:	df000715 	stw	fp,28(sp)
   41c18:	df000704 	addi	fp,sp,28
   41c1c:	e13ffc15 	stw	r4,-16(fp)
   41c20:	2809883a 	mov	r4,r5
   41c24:	3007883a 	mov	r3,r6
   41c28:	3805883a 	mov	r2,r7
   41c2c:	e13ffd05 	stb	r4,-12(fp)
   41c30:	e0fffe05 	stb	r3,-8(fp)
   41c34:	e0bfff05 	stb	r2,-4(fp)
        //uint8_t                buf[12];
        uint8_t rcode;
        UsbDevice *p0 = NULL, *p = NULL;
   41c38:	e03ff915 	stw	zero,-28(fp)
   41c3c:	e03ffa15 	stw	zero,-24(fp)

        // Get pointer to pseudo device with address 0 assigned
        p0 = addrPool.GetUsbDevicePtr(0);
   41c40:	e0bffc17 	ldw	r2,-16(fp)
   41c44:	000b883a 	mov	r5,zero
   41c48:	1009883a 	mov	r4,r2
   41c4c:	0042d3c0 	call	42d3c <_ZN15AddressPoolImplILh16EE15GetUsbDevicePtrEh>
   41c50:	e0bff915 	stw	r2,-28(fp)

        if(!p0)
   41c54:	e0bff917 	ldw	r2,-28(fp)
   41c58:	1000021e 	bne	r2,zero,41c64 <_ZN3USB17DefaultAddressingEhhb+0x58>
                return USB_ERROR_ADDRESS_NOT_FOUND_IN_POOL;
   41c5c:	00bff584 	movi	r2,-42
   41c60:	00003d06 	br	41d58 <_ZN3USB17DefaultAddressingEhhb+0x14c>

        if(!p0->epinfo)
   41c64:	e0bff917 	ldw	r2,-28(fp)
   41c68:	10c00003 	ldbu	r3,0(r2)
   41c6c:	11000043 	ldbu	r4,1(r2)
   41c70:	2008923a 	slli	r4,r4,8
   41c74:	20c6b03a 	or	r3,r4,r3
   41c78:	11000083 	ldbu	r4,2(r2)
   41c7c:	2008943a 	slli	r4,r4,16
   41c80:	20c6b03a 	or	r3,r4,r3
   41c84:	108000c3 	ldbu	r2,3(r2)
   41c88:	1004963a 	slli	r2,r2,24
   41c8c:	10c4b03a 	or	r2,r2,r3
   41c90:	1000021e 	bne	r2,zero,41c9c <_ZN3USB17DefaultAddressingEhhb+0x90>
                return USB_ERROR_EPINFO_IS_NULL;
   41c94:	00bff5c4 	movi	r2,-41
   41c98:	00002f06 	br	41d58 <_ZN3USB17DefaultAddressingEhhb+0x14c>

        p0->lowspeed = (lowspeed) ? true : false;
   41c9c:	e0bff917 	ldw	r2,-28(fp)
   41ca0:	e0ffff03 	ldbu	r3,-4(fp)
   41ca4:	10c00185 	stb	r3,6(r2)

        // Allocate new address according to device class
        uint8_t bAddress = addrPool.AllocAddress(parent, false, port);
   41ca8:	e0bffc17 	ldw	r2,-16(fp)
   41cac:	e0fffd03 	ldbu	r3,-12(fp)
   41cb0:	e13ffe03 	ldbu	r4,-8(fp)
   41cb4:	200f883a 	mov	r7,r4
   41cb8:	000d883a 	mov	r6,zero
   41cbc:	180b883a 	mov	r5,r3
   41cc0:	1009883a 	mov	r4,r2
   41cc4:	0042df40 	call	42df4 <_ZN15AddressPoolImplILh16EE12AllocAddressEhbh>
   41cc8:	e0bffb05 	stb	r2,-20(fp)

        if(!bAddress)
   41ccc:	e0bffb03 	ldbu	r2,-20(fp)
   41cd0:	1000021e 	bne	r2,zero,41cdc <_ZN3USB17DefaultAddressingEhhb+0xd0>
                return USB_ERROR_OUT_OF_ADDRESS_SPACE_IN_POOL;
   41cd4:	00bff504 	movi	r2,-44
   41cd8:	00001f06 	br	41d58 <_ZN3USB17DefaultAddressingEhhb+0x14c>

        p = addrPool.GetUsbDevicePtr(bAddress);
   41cdc:	e0bffc17 	ldw	r2,-16(fp)
   41ce0:	e0fffb03 	ldbu	r3,-20(fp)
   41ce4:	180b883a 	mov	r5,r3
   41ce8:	1009883a 	mov	r4,r2
   41cec:	0042d3c0 	call	42d3c <_ZN15AddressPoolImplILh16EE15GetUsbDevicePtrEh>
   41cf0:	e0bffa15 	stw	r2,-24(fp)

        if(!p)
   41cf4:	e0bffa17 	ldw	r2,-24(fp)
   41cf8:	1000021e 	bne	r2,zero,41d04 <_ZN3USB17DefaultAddressingEhhb+0xf8>
                return USB_ERROR_ADDRESS_NOT_FOUND_IN_POOL;
   41cfc:	00bff584 	movi	r2,-42
   41d00:	00001506 	br	41d58 <_ZN3USB17DefaultAddressingEhhb+0x14c>

        p->lowspeed = lowspeed;
   41d04:	e0bffa17 	ldw	r2,-24(fp)
   41d08:	e0ffff03 	ldbu	r3,-4(fp)
   41d0c:	10c00185 	stb	r3,6(r2)

        // Assign new address to the device
        rcode = setAddr(0, 0, bAddress);
   41d10:	e0bffb03 	ldbu	r2,-20(fp)
   41d14:	100f883a 	mov	r7,r2
   41d18:	000d883a 	mov	r6,zero
   41d1c:	000b883a 	mov	r5,zero
   41d20:	e13ffc17 	ldw	r4,-16(fp)
   41d24:	0042b000 	call	42b00 <_ZN3USB7setAddrEhhh>
   41d28:	e0bffb45 	stb	r2,-19(fp)

        if(rcode) {
   41d2c:	e0bffb43 	ldbu	r2,-19(fp)
   41d30:	10000826 	beq	r2,zero,41d54 <_ZN3USB17DefaultAddressingEhhb+0x148>
                addrPool.FreeAddress(bAddress);
   41d34:	e0bffc17 	ldw	r2,-16(fp)
   41d38:	e0fffb03 	ldbu	r3,-20(fp)
   41d3c:	180b883a 	mov	r5,r3
   41d40:	1009883a 	mov	r4,r2
   41d44:	00430540 	call	43054 <_ZN15AddressPoolImplILh16EE11FreeAddressEh>
                bAddress = 0;
   41d48:	e03ffb05 	stb	zero,-20(fp)
                return rcode;
   41d4c:	e0bffb43 	ldbu	r2,-19(fp)
   41d50:	00000106 	br	41d58 <_ZN3USB17DefaultAddressingEhhb+0x14c>
        }
        return 0;
   41d54:	0005883a 	mov	r2,zero
};
   41d58:	e037883a 	mov	sp,fp
   41d5c:	dfc00117 	ldw	ra,4(sp)
   41d60:	df000017 	ldw	fp,0(sp)
   41d64:	dec00204 	addi	sp,sp,8
   41d68:	f800283a 	ret

00041d6c <_ZN3USB13AttemptConfigEhhhb>:

uint8_t USB::AttemptConfig(uint8_t driver, uint8_t parent, uint8_t port, bool lowspeed) {
   41d6c:	defff804 	addi	sp,sp,-32
   41d70:	dfc00715 	stw	ra,28(sp)
   41d74:	df000615 	stw	fp,24(sp)
   41d78:	df000604 	addi	fp,sp,24
   41d7c:	e13ffb15 	stw	r4,-20(fp)
   41d80:	3009883a 	mov	r4,r6
   41d84:	3807883a 	mov	r3,r7
   41d88:	e0800217 	ldw	r2,8(fp)
   41d8c:	e17ffc05 	stb	r5,-16(fp)
   41d90:	e13ffd05 	stb	r4,-12(fp)
   41d94:	e0fffe05 	stb	r3,-8(fp)
   41d98:	e0bfff05 	stb	r2,-4(fp)
        //printf("AttemptConfig: parent = %i, port = %i\r\n", parent, port);
        uint8_t retries = 0;
   41d9c:	e03ffa05 	stb	zero,-24(fp)

again:
        uint8_t rcode = devConfig[driver]->ConfigureDevice(parent, port, lowspeed);
   41da0:	e0bffc03 	ldbu	r2,-16(fp)
   41da4:	e0fffb17 	ldw	r3,-20(fp)
   41da8:	10800784 	addi	r2,r2,30
   41dac:	1085883a 	add	r2,r2,r2
   41db0:	1085883a 	add	r2,r2,r2
   41db4:	1885883a 	add	r2,r3,r2
   41db8:	10800017 	ldw	r2,0(r2)
   41dbc:	10800017 	ldw	r2,0(r2)
   41dc0:	10800104 	addi	r2,r2,4
   41dc4:	10c00017 	ldw	r3,0(r2)
   41dc8:	e0bffc03 	ldbu	r2,-16(fp)
   41dcc:	e13ffb17 	ldw	r4,-20(fp)
   41dd0:	10800784 	addi	r2,r2,30
   41dd4:	1085883a 	add	r2,r2,r2
   41dd8:	1085883a 	add	r2,r2,r2
   41ddc:	2085883a 	add	r2,r4,r2
   41de0:	10800017 	ldw	r2,0(r2)
   41de4:	e13ffd03 	ldbu	r4,-12(fp)
   41de8:	e17ffe03 	ldbu	r5,-8(fp)
   41dec:	e1bfff03 	ldbu	r6,-4(fp)
   41df0:	300f883a 	mov	r7,r6
   41df4:	280d883a 	mov	r6,r5
   41df8:	200b883a 	mov	r5,r4
   41dfc:	1009883a 	mov	r4,r2
   41e00:	183ee83a 	callr	r3
   41e04:	e0bffa45 	stb	r2,-23(fp)
        if(rcode == USB_ERROR_CONFIG_REQUIRES_ADDITIONAL_RESET) {
   41e08:	e0bffa43 	ldbu	r2,-23(fp)
   41e0c:	10803818 	cmpnei	r2,r2,224
   41e10:	10001f1e 	bne	r2,zero,41e90 <_ZN3USB13AttemptConfigEhhhb+0x124>
                if(parent == 0) {
   41e14:	e0bffd03 	ldbu	r2,-12(fp)
   41e18:	1000071e 	bne	r2,zero,41e38 <_ZN3USB13AttemptConfigEhhhb+0xcc>
                        // Send a bus reset on the root interface.
                        regWr(rHCTL, bmBUSRST); //issue bus reset
   41e1c:	01800044 	movi	r6,1
   41e20:	01403a04 	movi	r5,232
   41e24:	e13ffb17 	ldw	r4,-20(fp)
   41e28:	0049a040 	call	49a04 <_ZN8MAX3421e5regWrEhh>
                        delay(102); // delay 102ms, compensate for clock inaccuracy.
   41e2c:	01001984 	movi	r4,102
   41e30:	00406840 	call	40684 <_Z5delaym>
   41e34:	00002606 	br	41ed0 <_ZN3USB13AttemptConfigEhhhb+0x164>
                } else {
                        // reset parent port
                        devConfig[parent]->ResetHubPort(port);
   41e38:	e0bffd03 	ldbu	r2,-12(fp)
   41e3c:	e0fffb17 	ldw	r3,-20(fp)
   41e40:	10800784 	addi	r2,r2,30
   41e44:	1085883a 	add	r2,r2,r2
   41e48:	1085883a 	add	r2,r2,r2
   41e4c:	1885883a 	add	r2,r3,r2
   41e50:	10800017 	ldw	r2,0(r2)
   41e54:	10800017 	ldw	r2,0(r2)
   41e58:	10800504 	addi	r2,r2,20
   41e5c:	10c00017 	ldw	r3,0(r2)
   41e60:	e0bffd03 	ldbu	r2,-12(fp)
   41e64:	e13ffb17 	ldw	r4,-20(fp)
   41e68:	10800784 	addi	r2,r2,30
   41e6c:	1085883a 	add	r2,r2,r2
   41e70:	1085883a 	add	r2,r2,r2
   41e74:	2085883a 	add	r2,r4,r2
   41e78:	10800017 	ldw	r2,0(r2)
   41e7c:	e13ffe03 	ldbu	r4,-8(fp)
   41e80:	200b883a 	mov	r5,r4
   41e84:	1009883a 	mov	r4,r2
   41e88:	183ee83a 	callr	r3
   41e8c:	00001006 	br	41ed0 <_ZN3USB13AttemptConfigEhhhb+0x164>
                }
        } else if(rcode == hrJERR && retries < 3) { // Some devices returns this when plugged in - trying to initialize the device again usually works
   41e90:	e0bffa43 	ldbu	r2,-23(fp)
   41e94:	10800358 	cmpnei	r2,r2,13
   41e98:	1000091e 	bne	r2,zero,41ec0 <_ZN3USB13AttemptConfigEhhhb+0x154>
   41e9c:	e0bffa03 	ldbu	r2,-24(fp)
   41ea0:	108000e8 	cmpgeui	r2,r2,3
   41ea4:	1000061e 	bne	r2,zero,41ec0 <_ZN3USB13AttemptConfigEhhhb+0x154>
                delay(100);
   41ea8:	01001904 	movi	r4,100
   41eac:	00406840 	call	40684 <_Z5delaym>
                retries++;
   41eb0:	e0bffa03 	ldbu	r2,-24(fp)
   41eb4:	10800044 	addi	r2,r2,1
   41eb8:	e0bffa05 	stb	r2,-24(fp)
                goto again;
   41ebc:	003fb806 	br	41da0 <__alt_data_end+0xfffc1da0>
        } else if(rcode)
   41ec0:	e0bffa43 	ldbu	r2,-23(fp)
   41ec4:	10000226 	beq	r2,zero,41ed0 <_ZN3USB13AttemptConfigEhhhb+0x164>
                return rcode;
   41ec8:	e0bffa43 	ldbu	r2,-23(fp)
   41ecc:	00004606 	br	41fe8 <_ZN3USB13AttemptConfigEhhhb+0x27c>

        rcode = devConfig[driver]->Init(parent, port, lowspeed);
   41ed0:	e0bffc03 	ldbu	r2,-16(fp)
   41ed4:	e0fffb17 	ldw	r3,-20(fp)
   41ed8:	10800784 	addi	r2,r2,30
   41edc:	1085883a 	add	r2,r2,r2
   41ee0:	1085883a 	add	r2,r2,r2
   41ee4:	1885883a 	add	r2,r3,r2
   41ee8:	10800017 	ldw	r2,0(r2)
   41eec:	10800017 	ldw	r2,0(r2)
   41ef0:	10c00017 	ldw	r3,0(r2)
   41ef4:	e0bffc03 	ldbu	r2,-16(fp)
   41ef8:	e13ffb17 	ldw	r4,-20(fp)
   41efc:	10800784 	addi	r2,r2,30
   41f00:	1085883a 	add	r2,r2,r2
   41f04:	1085883a 	add	r2,r2,r2
   41f08:	2085883a 	add	r2,r4,r2
   41f0c:	10800017 	ldw	r2,0(r2)
   41f10:	e13ffd03 	ldbu	r4,-12(fp)
   41f14:	e17ffe03 	ldbu	r5,-8(fp)
   41f18:	e1bfff03 	ldbu	r6,-4(fp)
   41f1c:	300f883a 	mov	r7,r6
   41f20:	280d883a 	mov	r6,r5
   41f24:	200b883a 	mov	r5,r4
   41f28:	1009883a 	mov	r4,r2
   41f2c:	183ee83a 	callr	r3
   41f30:	e0bffa45 	stb	r2,-23(fp)
        if(rcode == hrJERR && retries < 3) { // Some devices returns this when plugged in - trying to initialize the device again usually works
   41f34:	e0bffa43 	ldbu	r2,-23(fp)
   41f38:	10800358 	cmpnei	r2,r2,13
   41f3c:	1000091e 	bne	r2,zero,41f64 <_ZN3USB13AttemptConfigEhhhb+0x1f8>
   41f40:	e0bffa03 	ldbu	r2,-24(fp)
   41f44:	108000e8 	cmpgeui	r2,r2,3
   41f48:	1000061e 	bne	r2,zero,41f64 <_ZN3USB13AttemptConfigEhhhb+0x1f8>
                delay(100);
   41f4c:	01001904 	movi	r4,100
   41f50:	00406840 	call	40684 <_Z5delaym>
                retries++;
   41f54:	e0bffa03 	ldbu	r2,-24(fp)
   41f58:	10800044 	addi	r2,r2,1
   41f5c:	e0bffa05 	stb	r2,-24(fp)
                goto again;
   41f60:	003f8f06 	br	41da0 <__alt_data_end+0xfffc1da0>
        }
        if(rcode) {
   41f64:	e0bffa43 	ldbu	r2,-23(fp)
   41f68:	10001e26 	beq	r2,zero,41fe4 <_ZN3USB13AttemptConfigEhhhb+0x278>
                // Issue a bus reset, because the device may be in a limbo state
                if(parent == 0) {
   41f6c:	e0bffd03 	ldbu	r2,-12(fp)
   41f70:	1000071e 	bne	r2,zero,41f90 <_ZN3USB13AttemptConfigEhhhb+0x224>
                        // Send a bus reset on the root interface.
                        regWr(rHCTL, bmBUSRST); //issue bus reset
   41f74:	01800044 	movi	r6,1
   41f78:	01403a04 	movi	r5,232
   41f7c:	e13ffb17 	ldw	r4,-20(fp)
   41f80:	0049a040 	call	49a04 <_ZN8MAX3421e5regWrEhh>
                        delay(102); // delay 102ms, compensate for clock inaccuracy.
   41f84:	01001984 	movi	r4,102
   41f88:	00406840 	call	40684 <_Z5delaym>
   41f8c:	00001506 	br	41fe4 <_ZN3USB13AttemptConfigEhhhb+0x278>
                } else {
                        // reset parent port
                        devConfig[parent]->ResetHubPort(port);
   41f90:	e0bffd03 	ldbu	r2,-12(fp)
   41f94:	e0fffb17 	ldw	r3,-20(fp)
   41f98:	10800784 	addi	r2,r2,30
   41f9c:	1085883a 	add	r2,r2,r2
   41fa0:	1085883a 	add	r2,r2,r2
   41fa4:	1885883a 	add	r2,r3,r2
   41fa8:	10800017 	ldw	r2,0(r2)
   41fac:	10800017 	ldw	r2,0(r2)
   41fb0:	10800504 	addi	r2,r2,20
   41fb4:	10c00017 	ldw	r3,0(r2)
   41fb8:	e0bffd03 	ldbu	r2,-12(fp)
   41fbc:	e13ffb17 	ldw	r4,-20(fp)
   41fc0:	10800784 	addi	r2,r2,30
   41fc4:	1085883a 	add	r2,r2,r2
   41fc8:	1085883a 	add	r2,r2,r2
   41fcc:	2085883a 	add	r2,r4,r2
   41fd0:	10800017 	ldw	r2,0(r2)
   41fd4:	e13ffe03 	ldbu	r4,-8(fp)
   41fd8:	200b883a 	mov	r5,r4
   41fdc:	1009883a 	mov	r4,r2
   41fe0:	183ee83a 	callr	r3
                }
        }
        return rcode;
   41fe4:	e0bffa43 	ldbu	r2,-23(fp)
}
   41fe8:	e037883a 	mov	sp,fp
   41fec:	dfc00117 	ldw	ra,4(sp)
   41ff0:	df000017 	ldw	fp,0(sp)
   41ff4:	dec00204 	addi	sp,sp,8
   41ff8:	f800283a 	ret

00041ffc <_ZN3USB11ConfiguringEhhb>:
 * 7: for(each driver) {
 *      7a: Ask device if it knows this VID/PID. Acts exactly like 6a, but using VID/PID
 * 8: if we get here, no driver likes the device plugged in, so exit failure.
 *
 */
uint8_t USB::Configuring(uint8_t parent, uint8_t port, bool lowspeed) {
   41ffc:	deffed04 	addi	sp,sp,-76
   42000:	dfc01215 	stw	ra,72(sp)
   42004:	df001115 	stw	fp,68(sp)
   42008:	df001104 	addi	fp,sp,68
   4200c:	e13ffc15 	stw	r4,-16(fp)
   42010:	2809883a 	mov	r4,r5
   42014:	3007883a 	mov	r3,r6
   42018:	3805883a 	mov	r2,r7
   4201c:	e13ffd05 	stb	r4,-12(fp)
   42020:	e0fffe05 	stb	r3,-8(fp)
   42024:	e0bfff05 	stb	r2,-4(fp)
        //uint8_t bAddress = 0;
        //printf("Configuring: parent = %i, port = %i\r\n", parent, port);
        uint8_t devConfigIndex;
        uint8_t rcode = 0;
   42028:	e03ff045 	stb	zero,-63(fp)
        uint8_t buf[sizeof (USB_DEVICE_DESCRIPTOR)];
        USB_DEVICE_DESCRIPTOR *udd = reinterpret_cast<USB_DEVICE_DESCRIPTOR *>(buf);
   4202c:	e0bff684 	addi	r2,fp,-38
   42030:	e0bff115 	stw	r2,-60(fp)
        UsbDevice *p = NULL;
   42034:	e03ff215 	stw	zero,-56(fp)
        EpInfo *oldep_ptr = NULL;
   42038:	e03ff315 	stw	zero,-52(fp)
        EpInfo epInfo;

        epInfo.epAddr = 0;
   4203c:	e03ffb05 	stb	zero,-20(fp)
        epInfo.maxPktSize = 8;
   42040:	00800204 	movi	r2,8
   42044:	e0bffb45 	stb	r2,-19(fp)
        epInfo.bmSndToggle = 0;
   42048:	e0fffb83 	ldbu	r3,-18(fp)
   4204c:	00bfff84 	movi	r2,-2
   42050:	1884703a 	and	r2,r3,r2
   42054:	e0bffb85 	stb	r2,-18(fp)
        epInfo.bmRcvToggle = 0;
   42058:	e0fffb83 	ldbu	r3,-18(fp)
   4205c:	00bfff44 	movi	r2,-3
   42060:	1884703a 	and	r2,r3,r2
   42064:	e0bffb85 	stb	r2,-18(fp)
        epInfo.bmNakPower = USB_NAK_MAX_POWER;
   42068:	e0bffb83 	ldbu	r2,-18(fp)
   4206c:	108000cc 	andi	r2,r2,3
   42070:	10800f14 	ori	r2,r2,60
   42074:	e0bffb85 	stb	r2,-18(fp)

        //delay(2000);
        AddressPool &addrPool = GetAddressPool();
   42078:	e13ffc17 	ldw	r4,-16(fp)
   4207c:	0042c180 	call	42c18 <_ZN3USB14GetAddressPoolEv>
   42080:	e0bff415 	stw	r2,-48(fp)
        // Get pointer to pseudo device with address 0 assigned
        p = addrPool.GetUsbDevicePtr(0);
   42084:	e0bff417 	ldw	r2,-48(fp)
   42088:	10800017 	ldw	r2,0(r2)
   4208c:	10800017 	ldw	r2,0(r2)
   42090:	000b883a 	mov	r5,zero
   42094:	e13ff417 	ldw	r4,-48(fp)
   42098:	103ee83a 	callr	r2
   4209c:	e0bff215 	stw	r2,-56(fp)
        if(!p) {
   420a0:	e0bff217 	ldw	r2,-56(fp)
   420a4:	1000021e 	bne	r2,zero,420b0 <_ZN3USB11ConfiguringEhhb+0xb4>
                //printf("Configuring error: USB_ERROR_ADDRESS_NOT_FOUND_IN_POOL\r\n");
                return USB_ERROR_ADDRESS_NOT_FOUND_IN_POOL;
   420a8:	00bff584 	movi	r2,-42
   420ac:	00019206 	br	426f8 <_ZN3USB11ConfiguringEhhb+0x6fc>
        }

        // Save old pointer to EP_RECORD of address 0
        oldep_ptr = p->epinfo;
   420b0:	e0bff217 	ldw	r2,-56(fp)
   420b4:	10c00003 	ldbu	r3,0(r2)
   420b8:	11000043 	ldbu	r4,1(r2)
   420bc:	2008923a 	slli	r4,r4,8
   420c0:	20c6b03a 	or	r3,r4,r3
   420c4:	11000083 	ldbu	r4,2(r2)
   420c8:	2008943a 	slli	r4,r4,16
   420cc:	20c6b03a 	or	r3,r4,r3
   420d0:	108000c3 	ldbu	r2,3(r2)
   420d4:	1004963a 	slli	r2,r2,24
   420d8:	10c4b03a 	or	r2,r2,r3
   420dc:	e0bff315 	stw	r2,-52(fp)

        // Temporary assign new pointer to epInfo to p->epinfo in order to
        // avoid toggle inconsistence

        p->epinfo = &epInfo;
   420e0:	e0bff217 	ldw	r2,-56(fp)
   420e4:	e0fffb04 	addi	r3,fp,-20
   420e8:	19803fcc 	andi	r6,r3,255
   420ec:	11000003 	ldbu	r4,0(r2)
   420f0:	2008703a 	and	r4,r4,zero
   420f4:	200b883a 	mov	r5,r4
   420f8:	3009883a 	mov	r4,r6
   420fc:	2908b03a 	or	r4,r5,r4
   42100:	11000005 	stb	r4,0(r2)
   42104:	1808d23a 	srli	r4,r3,8
   42108:	21803fcc 	andi	r6,r4,255
   4210c:	11000043 	ldbu	r4,1(r2)
   42110:	2008703a 	and	r4,r4,zero
   42114:	200b883a 	mov	r5,r4
   42118:	3009883a 	mov	r4,r6
   4211c:	2908b03a 	or	r4,r5,r4
   42120:	11000045 	stb	r4,1(r2)
   42124:	1808d43a 	srli	r4,r3,16
   42128:	21803fcc 	andi	r6,r4,255
   4212c:	11000083 	ldbu	r4,2(r2)
   42130:	2008703a 	and	r4,r4,zero
   42134:	200b883a 	mov	r5,r4
   42138:	3009883a 	mov	r4,r6
   4213c:	2908b03a 	or	r4,r5,r4
   42140:	11000085 	stb	r4,2(r2)
   42144:	180ad63a 	srli	r5,r3,24
   42148:	10c000c3 	ldbu	r3,3(r2)
   4214c:	1806703a 	and	r3,r3,zero
   42150:	1809883a 	mov	r4,r3
   42154:	2807883a 	mov	r3,r5
   42158:	20c6b03a 	or	r3,r4,r3
   4215c:	10c000c5 	stb	r3,3(r2)

        p->lowspeed = lowspeed;
   42160:	e0bff217 	ldw	r2,-56(fp)
   42164:	e0ffff03 	ldbu	r3,-4(fp)
   42168:	10c00185 	stb	r3,6(r2)
        // Get device descriptor
        rcode = getDevDescr(0, 0, sizeof (USB_DEVICE_DESCRIPTOR), (uint8_t*)buf);
   4216c:	00800484 	movi	r2,18
   42170:	10ffffcc 	andi	r3,r2,65535
   42174:	e0bff684 	addi	r2,fp,-38
   42178:	d8800015 	stw	r2,0(sp)
   4217c:	180f883a 	mov	r7,r3
   42180:	000d883a 	mov	r6,zero
   42184:	000b883a 	mov	r5,zero
   42188:	e13ffc17 	ldw	r4,-16(fp)
   4218c:	00428440 	call	42844 <_ZN3USB11getDevDescrEhhtPh>
   42190:	e0bff045 	stb	r2,-63(fp)

        // Restore p->epinfo
        p->epinfo = oldep_ptr;
   42194:	e0bff217 	ldw	r2,-56(fp)
   42198:	e0fff317 	ldw	r3,-52(fp)
   4219c:	19403fcc 	andi	r5,r3,255
   421a0:	10c00003 	ldbu	r3,0(r2)
   421a4:	1806703a 	and	r3,r3,zero
   421a8:	1809883a 	mov	r4,r3
   421ac:	2807883a 	mov	r3,r5
   421b0:	20c6b03a 	or	r3,r4,r3
   421b4:	10c00005 	stb	r3,0(r2)
   421b8:	e0fff317 	ldw	r3,-52(fp)
   421bc:	1806d23a 	srli	r3,r3,8
   421c0:	19403fcc 	andi	r5,r3,255
   421c4:	10c00043 	ldbu	r3,1(r2)
   421c8:	1806703a 	and	r3,r3,zero
   421cc:	1809883a 	mov	r4,r3
   421d0:	2807883a 	mov	r3,r5
   421d4:	20c6b03a 	or	r3,r4,r3
   421d8:	10c00045 	stb	r3,1(r2)
   421dc:	e0fff317 	ldw	r3,-52(fp)
   421e0:	1806d43a 	srli	r3,r3,16
   421e4:	19403fcc 	andi	r5,r3,255
   421e8:	10c00083 	ldbu	r3,2(r2)
   421ec:	1806703a 	and	r3,r3,zero
   421f0:	1809883a 	mov	r4,r3
   421f4:	2807883a 	mov	r3,r5
   421f8:	20c6b03a 	or	r3,r4,r3
   421fc:	10c00085 	stb	r3,2(r2)
   42200:	e0fff317 	ldw	r3,-52(fp)
   42204:	180ad63a 	srli	r5,r3,24
   42208:	10c000c3 	ldbu	r3,3(r2)
   4220c:	1806703a 	and	r3,r3,zero
   42210:	1809883a 	mov	r4,r3
   42214:	2807883a 	mov	r3,r5
   42218:	20c6b03a 	or	r3,r4,r3
   4221c:	10c000c5 	stb	r3,3(r2)

        if(rcode) {
   42220:	e0bff043 	ldbu	r2,-63(fp)
   42224:	10000226 	beq	r2,zero,42230 <_ZN3USB11ConfiguringEhhb+0x234>
                //printf("Configuring error: Can't get USB_DEVICE_DESCRIPTOR\r\n");
                return rcode;
   42228:	e0bff043 	ldbu	r2,-63(fp)
   4222c:	00013206 	br	426f8 <_ZN3USB11ConfiguringEhhb+0x6fc>

        // to-do?
        // Allocate new address according to device class
        //bAddress = addrPool.AllocAddress(parent, false, port);

        uint16_t vid = udd->idVendor;
   42230:	e0bff117 	ldw	r2,-60(fp)
   42234:	10c00203 	ldbu	r3,8(r2)
   42238:	10800243 	ldbu	r2,9(r2)
   4223c:	1004923a 	slli	r2,r2,8
   42240:	10c4b03a 	or	r2,r2,r3
   42244:	e0bff50d 	sth	r2,-44(fp)
        uint16_t pid = udd->idProduct;
   42248:	e0bff117 	ldw	r2,-60(fp)
   4224c:	10c00283 	ldbu	r3,10(r2)
   42250:	108002c3 	ldbu	r2,11(r2)
   42254:	1004923a 	slli	r2,r2,8
   42258:	10c4b03a 	or	r2,r2,r3
   4225c:	e0bff58d 	sth	r2,-42(fp)
        uint8_t klass = udd->bDeviceClass;
   42260:	e0bff117 	ldw	r2,-60(fp)
   42264:	10800103 	ldbu	r2,4(r2)
   42268:	e0bff605 	stb	r2,-40(fp)
        uint8_t subklass = udd->bDeviceSubClass;
   4226c:	e0bff117 	ldw	r2,-60(fp)
   42270:	10800143 	ldbu	r2,5(r2)
   42274:	e0bff645 	stb	r2,-39(fp)
        // Qualify with subclass too.
        //
        // VID/PID & class tests default to false for drivers not yet ported
        // subclass defaults to true, so you don't have to define it if you don't have to.
        //
        for(devConfigIndex = 0; devConfigIndex < USB_NUMDEVICES; devConfigIndex++) {
   42278:	e03ff005 	stb	zero,-64(fp)
   4227c:	e0bff003 	ldbu	r2,-64(fp)
   42280:	10800428 	cmpgeui	r2,r2,16
   42284:	1000821e 	bne	r2,zero,42490 <_ZN3USB11ConfiguringEhhb+0x494>
                if(!devConfig[devConfigIndex]) continue;// no driver
   42288:	e0bff003 	ldbu	r2,-64(fp)
   4228c:	e0fffc17 	ldw	r3,-16(fp)
   42290:	10800784 	addi	r2,r2,30
   42294:	1085883a 	add	r2,r2,r2
   42298:	1085883a 	add	r2,r2,r2
   4229c:	1885883a 	add	r2,r3,r2
   422a0:	10800017 	ldw	r2,0(r2)
   422a4:	10007226 	beq	r2,zero,42470 <_ZN3USB11ConfiguringEhhb+0x474>
                if(devConfig[devConfigIndex]->GetAddress()) continue; // consumed
   422a8:	e0bff003 	ldbu	r2,-64(fp)
   422ac:	e0fffc17 	ldw	r3,-16(fp)
   422b0:	10800784 	addi	r2,r2,30
   422b4:	1085883a 	add	r2,r2,r2
   422b8:	1085883a 	add	r2,r2,r2
   422bc:	1885883a 	add	r2,r3,r2
   422c0:	10800017 	ldw	r2,0(r2)
   422c4:	10800017 	ldw	r2,0(r2)
   422c8:	10800404 	addi	r2,r2,16
   422cc:	10c00017 	ldw	r3,0(r2)
   422d0:	e0bff003 	ldbu	r2,-64(fp)
   422d4:	e13ffc17 	ldw	r4,-16(fp)
   422d8:	10800784 	addi	r2,r2,30
   422dc:	1085883a 	add	r2,r2,r2
   422e0:	1085883a 	add	r2,r2,r2
   422e4:	2085883a 	add	r2,r4,r2
   422e8:	10800017 	ldw	r2,0(r2)
   422ec:	1009883a 	mov	r4,r2
   422f0:	183ee83a 	callr	r3
   422f4:	10803fcc 	andi	r2,r2,255
   422f8:	1004c03a 	cmpne	r2,r2,zero
   422fc:	10803fcc 	andi	r2,r2,255
   42300:	10005d1e 	bne	r2,zero,42478 <_ZN3USB11ConfiguringEhhb+0x47c>
                if(devConfig[devConfigIndex]->DEVSUBCLASSOK(subklass) && (devConfig[devConfigIndex]->VIDPIDOK(vid, pid) || devConfig[devConfigIndex]->DEVCLASSOK(klass))) {
   42304:	e0bff003 	ldbu	r2,-64(fp)
   42308:	e0fffc17 	ldw	r3,-16(fp)
   4230c:	10800784 	addi	r2,r2,30
   42310:	1085883a 	add	r2,r2,r2
   42314:	1085883a 	add	r2,r2,r2
   42318:	1885883a 	add	r2,r3,r2
   4231c:	10800017 	ldw	r2,0(r2)
   42320:	10800017 	ldw	r2,0(r2)
   42324:	10800804 	addi	r2,r2,32
   42328:	10c00017 	ldw	r3,0(r2)
   4232c:	e0bff003 	ldbu	r2,-64(fp)
   42330:	e13ffc17 	ldw	r4,-16(fp)
   42334:	10800784 	addi	r2,r2,30
   42338:	1085883a 	add	r2,r2,r2
   4233c:	1085883a 	add	r2,r2,r2
   42340:	2085883a 	add	r2,r4,r2
   42344:	10800017 	ldw	r2,0(r2)
   42348:	e13ff643 	ldbu	r4,-39(fp)
   4234c:	200b883a 	mov	r5,r4
   42350:	1009883a 	mov	r4,r2
   42354:	183ee83a 	callr	r3
   42358:	10803fcc 	andi	r2,r2,255
   4235c:	10003226 	beq	r2,zero,42428 <_ZN3USB11ConfiguringEhhb+0x42c>
   42360:	e0bff003 	ldbu	r2,-64(fp)
   42364:	e0fffc17 	ldw	r3,-16(fp)
   42368:	10800784 	addi	r2,r2,30
   4236c:	1085883a 	add	r2,r2,r2
   42370:	1085883a 	add	r2,r2,r2
   42374:	1885883a 	add	r2,r3,r2
   42378:	10800017 	ldw	r2,0(r2)
   4237c:	10800017 	ldw	r2,0(r2)
   42380:	10800604 	addi	r2,r2,24
   42384:	10c00017 	ldw	r3,0(r2)
   42388:	e0bff003 	ldbu	r2,-64(fp)
   4238c:	e13ffc17 	ldw	r4,-16(fp)
   42390:	10800784 	addi	r2,r2,30
   42394:	1085883a 	add	r2,r2,r2
   42398:	1085883a 	add	r2,r2,r2
   4239c:	2085883a 	add	r2,r4,r2
   423a0:	10800017 	ldw	r2,0(r2)
   423a4:	e13ff50b 	ldhu	r4,-44(fp)
   423a8:	e17ff58b 	ldhu	r5,-42(fp)
   423ac:	280d883a 	mov	r6,r5
   423b0:	200b883a 	mov	r5,r4
   423b4:	1009883a 	mov	r4,r2
   423b8:	183ee83a 	callr	r3
   423bc:	10803fcc 	andi	r2,r2,255
   423c0:	1000171e 	bne	r2,zero,42420 <_ZN3USB11ConfiguringEhhb+0x424>
   423c4:	e0bff003 	ldbu	r2,-64(fp)
   423c8:	e0fffc17 	ldw	r3,-16(fp)
   423cc:	10800784 	addi	r2,r2,30
   423d0:	1085883a 	add	r2,r2,r2
   423d4:	1085883a 	add	r2,r2,r2
   423d8:	1885883a 	add	r2,r3,r2
   423dc:	10800017 	ldw	r2,0(r2)
   423e0:	10800017 	ldw	r2,0(r2)
   423e4:	10800704 	addi	r2,r2,28
   423e8:	10c00017 	ldw	r3,0(r2)
   423ec:	e0bff003 	ldbu	r2,-64(fp)
   423f0:	e13ffc17 	ldw	r4,-16(fp)
   423f4:	10800784 	addi	r2,r2,30
   423f8:	1085883a 	add	r2,r2,r2
   423fc:	1085883a 	add	r2,r2,r2
   42400:	2085883a 	add	r2,r4,r2
   42404:	10800017 	ldw	r2,0(r2)
   42408:	e13ff603 	ldbu	r4,-40(fp)
   4240c:	200b883a 	mov	r5,r4
   42410:	1009883a 	mov	r4,r2
   42414:	183ee83a 	callr	r3
   42418:	10803fcc 	andi	r2,r2,255
   4241c:	10000226 	beq	r2,zero,42428 <_ZN3USB11ConfiguringEhhb+0x42c>
   42420:	00800044 	movi	r2,1
   42424:	00000106 	br	4242c <_ZN3USB11ConfiguringEhhb+0x430>
   42428:	0005883a 	mov	r2,zero
   4242c:	10803fcc 	andi	r2,r2,255
   42430:	10001226 	beq	r2,zero,4247c <_ZN3USB11ConfiguringEhhb+0x480>
                        rcode = AttemptConfig(devConfigIndex, parent, port, lowspeed);
   42434:	e0fff003 	ldbu	r3,-64(fp)
   42438:	e13ffd03 	ldbu	r4,-12(fp)
   4243c:	e17ffe03 	ldbu	r5,-8(fp)
   42440:	e0bfff03 	ldbu	r2,-4(fp)
   42444:	d8800015 	stw	r2,0(sp)
   42448:	280f883a 	mov	r7,r5
   4244c:	200d883a 	mov	r6,r4
   42450:	180b883a 	mov	r5,r3
   42454:	e13ffc17 	ldw	r4,-16(fp)
   42458:	0041d6c0 	call	41d6c <_ZN3USB13AttemptConfigEhhhb>
   4245c:	e0bff045 	stb	r2,-63(fp)
                        if(rcode != USB_DEV_CONFIG_ERROR_DEVICE_NOT_SUPPORTED)
   42460:	e0bff043 	ldbu	r2,-63(fp)
   42464:	10803460 	cmpeqi	r2,r2,209
   42468:	10000826 	beq	r2,zero,4248c <_ZN3USB11ConfiguringEhhb+0x490>
   4246c:	00000306 	br	4247c <_ZN3USB11ConfiguringEhhb+0x480>
        //
        // VID/PID & class tests default to false for drivers not yet ported
        // subclass defaults to true, so you don't have to define it if you don't have to.
        //
        for(devConfigIndex = 0; devConfigIndex < USB_NUMDEVICES; devConfigIndex++) {
                if(!devConfig[devConfigIndex]) continue;// no driver
   42470:	0001883a 	nop
   42474:	00000106 	br	4247c <_ZN3USB11ConfiguringEhhb+0x480>
                if(devConfig[devConfigIndex]->GetAddress()) continue; // consumed
   42478:	0001883a 	nop
        // Qualify with subclass too.
        //
        // VID/PID & class tests default to false for drivers not yet ported
        // subclass defaults to true, so you don't have to define it if you don't have to.
        //
        for(devConfigIndex = 0; devConfigIndex < USB_NUMDEVICES; devConfigIndex++) {
   4247c:	e0bff003 	ldbu	r2,-64(fp)
   42480:	10800044 	addi	r2,r2,1
   42484:	e0bff005 	stb	r2,-64(fp)
   42488:	003f7c06 	br	4227c <__alt_data_end+0xfffc227c>
                if(!devConfig[devConfigIndex]) continue;// no driver
                if(devConfig[devConfigIndex]->GetAddress()) continue; // consumed
                if(devConfig[devConfigIndex]->DEVSUBCLASSOK(subklass) && (devConfig[devConfigIndex]->VIDPIDOK(vid, pid) || devConfig[devConfigIndex]->DEVCLASSOK(klass))) {
                        rcode = AttemptConfig(devConfigIndex, parent, port, lowspeed);
                        if(rcode != USB_DEV_CONFIG_ERROR_DEVICE_NOT_SUPPORTED)
                                break;
   4248c:	0001883a 	nop
                }
        }

        if(devConfigIndex < USB_NUMDEVICES) {
   42490:	e0bff003 	ldbu	r2,-64(fp)
   42494:	10800428 	cmpgeui	r2,r2,16
   42498:	1000021e 	bne	r2,zero,424a4 <_ZN3USB11ConfiguringEhhb+0x4a8>
                return rcode;
   4249c:	e0bff043 	ldbu	r2,-63(fp)
   424a0:	00009506 	br	426f8 <_ZN3USB11ConfiguringEhhb+0x6fc>
        }

        // blindly attempt to configure
        for(devConfigIndex = 0; devConfigIndex < USB_NUMDEVICES; devConfigIndex++) {
   424a4:	e03ff005 	stb	zero,-64(fp)
   424a8:	e0bff003 	ldbu	r2,-64(fp)
   424ac:	10800428 	cmpgeui	r2,r2,16
   424b0:	1000871e 	bne	r2,zero,426d0 <_ZN3USB11ConfiguringEhhb+0x6d4>
                if(!devConfig[devConfigIndex]) continue;
   424b4:	e0bff003 	ldbu	r2,-64(fp)
   424b8:	e0fffc17 	ldw	r3,-16(fp)
   424bc:	10800784 	addi	r2,r2,30
   424c0:	1085883a 	add	r2,r2,r2
   424c4:	1085883a 	add	r2,r2,r2
   424c8:	1885883a 	add	r2,r3,r2
   424cc:	10800017 	ldw	r2,0(r2)
   424d0:	10007626 	beq	r2,zero,426ac <_ZN3USB11ConfiguringEhhb+0x6b0>
                if(devConfig[devConfigIndex]->GetAddress()) continue; // consumed
   424d4:	e0bff003 	ldbu	r2,-64(fp)
   424d8:	e0fffc17 	ldw	r3,-16(fp)
   424dc:	10800784 	addi	r2,r2,30
   424e0:	1085883a 	add	r2,r2,r2
   424e4:	1085883a 	add	r2,r2,r2
   424e8:	1885883a 	add	r2,r3,r2
   424ec:	10800017 	ldw	r2,0(r2)
   424f0:	10800017 	ldw	r2,0(r2)
   424f4:	10800404 	addi	r2,r2,16
   424f8:	10c00017 	ldw	r3,0(r2)
   424fc:	e0bff003 	ldbu	r2,-64(fp)
   42500:	e13ffc17 	ldw	r4,-16(fp)
   42504:	10800784 	addi	r2,r2,30
   42508:	1085883a 	add	r2,r2,r2
   4250c:	1085883a 	add	r2,r2,r2
   42510:	2085883a 	add	r2,r4,r2
   42514:	10800017 	ldw	r2,0(r2)
   42518:	1009883a 	mov	r4,r2
   4251c:	183ee83a 	callr	r3
   42520:	10803fcc 	andi	r2,r2,255
   42524:	1004c03a 	cmpne	r2,r2,zero
   42528:	10803fcc 	andi	r2,r2,255
   4252c:	1000611e 	bne	r2,zero,426b4 <_ZN3USB11ConfiguringEhhb+0x6b8>
                if(devConfig[devConfigIndex]->DEVSUBCLASSOK(subklass) && (devConfig[devConfigIndex]->VIDPIDOK(vid, pid) || devConfig[devConfigIndex]->DEVCLASSOK(klass))) continue; // If this is true it means it must have returned USB_DEV_CONFIG_ERROR_DEVICE_NOT_SUPPORTED above
   42530:	e0bff003 	ldbu	r2,-64(fp)
   42534:	e0fffc17 	ldw	r3,-16(fp)
   42538:	10800784 	addi	r2,r2,30
   4253c:	1085883a 	add	r2,r2,r2
   42540:	1085883a 	add	r2,r2,r2
   42544:	1885883a 	add	r2,r3,r2
   42548:	10800017 	ldw	r2,0(r2)
   4254c:	10800017 	ldw	r2,0(r2)
   42550:	10800804 	addi	r2,r2,32
   42554:	10c00017 	ldw	r3,0(r2)
   42558:	e0bff003 	ldbu	r2,-64(fp)
   4255c:	e13ffc17 	ldw	r4,-16(fp)
   42560:	10800784 	addi	r2,r2,30
   42564:	1085883a 	add	r2,r2,r2
   42568:	1085883a 	add	r2,r2,r2
   4256c:	2085883a 	add	r2,r4,r2
   42570:	10800017 	ldw	r2,0(r2)
   42574:	e13ff643 	ldbu	r4,-39(fp)
   42578:	200b883a 	mov	r5,r4
   4257c:	1009883a 	mov	r4,r2
   42580:	183ee83a 	callr	r3
   42584:	10803fcc 	andi	r2,r2,255
   42588:	10003226 	beq	r2,zero,42654 <_ZN3USB11ConfiguringEhhb+0x658>
   4258c:	e0bff003 	ldbu	r2,-64(fp)
   42590:	e0fffc17 	ldw	r3,-16(fp)
   42594:	10800784 	addi	r2,r2,30
   42598:	1085883a 	add	r2,r2,r2
   4259c:	1085883a 	add	r2,r2,r2
   425a0:	1885883a 	add	r2,r3,r2
   425a4:	10800017 	ldw	r2,0(r2)
   425a8:	10800017 	ldw	r2,0(r2)
   425ac:	10800604 	addi	r2,r2,24
   425b0:	10c00017 	ldw	r3,0(r2)
   425b4:	e0bff003 	ldbu	r2,-64(fp)
   425b8:	e13ffc17 	ldw	r4,-16(fp)
   425bc:	10800784 	addi	r2,r2,30
   425c0:	1085883a 	add	r2,r2,r2
   425c4:	1085883a 	add	r2,r2,r2
   425c8:	2085883a 	add	r2,r4,r2
   425cc:	10800017 	ldw	r2,0(r2)
   425d0:	e13ff50b 	ldhu	r4,-44(fp)
   425d4:	e17ff58b 	ldhu	r5,-42(fp)
   425d8:	280d883a 	mov	r6,r5
   425dc:	200b883a 	mov	r5,r4
   425e0:	1009883a 	mov	r4,r2
   425e4:	183ee83a 	callr	r3
   425e8:	10803fcc 	andi	r2,r2,255
   425ec:	1000171e 	bne	r2,zero,4264c <_ZN3USB11ConfiguringEhhb+0x650>
   425f0:	e0bff003 	ldbu	r2,-64(fp)
   425f4:	e0fffc17 	ldw	r3,-16(fp)
   425f8:	10800784 	addi	r2,r2,30
   425fc:	1085883a 	add	r2,r2,r2
   42600:	1085883a 	add	r2,r2,r2
   42604:	1885883a 	add	r2,r3,r2
   42608:	10800017 	ldw	r2,0(r2)
   4260c:	10800017 	ldw	r2,0(r2)
   42610:	10800704 	addi	r2,r2,28
   42614:	10c00017 	ldw	r3,0(r2)
   42618:	e0bff003 	ldbu	r2,-64(fp)
   4261c:	e13ffc17 	ldw	r4,-16(fp)
   42620:	10800784 	addi	r2,r2,30
   42624:	1085883a 	add	r2,r2,r2
   42628:	1085883a 	add	r2,r2,r2
   4262c:	2085883a 	add	r2,r4,r2
   42630:	10800017 	ldw	r2,0(r2)
   42634:	e13ff603 	ldbu	r4,-40(fp)
   42638:	200b883a 	mov	r5,r4
   4263c:	1009883a 	mov	r4,r2
   42640:	183ee83a 	callr	r3
   42644:	10803fcc 	andi	r2,r2,255
   42648:	10000226 	beq	r2,zero,42654 <_ZN3USB11ConfiguringEhhb+0x658>
   4264c:	00800044 	movi	r2,1
   42650:	00000106 	br	42658 <_ZN3USB11ConfiguringEhhb+0x65c>
   42654:	0005883a 	mov	r2,zero
   42658:	10803fcc 	andi	r2,r2,255
   4265c:	1000171e 	bne	r2,zero,426bc <_ZN3USB11ConfiguringEhhb+0x6c0>
                rcode = AttemptConfig(devConfigIndex, parent, port, lowspeed);
   42660:	e0fff003 	ldbu	r3,-64(fp)
   42664:	e13ffd03 	ldbu	r4,-12(fp)
   42668:	e17ffe03 	ldbu	r5,-8(fp)
   4266c:	e0bfff03 	ldbu	r2,-4(fp)
   42670:	d8800015 	stw	r2,0(sp)
   42674:	280f883a 	mov	r7,r5
   42678:	200d883a 	mov	r6,r4
   4267c:	180b883a 	mov	r5,r3
   42680:	e13ffc17 	ldw	r4,-16(fp)
   42684:	0041d6c0 	call	41d6c <_ZN3USB13AttemptConfigEhhhb>
   42688:	e0bff045 	stb	r2,-63(fp)

                //printf("ERROR ENUMERATING %2.2x\r\n", rcode);
                if(!(rcode == USB_DEV_CONFIG_ERROR_DEVICE_NOT_SUPPORTED || rcode == USB_ERROR_CLASS_INSTANCE_ALREADY_IN_USE)) {
   4268c:	e0bff043 	ldbu	r2,-63(fp)
   42690:	10803460 	cmpeqi	r2,r2,209
   42694:	10000a1e 	bne	r2,zero,426c0 <_ZN3USB11ConfiguringEhhb+0x6c4>
   42698:	e0bff043 	ldbu	r2,-63(fp)
   4269c:	10803660 	cmpeqi	r2,r2,217
   426a0:	1000071e 	bne	r2,zero,426c0 <_ZN3USB11ConfiguringEhhb+0x6c4>
                        // in case of an error dev_index should be reset to 0
                        //                in order to start from the very beginning the
                        //                next time the program gets here
                        //if (rcode != USB_DEV_CONFIG_ERROR_DEVICE_INIT_INCOMPLETE)
                        //        devConfigIndex = 0;
                        return rcode;
   426a4:	e0bff043 	ldbu	r2,-63(fp)
   426a8:	00001306 	br	426f8 <_ZN3USB11ConfiguringEhhb+0x6fc>
                return rcode;
        }

        // blindly attempt to configure
        for(devConfigIndex = 0; devConfigIndex < USB_NUMDEVICES; devConfigIndex++) {
                if(!devConfig[devConfigIndex]) continue;
   426ac:	0001883a 	nop
   426b0:	00000306 	br	426c0 <_ZN3USB11ConfiguringEhhb+0x6c4>
                if(devConfig[devConfigIndex]->GetAddress()) continue; // consumed
   426b4:	0001883a 	nop
   426b8:	00000106 	br	426c0 <_ZN3USB11ConfiguringEhhb+0x6c4>
                if(devConfig[devConfigIndex]->DEVSUBCLASSOK(subklass) && (devConfig[devConfigIndex]->VIDPIDOK(vid, pid) || devConfig[devConfigIndex]->DEVCLASSOK(klass))) continue; // If this is true it means it must have returned USB_DEV_CONFIG_ERROR_DEVICE_NOT_SUPPORTED above
   426bc:	0001883a 	nop
        if(devConfigIndex < USB_NUMDEVICES) {
                return rcode;
        }

        // blindly attempt to configure
        for(devConfigIndex = 0; devConfigIndex < USB_NUMDEVICES; devConfigIndex++) {
   426c0:	e0bff003 	ldbu	r2,-64(fp)
   426c4:	10800044 	addi	r2,r2,1
   426c8:	e0bff005 	stb	r2,-64(fp)
   426cc:	003f7606 	br	424a8 <__alt_data_end+0xfffc24a8>
                        //        devConfigIndex = 0;
                        return rcode;
                }
        }
        // if we get here that means that the device class is not supported by any of registered classes
        rcode = DefaultAddressing(parent, port, lowspeed);
   426d0:	e0bffd03 	ldbu	r2,-12(fp)
   426d4:	e0fffe03 	ldbu	r3,-8(fp)
   426d8:	e13fff03 	ldbu	r4,-4(fp)
   426dc:	200f883a 	mov	r7,r4
   426e0:	180d883a 	mov	r6,r3
   426e4:	100b883a 	mov	r5,r2
   426e8:	e13ffc17 	ldw	r4,-16(fp)
   426ec:	0041c0c0 	call	41c0c <_ZN3USB17DefaultAddressingEhhb>
   426f0:	e0bff045 	stb	r2,-63(fp)

        return rcode;
   426f4:	e0bff043 	ldbu	r2,-63(fp)
}
   426f8:	e037883a 	mov	sp,fp
   426fc:	dfc00117 	ldw	ra,4(sp)
   42700:	df000017 	ldw	fp,0(sp)
   42704:	dec00204 	addi	sp,sp,8
   42708:	f800283a 	ret

0004270c <_ZN3USB13ReleaseDeviceEh>:

uint8_t USB::ReleaseDevice(uint8_t addr) {
   4270c:	defffb04 	addi	sp,sp,-20
   42710:	dfc00415 	stw	ra,16(sp)
   42714:	df000315 	stw	fp,12(sp)
   42718:	df000304 	addi	fp,sp,12
   4271c:	e13ffe15 	stw	r4,-8(fp)
   42720:	2805883a 	mov	r2,r5
   42724:	e0bfff05 	stb	r2,-4(fp)
        if(!addr)
   42728:	e0bfff03 	ldbu	r2,-4(fp)
   4272c:	1000021e 	bne	r2,zero,42738 <_ZN3USB13ReleaseDeviceEh+0x2c>
                return 0;
   42730:	0005883a 	mov	r2,zero
   42734:	00003e06 	br	42830 <_ZN3USB13ReleaseDeviceEh+0x124>

        for(uint8_t i = 0; i < USB_NUMDEVICES; i++) {
   42738:	e03ffd05 	stb	zero,-12(fp)
   4273c:	e0bffd03 	ldbu	r2,-12(fp)
   42740:	10800428 	cmpgeui	r2,r2,16
   42744:	1000391e 	bne	r2,zero,4282c <_ZN3USB13ReleaseDeviceEh+0x120>
                if(!devConfig[i]) continue;
   42748:	e0bffd03 	ldbu	r2,-12(fp)
   4274c:	e0fffe17 	ldw	r3,-8(fp)
   42750:	10800784 	addi	r2,r2,30
   42754:	1085883a 	add	r2,r2,r2
   42758:	1085883a 	add	r2,r2,r2
   4275c:	1885883a 	add	r2,r3,r2
   42760:	10800017 	ldw	r2,0(r2)
   42764:	10002c26 	beq	r2,zero,42818 <_ZN3USB13ReleaseDeviceEh+0x10c>
                if(devConfig[i]->GetAddress() == addr)
   42768:	e0bffd03 	ldbu	r2,-12(fp)
   4276c:	e0fffe17 	ldw	r3,-8(fp)
   42770:	10800784 	addi	r2,r2,30
   42774:	1085883a 	add	r2,r2,r2
   42778:	1085883a 	add	r2,r2,r2
   4277c:	1885883a 	add	r2,r3,r2
   42780:	10800017 	ldw	r2,0(r2)
   42784:	10800017 	ldw	r2,0(r2)
   42788:	10800404 	addi	r2,r2,16
   4278c:	10c00017 	ldw	r3,0(r2)
   42790:	e0bffd03 	ldbu	r2,-12(fp)
   42794:	e13ffe17 	ldw	r4,-8(fp)
   42798:	10800784 	addi	r2,r2,30
   4279c:	1085883a 	add	r2,r2,r2
   427a0:	1085883a 	add	r2,r2,r2
   427a4:	2085883a 	add	r2,r4,r2
   427a8:	10800017 	ldw	r2,0(r2)
   427ac:	1009883a 	mov	r4,r2
   427b0:	183ee83a 	callr	r3
   427b4:	10c03fcc 	andi	r3,r2,255
   427b8:	e0bfff03 	ldbu	r2,-4(fp)
   427bc:	1885003a 	cmpeq	r2,r3,r2
   427c0:	10803fcc 	andi	r2,r2,255
   427c4:	10001526 	beq	r2,zero,4281c <_ZN3USB13ReleaseDeviceEh+0x110>
                        return devConfig[i]->Release();
   427c8:	e0bffd03 	ldbu	r2,-12(fp)
   427cc:	e0fffe17 	ldw	r3,-8(fp)
   427d0:	10800784 	addi	r2,r2,30
   427d4:	1085883a 	add	r2,r2,r2
   427d8:	1085883a 	add	r2,r2,r2
   427dc:	1885883a 	add	r2,r3,r2
   427e0:	10800017 	ldw	r2,0(r2)
   427e4:	10800017 	ldw	r2,0(r2)
   427e8:	10800204 	addi	r2,r2,8
   427ec:	10c00017 	ldw	r3,0(r2)
   427f0:	e0bffd03 	ldbu	r2,-12(fp)
   427f4:	e13ffe17 	ldw	r4,-8(fp)
   427f8:	10800784 	addi	r2,r2,30
   427fc:	1085883a 	add	r2,r2,r2
   42800:	1085883a 	add	r2,r2,r2
   42804:	2085883a 	add	r2,r4,r2
   42808:	10800017 	ldw	r2,0(r2)
   4280c:	1009883a 	mov	r4,r2
   42810:	183ee83a 	callr	r3
   42814:	00000606 	br	42830 <_ZN3USB13ReleaseDeviceEh+0x124>
uint8_t USB::ReleaseDevice(uint8_t addr) {
        if(!addr)
                return 0;

        for(uint8_t i = 0; i < USB_NUMDEVICES; i++) {
                if(!devConfig[i]) continue;
   42818:	0001883a 	nop

uint8_t USB::ReleaseDevice(uint8_t addr) {
        if(!addr)
                return 0;

        for(uint8_t i = 0; i < USB_NUMDEVICES; i++) {
   4281c:	e0bffd03 	ldbu	r2,-12(fp)
   42820:	10800044 	addi	r2,r2,1
   42824:	e0bffd05 	stb	r2,-12(fp)
   42828:	003fc406 	br	4273c <__alt_data_end+0xfffc273c>
                if(!devConfig[i]) continue;
                if(devConfig[i]->GetAddress() == addr)
                        return devConfig[i]->Release();
        }
        return 0;
   4282c:	0005883a 	mov	r2,zero
        printf("END\n");
}
   42830:	e037883a 	mov	sp,fp
   42834:	dfc00117 	ldw	ra,4(sp)
   42838:	df000017 	ldw	fp,0(sp)
   4283c:	dec00204 	addi	sp,sp,8
   42840:	f800283a 	ret

00042844 <_ZN3USB11getDevDescrEhhtPh>:

#if 1 //!defined(USB_METHODS_INLINE)
//get device descriptor

uint8_t USB::getDevDescr(uint8_t addr, uint8_t ep, uint16_t nbytes, uint8_t* dataptr) {
   42844:	defff204 	addi	sp,sp,-56
   42848:	dfc00d15 	stw	ra,52(sp)
   4284c:	df000c15 	stw	fp,48(sp)
   42850:	df000c04 	addi	fp,sp,48
   42854:	e13ffc15 	stw	r4,-16(fp)
   42858:	2809883a 	mov	r4,r5
   4285c:	3007883a 	mov	r3,r6
   42860:	3805883a 	mov	r2,r7
   42864:	e13ffd05 	stb	r4,-12(fp)
   42868:	e0fffe05 	stb	r3,-8(fp)
   4286c:	e0bfff0d 	sth	r2,-4(fp)
        return ( ctrlReq(addr, ep, bmREQ_GET_DESCR, USB_REQUEST_GET_DESCRIPTOR, 0x00, USB_DESCRIPTOR_DEVICE, 0x0000, nbytes, nbytes, dataptr, NULL));
   42870:	e17ffd03 	ldbu	r5,-12(fp)
   42874:	e1bffe03 	ldbu	r6,-8(fp)
   42878:	e0bfff0b 	ldhu	r2,-4(fp)
   4287c:	e0ffff0b 	ldhu	r3,-4(fp)
   42880:	d8000715 	stw	zero,28(sp)
   42884:	e1000217 	ldw	r4,8(fp)
   42888:	d9000615 	stw	r4,24(sp)
   4288c:	d8c00515 	stw	r3,20(sp)
   42890:	d8800415 	stw	r2,16(sp)
   42894:	d8000315 	stw	zero,12(sp)
   42898:	00800044 	movi	r2,1
   4289c:	d8800215 	stw	r2,8(sp)
   428a0:	d8000115 	stw	zero,4(sp)
   428a4:	00800184 	movi	r2,6
   428a8:	d8800015 	stw	r2,0(sp)
   428ac:	01c02004 	movi	r7,128
   428b0:	e13ffc17 	ldw	r4,-16(fp)
   428b4:	0040b9c0 	call	40b9c <_ZN3USB7ctrlReqEhhhhhhtttPhP13USBReadParser>
}
   428b8:	e037883a 	mov	sp,fp
   428bc:	dfc00117 	ldw	ra,4(sp)
   428c0:	df000017 	ldw	fp,0(sp)
   428c4:	dec00204 	addi	sp,sp,8
   428c8:	f800283a 	ret

000428cc <_ZN3USB12getConfDescrEhhthPh>:
//get configuration descriptor

uint8_t USB::getConfDescr(uint8_t addr, uint8_t ep, uint16_t nbytes, uint8_t conf, uint8_t* dataptr) {
   428cc:	defff104 	addi	sp,sp,-60
   428d0:	dfc00e15 	stw	ra,56(sp)
   428d4:	df000d15 	stw	fp,52(sp)
   428d8:	df000d04 	addi	fp,sp,52
   428dc:	e13ffb15 	stw	r4,-20(fp)
   428e0:	3009883a 	mov	r4,r6
   428e4:	3807883a 	mov	r3,r7
   428e8:	e0800217 	ldw	r2,8(fp)
   428ec:	e17ffc05 	stb	r5,-16(fp)
   428f0:	e13ffd05 	stb	r4,-12(fp)
   428f4:	e0fffe0d 	sth	r3,-8(fp)
   428f8:	e0bfff05 	stb	r2,-4(fp)
        return ( ctrlReq(addr, ep, bmREQ_GET_DESCR, USB_REQUEST_GET_DESCRIPTOR, conf, USB_DESCRIPTOR_CONFIGURATION, 0x0000, nbytes, nbytes, dataptr, NULL));
   428fc:	e23ffc03 	ldbu	r8,-16(fp)
   42900:	e1bffd03 	ldbu	r6,-12(fp)
   42904:	e0bfff03 	ldbu	r2,-4(fp)
   42908:	e0fffe0b 	ldhu	r3,-8(fp)
   4290c:	e13ffe0b 	ldhu	r4,-8(fp)
   42910:	d8000715 	stw	zero,28(sp)
   42914:	e1400317 	ldw	r5,12(fp)
   42918:	d9400615 	stw	r5,24(sp)
   4291c:	d9000515 	stw	r4,20(sp)
   42920:	d8c00415 	stw	r3,16(sp)
   42924:	d8000315 	stw	zero,12(sp)
   42928:	00c00084 	movi	r3,2
   4292c:	d8c00215 	stw	r3,8(sp)
   42930:	d8800115 	stw	r2,4(sp)
   42934:	00800184 	movi	r2,6
   42938:	d8800015 	stw	r2,0(sp)
   4293c:	01c02004 	movi	r7,128
   42940:	400b883a 	mov	r5,r8
   42944:	e13ffb17 	ldw	r4,-20(fp)
   42948:	0040b9c0 	call	40b9c <_ZN3USB7ctrlReqEhhhhhhtttPhP13USBReadParser>
}
   4294c:	e037883a 	mov	sp,fp
   42950:	dfc00117 	ldw	ra,4(sp)
   42954:	df000017 	ldw	fp,0(sp)
   42958:	dec00204 	addi	sp,sp,8
   4295c:	f800283a 	ret

00042960 <_ZN3USB12getConfDescrEhhhP13USBReadParser>:

/* Requests Configuration Descriptor. Sends two Get Conf Descr requests. The first one gets the total length of all descriptors, then the second one requests this
 total length. The length of the first request can be shorter ( 4 bytes ), however, there are devices which won't work unless this length is set to 9 */
uint8_t USB::getConfDescr(uint8_t addr, uint8_t ep, uint8_t conf, USBReadParser *p) {
   42960:	deffdf04 	addi	sp,sp,-132
   42964:	dfc02015 	stw	ra,128(sp)
   42968:	df001f15 	stw	fp,124(sp)
   4296c:	df001f04 	addi	fp,sp,124
   42970:	e13ffc15 	stw	r4,-16(fp)
   42974:	2809883a 	mov	r4,r5
   42978:	3007883a 	mov	r3,r6
   4297c:	3805883a 	mov	r2,r7
   42980:	e13ffd05 	stb	r4,-12(fp)
   42984:	e0fffe05 	stb	r3,-8(fp)
   42988:	e0bfff05 	stb	r2,-4(fp)
        const uint8_t bufSize = 64;
   4298c:	00801004 	movi	r2,64
   42990:	e0bfe905 	stb	r2,-92(fp)
        uint8_t buf[bufSize];
        USB_CONFIGURATION_DESCRIPTOR *ucd = reinterpret_cast<USB_CONFIGURATION_DESCRIPTOR *>(buf);
   42994:	e0bfec04 	addi	r2,fp,-80
   42998:	e0bfea15 	stw	r2,-88(fp)

        uint8_t ret = getConfDescr(addr, ep, 9, conf, buf);
   4299c:	e13ffd03 	ldbu	r4,-12(fp)
   429a0:	e17ffe03 	ldbu	r5,-8(fp)
   429a4:	e0bfff03 	ldbu	r2,-4(fp)
   429a8:	e0ffec04 	addi	r3,fp,-80
   429ac:	d8c00115 	stw	r3,4(sp)
   429b0:	d8800015 	stw	r2,0(sp)
   429b4:	01c00244 	movi	r7,9
   429b8:	280d883a 	mov	r6,r5
   429bc:	200b883a 	mov	r5,r4
   429c0:	e13ffc17 	ldw	r4,-16(fp)
   429c4:	00428cc0 	call	428cc <_ZN3USB12getConfDescrEhhthPh>
   429c8:	e0bfeb05 	stb	r2,-84(fp)

        if(ret)
   429cc:	e0bfeb03 	ldbu	r2,-84(fp)
   429d0:	10000226 	beq	r2,zero,429dc <_ZN3USB12getConfDescrEhhhP13USBReadParser+0x7c>
                return ret;
   429d4:	e0bfeb03 	ldbu	r2,-84(fp)
   429d8:	00001a06 	br	42a44 <_ZN3USB12getConfDescrEhhhP13USBReadParser+0xe4>

        uint16_t total = ucd->wTotalLength;
   429dc:	e0bfea17 	ldw	r2,-88(fp)
   429e0:	10c00083 	ldbu	r3,2(r2)
   429e4:	108000c3 	ldbu	r2,3(r2)
   429e8:	1004923a 	slli	r2,r2,8
   429ec:	10c4b03a 	or	r2,r2,r3
   429f0:	e0bfeb8d 	sth	r2,-82(fp)

        //USBTRACE2("\r\ntotal conf.size:", total);

        return ( ctrlReq(addr, ep, bmREQ_GET_DESCR, USB_REQUEST_GET_DESCRIPTOR, conf, USB_DESCRIPTOR_CONFIGURATION, 0x0000, total, bufSize, buf, p));
   429f4:	e17ffd03 	ldbu	r5,-12(fp)
   429f8:	e1bffe03 	ldbu	r6,-8(fp)
   429fc:	e0bfff03 	ldbu	r2,-4(fp)
   42a00:	e0ffeb8b 	ldhu	r3,-82(fp)
   42a04:	e1000217 	ldw	r4,8(fp)
   42a08:	d9000715 	stw	r4,28(sp)
   42a0c:	e13fec04 	addi	r4,fp,-80
   42a10:	d9000615 	stw	r4,24(sp)
   42a14:	01001004 	movi	r4,64
   42a18:	d9000515 	stw	r4,20(sp)
   42a1c:	d8c00415 	stw	r3,16(sp)
   42a20:	d8000315 	stw	zero,12(sp)
   42a24:	00c00084 	movi	r3,2
   42a28:	d8c00215 	stw	r3,8(sp)
   42a2c:	d8800115 	stw	r2,4(sp)
   42a30:	00800184 	movi	r2,6
   42a34:	d8800015 	stw	r2,0(sp)
   42a38:	01c02004 	movi	r7,128
   42a3c:	e13ffc17 	ldw	r4,-16(fp)
   42a40:	0040b9c0 	call	40b9c <_ZN3USB7ctrlReqEhhhhhhtttPhP13USBReadParser>
}
   42a44:	e037883a 	mov	sp,fp
   42a48:	dfc00117 	ldw	ra,4(sp)
   42a4c:	df000017 	ldw	fp,0(sp)
   42a50:	dec00204 	addi	sp,sp,8
   42a54:	f800283a 	ret

00042a58 <_ZN3USB11getStrDescrEhhthtPh>:

//get string descriptor

uint8_t USB::getStrDescr(uint8_t addr, uint8_t ep, uint16_t ns, uint8_t index, uint16_t langid, uint8_t* dataptr) {
   42a58:	defff004 	addi	sp,sp,-64
   42a5c:	dfc00f15 	stw	ra,60(sp)
   42a60:	df000e15 	stw	fp,56(sp)
   42a64:	df000e04 	addi	fp,sp,56
   42a68:	e13ffa15 	stw	r4,-24(fp)
   42a6c:	2811883a 	mov	r8,r5
   42a70:	300b883a 	mov	r5,r6
   42a74:	3809883a 	mov	r4,r7
   42a78:	e0c00217 	ldw	r3,8(fp)
   42a7c:	e0800317 	ldw	r2,12(fp)
   42a80:	e23ffb05 	stb	r8,-20(fp)
   42a84:	e17ffc05 	stb	r5,-16(fp)
   42a88:	e13ffd0d 	sth	r4,-12(fp)
   42a8c:	e0fffe05 	stb	r3,-8(fp)
   42a90:	e0bfff0d 	sth	r2,-4(fp)
        return ( ctrlReq(addr, ep, bmREQ_GET_DESCR, USB_REQUEST_GET_DESCRIPTOR, index, USB_DESCRIPTOR_STRING, langid, ns, ns, dataptr, NULL));
   42a94:	e23ffb03 	ldbu	r8,-20(fp)
   42a98:	e27ffc03 	ldbu	r9,-16(fp)
   42a9c:	e0bffe03 	ldbu	r2,-8(fp)
   42aa0:	e0ffff0b 	ldhu	r3,-4(fp)
   42aa4:	e13ffd0b 	ldhu	r4,-12(fp)
   42aa8:	e17ffd0b 	ldhu	r5,-12(fp)
   42aac:	d8000715 	stw	zero,28(sp)
   42ab0:	e1800417 	ldw	r6,16(fp)
   42ab4:	d9800615 	stw	r6,24(sp)
   42ab8:	d9400515 	stw	r5,20(sp)
   42abc:	d9000415 	stw	r4,16(sp)
   42ac0:	d8c00315 	stw	r3,12(sp)
   42ac4:	00c000c4 	movi	r3,3
   42ac8:	d8c00215 	stw	r3,8(sp)
   42acc:	d8800115 	stw	r2,4(sp)
   42ad0:	00800184 	movi	r2,6
   42ad4:	d8800015 	stw	r2,0(sp)
   42ad8:	01c02004 	movi	r7,128
   42adc:	480d883a 	mov	r6,r9
   42ae0:	400b883a 	mov	r5,r8
   42ae4:	e13ffa17 	ldw	r4,-24(fp)
   42ae8:	0040b9c0 	call	40b9c <_ZN3USB7ctrlReqEhhhhhhtttPhP13USBReadParser>
}
   42aec:	e037883a 	mov	sp,fp
   42af0:	dfc00117 	ldw	ra,4(sp)
   42af4:	df000017 	ldw	fp,0(sp)
   42af8:	dec00204 	addi	sp,sp,8
   42afc:	f800283a 	ret

00042b00 <_ZN3USB7setAddrEhhh>:
//set address

uint8_t USB::setAddr(uint8_t oldaddr, uint8_t ep, uint8_t newaddr) {
   42b00:	defff104 	addi	sp,sp,-60
   42b04:	dfc00e15 	stw	ra,56(sp)
   42b08:	df000d15 	stw	fp,52(sp)
   42b0c:	df000d04 	addi	fp,sp,52
   42b10:	e13ffc15 	stw	r4,-16(fp)
   42b14:	2809883a 	mov	r4,r5
   42b18:	3007883a 	mov	r3,r6
   42b1c:	3805883a 	mov	r2,r7
   42b20:	e13ffd05 	stb	r4,-12(fp)
   42b24:	e0fffe05 	stb	r3,-8(fp)
   42b28:	e0bfff05 	stb	r2,-4(fp)
        uint8_t rcode = ctrlReq(oldaddr, ep, bmREQ_SET, USB_REQUEST_SET_ADDRESS, newaddr, 0x00, 0x0000, 0x0000, 0x0000, NULL, NULL);
   42b2c:	e0fffd03 	ldbu	r3,-12(fp)
   42b30:	e13ffe03 	ldbu	r4,-8(fp)
   42b34:	e0bfff03 	ldbu	r2,-4(fp)
   42b38:	d8000715 	stw	zero,28(sp)
   42b3c:	d8000615 	stw	zero,24(sp)
   42b40:	d8000515 	stw	zero,20(sp)
   42b44:	d8000415 	stw	zero,16(sp)
   42b48:	d8000315 	stw	zero,12(sp)
   42b4c:	d8000215 	stw	zero,8(sp)
   42b50:	d8800115 	stw	r2,4(sp)
   42b54:	00800144 	movi	r2,5
   42b58:	d8800015 	stw	r2,0(sp)
   42b5c:	000f883a 	mov	r7,zero
   42b60:	200d883a 	mov	r6,r4
   42b64:	180b883a 	mov	r5,r3
   42b68:	e13ffc17 	ldw	r4,-16(fp)
   42b6c:	0040b9c0 	call	40b9c <_ZN3USB7ctrlReqEhhhhhhtttPhP13USBReadParser>
   42b70:	e0bffb05 	stb	r2,-20(fp)
        //delay(2); //per USB 2.0 sect.9.2.6.3
        delay(300); // Older spec says you should wait at least 200ms
   42b74:	01004b04 	movi	r4,300
   42b78:	00406840 	call	40684 <_Z5delaym>
        return rcode;
   42b7c:	e0bffb03 	ldbu	r2,-20(fp)
        //return ( ctrlReq(oldaddr, ep, bmREQ_SET, USB_REQUEST_SET_ADDRESS, newaddr, 0x00, 0x0000, 0x0000, 0x0000, NULL, NULL));
}
   42b80:	e037883a 	mov	sp,fp
   42b84:	dfc00117 	ldw	ra,4(sp)
   42b88:	df000017 	ldw	fp,0(sp)
   42b8c:	dec00204 	addi	sp,sp,8
   42b90:	f800283a 	ret

00042b94 <_ZN3USB7setConfEhhh>:
//set configuration

uint8_t USB::setConf(uint8_t addr, uint8_t ep, uint8_t conf_value) {
   42b94:	defff204 	addi	sp,sp,-56
   42b98:	dfc00d15 	stw	ra,52(sp)
   42b9c:	df000c15 	stw	fp,48(sp)
   42ba0:	df000c04 	addi	fp,sp,48
   42ba4:	e13ffc15 	stw	r4,-16(fp)
   42ba8:	2809883a 	mov	r4,r5
   42bac:	3007883a 	mov	r3,r6
   42bb0:	3805883a 	mov	r2,r7
   42bb4:	e13ffd05 	stb	r4,-12(fp)
   42bb8:	e0fffe05 	stb	r3,-8(fp)
   42bbc:	e0bfff05 	stb	r2,-4(fp)
        return ( ctrlReq(addr, ep, bmREQ_SET, USB_REQUEST_SET_CONFIGURATION, conf_value, 0x00, 0x0000, 0x0000, 0x0000, NULL, NULL));
   42bc0:	e0fffd03 	ldbu	r3,-12(fp)
   42bc4:	e13ffe03 	ldbu	r4,-8(fp)
   42bc8:	e0bfff03 	ldbu	r2,-4(fp)
   42bcc:	d8000715 	stw	zero,28(sp)
   42bd0:	d8000615 	stw	zero,24(sp)
   42bd4:	d8000515 	stw	zero,20(sp)
   42bd8:	d8000415 	stw	zero,16(sp)
   42bdc:	d8000315 	stw	zero,12(sp)
   42be0:	d8000215 	stw	zero,8(sp)
   42be4:	d8800115 	stw	r2,4(sp)
   42be8:	00800244 	movi	r2,9
   42bec:	d8800015 	stw	r2,0(sp)
   42bf0:	000f883a 	mov	r7,zero
   42bf4:	200d883a 	mov	r6,r4
   42bf8:	180b883a 	mov	r5,r3
   42bfc:	e13ffc17 	ldw	r4,-16(fp)
   42c00:	0040b9c0 	call	40b9c <_ZN3USB7ctrlReqEhhhhhhtttPhP13USBReadParser>
}
   42c04:	e037883a 	mov	sp,fp
   42c08:	dfc00117 	ldw	ra,4(sp)
   42c0c:	df000017 	ldw	fp,0(sp)
   42c10:	dec00204 	addi	sp,sp,8
   42c14:	f800283a 	ret

00042c18 <_ZN3USB14GetAddressPoolEv>:

        void ResetHubPreMask() {
                bmHubPre &= (~bmHUBPRE);
        };

        AddressPool& GetAddressPool() {
   42c18:	defffe04 	addi	sp,sp,-8
   42c1c:	df000115 	stw	fp,4(sp)
   42c20:	df000104 	addi	fp,sp,4
   42c24:	e13fff15 	stw	r4,-4(fp)
                return (AddressPool&)addrPool;
   42c28:	e0bfff17 	ldw	r2,-4(fp)
        };
   42c2c:	e037883a 	mov	sp,fp
   42c30:	df000017 	ldw	fp,0(sp)
   42c34:	dec00104 	addi	sp,sp,4
   42c38:	f800283a 	ret

00042c3c <_ZN11AddressPoolC1Ev>:
        uint8_t epcount; // number of endpoints
        bool lowspeed; // indicates if a device is the low speed one
        //      uint8_t devclass; // device class
} __attribute__((packed));

class AddressPool {
   42c3c:	defffe04 	addi	sp,sp,-8
   42c40:	df000115 	stw	fp,4(sp)
   42c44:	df000104 	addi	fp,sp,4
   42c48:	e13fff15 	stw	r4,-4(fp)
   42c4c:	008001b4 	movhi	r2,6
   42c50:	10937604 	addi	r2,r2,19928
   42c54:	e0ffff17 	ldw	r3,-4(fp)
   42c58:	18800015 	stw	r2,0(r3)
   42c5c:	0001883a 	nop
   42c60:	e037883a 	mov	sp,fp
   42c64:	df000017 	ldw	fp,0(sp)
   42c68:	dec00104 	addi	sp,sp,4
   42c6c:	f800283a 	ret

00042c70 <_ZN15AddressPoolImplILh16EEC1Ev>:
                hubCounter = 0;
        };

public:

        AddressPoolImpl() : hubCounter(0) {
   42c70:	defffd04 	addi	sp,sp,-12
   42c74:	dfc00215 	stw	ra,8(sp)
   42c78:	df000115 	stw	fp,4(sp)
   42c7c:	df000104 	addi	fp,sp,4
   42c80:	e13fff15 	stw	r4,-4(fp)
   42c84:	e0bfff17 	ldw	r2,-4(fp)
   42c88:	1009883a 	mov	r4,r2
   42c8c:	0042c3c0 	call	42c3c <_ZN11AddressPoolC1Ev>
   42c90:	008001b4 	movhi	r2,6
   42c94:	10937104 	addi	r2,r2,19908
   42c98:	e0ffff17 	ldw	r3,-4(fp)
   42c9c:	18800015 	stw	r2,0(r3)
   42ca0:	e0bfff17 	ldw	r2,-4(fp)
   42ca4:	100001c5 	stb	zero,7(r2)
                // Zero address is reserved
                InitEntry(0);
   42ca8:	000b883a 	mov	r5,zero
   42cac:	e13fff17 	ldw	r4,-4(fp)
   42cb0:	00430c00 	call	430c0 <_ZN15AddressPoolImplILh16EE9InitEntryEh>

                thePool[0].address.devAddress = 0;
   42cb4:	e0bfff17 	ldw	r2,-4(fp)
   42cb8:	10000305 	stb	zero,12(r2)
                thePool[0].epinfo = &dev0ep;
   42cbc:	e0bfff17 	ldw	r2,-4(fp)
   42cc0:	10c00104 	addi	r3,r2,4
   42cc4:	e0bfff17 	ldw	r2,-4(fp)
   42cc8:	10c00215 	stw	r3,8(r2)
                dev0ep.epAddr = 0;
   42ccc:	e0bfff17 	ldw	r2,-4(fp)
   42cd0:	10000105 	stb	zero,4(r2)
                dev0ep.maxPktSize = 8;
   42cd4:	e0bfff17 	ldw	r2,-4(fp)
   42cd8:	00c00204 	movi	r3,8
   42cdc:	10c00145 	stb	r3,5(r2)
                dev0ep.bmSndToggle = 0; // Set DATA0/1 toggles to 0
   42ce0:	e0bfff17 	ldw	r2,-4(fp)
   42ce4:	11000183 	ldbu	r4,6(r2)
   42ce8:	00ffff84 	movi	r3,-2
   42cec:	20c6703a 	and	r3,r4,r3
   42cf0:	10c00185 	stb	r3,6(r2)
                dev0ep.bmRcvToggle = 0;
   42cf4:	e0bfff17 	ldw	r2,-4(fp)
   42cf8:	11000183 	ldbu	r4,6(r2)
   42cfc:	00ffff44 	movi	r3,-3
   42d00:	20c6703a 	and	r3,r4,r3
   42d04:	10c00185 	stb	r3,6(r2)
                dev0ep.bmNakPower = USB_NAK_MAX_POWER;
   42d08:	e0bfff17 	ldw	r2,-4(fp)
   42d0c:	10c00183 	ldbu	r3,6(r2)
   42d10:	18c000cc 	andi	r3,r3,3
   42d14:	18c00f14 	ori	r3,r3,60
   42d18:	10c00185 	stb	r3,6(r2)

                InitAllAddresses();
   42d1c:	e13fff17 	ldw	r4,-4(fp)
   42d20:	00432040 	call	43204 <_ZN15AddressPoolImplILh16EE16InitAllAddressesEv>
        };
   42d24:	0001883a 	nop
   42d28:	e037883a 	mov	sp,fp
   42d2c:	dfc00117 	ldw	ra,4(sp)
   42d30:	df000017 	ldw	fp,0(sp)
   42d34:	dec00204 	addi	sp,sp,8
   42d38:	f800283a 	ret

00042d3c <_ZN15AddressPoolImplILh16EE15GetUsbDevicePtrEh>:

        // Returns a pointer to a specified address entry

        virtual UsbDevice* GetUsbDevicePtr(uint8_t addr) {
   42d3c:	defffa04 	addi	sp,sp,-24
   42d40:	dfc00515 	stw	ra,20(sp)
   42d44:	df000415 	stw	fp,16(sp)
   42d48:	dc000315 	stw	r16,12(sp)
   42d4c:	df000404 	addi	fp,sp,16
   42d50:	e13ffd15 	stw	r4,-12(fp)
   42d54:	2805883a 	mov	r2,r5
   42d58:	e0bffe05 	stb	r2,-8(fp)
                if(!addr)
   42d5c:	e0bffe03 	ldbu	r2,-8(fp)
   42d60:	1000031e 	bne	r2,zero,42d70 <_ZN15AddressPoolImplILh16EE15GetUsbDevicePtrEh+0x34>
                        return thePool;
   42d64:	e0bffd17 	ldw	r2,-12(fp)
   42d68:	10800204 	addi	r2,r2,8
   42d6c:	00001006 	br	42db0 <_ZN15AddressPoolImplILh16EE15GetUsbDevicePtrEh+0x74>

                uint8_t index = FindAddressIndex(addr);
   42d70:	e0bffe03 	ldbu	r2,-8(fp)
   42d74:	100b883a 	mov	r5,r2
   42d78:	e13ffd17 	ldw	r4,-12(fp)
   42d7c:	004326c0 	call	4326c <_ZN15AddressPoolImplILh16EE16FindAddressIndexEh>
   42d80:	e0bffc05 	stb	r2,-16(fp)

                return (!index) ? NULL : thePool + index;
   42d84:	e0bffc03 	ldbu	r2,-16(fp)
   42d88:	10000826 	beq	r2,zero,42dac <_ZN15AddressPoolImplILh16EE15GetUsbDevicePtrEh+0x70>
   42d8c:	e0bffd17 	ldw	r2,-12(fp)
   42d90:	14000204 	addi	r16,r2,8
   42d94:	e0bffc03 	ldbu	r2,-16(fp)
   42d98:	014001c4 	movi	r5,7
   42d9c:	1009883a 	mov	r4,r2
   42da0:	004dac40 	call	4dac4 <__mulsi3>
   42da4:	8085883a 	add	r2,r16,r2
   42da8:	00000106 	br	42db0 <_ZN15AddressPoolImplILh16EE15GetUsbDevicePtrEh+0x74>
   42dac:	0005883a 	mov	r2,zero
        };
   42db0:	e6ffff04 	addi	sp,fp,-4
   42db4:	dfc00217 	ldw	ra,8(sp)
   42db8:	df000117 	ldw	fp,4(sp)
   42dbc:	dc000017 	ldw	r16,0(sp)
   42dc0:	dec00304 	addi	sp,sp,12
   42dc4:	f800283a 	ret

00042dc8 <_Z10D_PrintHexIhEvT_i>:
//                mask >>= 4;
//        }
//        prn->print((T)val, HEX);
//}

template <class T> void D_PrintHex(T val __attribute__((unused)), int lvl __attribute__((unused))) {
   42dc8:	defffd04 	addi	sp,sp,-12
   42dcc:	df000215 	stw	fp,8(sp)
   42dd0:	df000204 	addi	fp,sp,8
   42dd4:	2005883a 	mov	r2,r4
   42dd8:	e17fff15 	stw	r5,-4(fp)
   42ddc:	e0bffe05 	stb	r2,-8(fp)
#ifdef DEBUG_USB_HOST
        PrintHex<T > (val, lvl);
#endif
}
   42de0:	0001883a 	nop
   42de4:	e037883a 	mov	sp,fp
   42de8:	df000017 	ldw	fp,0(sp)
   42dec:	dec00104 	addi	sp,sp,4
   42df0:	f800283a 	ret

00042df4 <_ZN15AddressPoolImplILh16EE12AllocAddressEhbh>:
                                pfunc(thePool + i);
        };

        // Allocates new address

        virtual uint8_t AllocAddress(uint8_t parent, bool is_hub = false, uint8_t port = 0) {
   42df4:	defff804 	addi	sp,sp,-32
   42df8:	dfc00715 	stw	ra,28(sp)
   42dfc:	df000615 	stw	fp,24(sp)
   42e00:	dc000515 	stw	r16,20(sp)
   42e04:	df000604 	addi	fp,sp,24
   42e08:	e13ffb15 	stw	r4,-20(fp)
   42e0c:	2809883a 	mov	r4,r5
   42e10:	3007883a 	mov	r3,r6
   42e14:	3805883a 	mov	r2,r7
   42e18:	e13ffc05 	stb	r4,-16(fp)
   42e1c:	e0fffd05 	stb	r3,-12(fp)
   42e20:	e0bffe05 	stb	r2,-8(fp)
                /* if (parent != 0 && port == 0)
                        USB_HOST_SERIAL.println("PRT:0"); */
                UsbDeviceAddress _parent;
                _parent.devAddress = parent;
   42e24:	e0bffc03 	ldbu	r2,-16(fp)
   42e28:	e0bffa45 	stb	r2,-23(fp)
                if(_parent.bmReserved || port > 7)
   42e2c:	e0fffa43 	ldbu	r3,-23(fp)
   42e30:	00bfe004 	movi	r2,-128
   42e34:	1884703a 	and	r2,r3,r2
   42e38:	10803fcc 	andi	r2,r2,255
   42e3c:	1000031e 	bne	r2,zero,42e4c <_ZN15AddressPoolImplILh16EE12AllocAddressEhbh+0x58>
   42e40:	e0bffe03 	ldbu	r2,-8(fp)
   42e44:	10800230 	cmpltui	r2,r2,8
   42e48:	1000021e 	bne	r2,zero,42e54 <_ZN15AddressPoolImplILh16EE12AllocAddressEhbh+0x60>
                        //if(parent > 127 || port > 7)
                        return 0;
   42e4c:	0005883a 	mov	r2,zero
   42e50:	00007a06 	br	4303c <_ZN15AddressPoolImplILh16EE12AllocAddressEhbh+0x248>

                if(is_hub && hubCounter == 7)
   42e54:	e0bffd03 	ldbu	r2,-12(fp)
   42e58:	10000726 	beq	r2,zero,42e78 <_ZN15AddressPoolImplILh16EE12AllocAddressEhbh+0x84>
   42e5c:	e0bffb17 	ldw	r2,-20(fp)
   42e60:	108001c3 	ldbu	r2,7(r2)
   42e64:	10803fcc 	andi	r2,r2,255
   42e68:	108001d8 	cmpnei	r2,r2,7
   42e6c:	1000021e 	bne	r2,zero,42e78 <_ZN15AddressPoolImplILh16EE12AllocAddressEhbh+0x84>
                        return 0;
   42e70:	0005883a 	mov	r2,zero
   42e74:	00007106 	br	4303c <_ZN15AddressPoolImplILh16EE12AllocAddressEhbh+0x248>

                // finds first empty address entry starting from one
                uint8_t index = FindAddressIndex(0);
   42e78:	000b883a 	mov	r5,zero
   42e7c:	e13ffb17 	ldw	r4,-20(fp)
   42e80:	004326c0 	call	4326c <_ZN15AddressPoolImplILh16EE16FindAddressIndexEh>
   42e84:	e0bffa05 	stb	r2,-24(fp)

                if(!index) // if empty entry is not found
   42e88:	e0bffa03 	ldbu	r2,-24(fp)
   42e8c:	1000021e 	bne	r2,zero,42e98 <_ZN15AddressPoolImplILh16EE12AllocAddressEhbh+0xa4>
                        return 0;
   42e90:	0005883a 	mov	r2,zero
   42e94:	00006906 	br	4303c <_ZN15AddressPoolImplILh16EE12AllocAddressEhbh+0x248>

                if(_parent.devAddress == 0) {
   42e98:	e0bffa43 	ldbu	r2,-23(fp)
   42e9c:	10803fcc 	andi	r2,r2,255
   42ea0:	1000241e 	bne	r2,zero,42f34 <_ZN15AddressPoolImplILh16EE12AllocAddressEhbh+0x140>
                        if(is_hub) {
   42ea4:	e0bffd03 	ldbu	r2,-12(fp)
   42ea8:	10001026 	beq	r2,zero,42eec <_ZN15AddressPoolImplILh16EE12AllocAddressEhbh+0xf8>
                                thePool[index].address.devAddress = 0x41;
   42eac:	e0bffa03 	ldbu	r2,-24(fp)
   42eb0:	e43ffb17 	ldw	r16,-20(fp)
   42eb4:	014001c4 	movi	r5,7
   42eb8:	1009883a 	mov	r4,r2
   42ebc:	004dac40 	call	4dac4 <__mulsi3>
   42ec0:	8085883a 	add	r2,r16,r2
   42ec4:	10800304 	addi	r2,r2,12
   42ec8:	00c01044 	movi	r3,65
   42ecc:	10c00005 	stb	r3,0(r2)
                                hubCounter++;
   42ed0:	e0bffb17 	ldw	r2,-20(fp)
   42ed4:	108001c3 	ldbu	r2,7(r2)
   42ed8:	10800044 	addi	r2,r2,1
   42edc:	1007883a 	mov	r3,r2
   42ee0:	e0bffb17 	ldw	r2,-20(fp)
   42ee4:	10c001c5 	stb	r3,7(r2)
   42ee8:	00000906 	br	42f10 <_ZN15AddressPoolImplILh16EE12AllocAddressEhbh+0x11c>
                        } else
                                thePool[index].address.devAddress = 1;
   42eec:	e0bffa03 	ldbu	r2,-24(fp)
   42ef0:	e43ffb17 	ldw	r16,-20(fp)
   42ef4:	014001c4 	movi	r5,7
   42ef8:	1009883a 	mov	r4,r2
   42efc:	004dac40 	call	4dac4 <__mulsi3>
   42f00:	8085883a 	add	r2,r16,r2
   42f04:	10800304 	addi	r2,r2,12
   42f08:	00c00044 	movi	r3,1
   42f0c:	10c00005 	stb	r3,0(r2)

                        return thePool[index].address.devAddress;
   42f10:	e0bffa03 	ldbu	r2,-24(fp)
   42f14:	e43ffb17 	ldw	r16,-20(fp)
   42f18:	014001c4 	movi	r5,7
   42f1c:	1009883a 	mov	r4,r2
   42f20:	004dac40 	call	4dac4 <__mulsi3>
   42f24:	8085883a 	add	r2,r16,r2
   42f28:	10800304 	addi	r2,r2,12
   42f2c:	10800003 	ldbu	r2,0(r2)
   42f30:	00004206 	br	4303c <_ZN15AddressPoolImplILh16EE12AllocAddressEhbh+0x248>
                }

                UsbDeviceAddress addr;
                addr.devAddress = 0; // Ensure all bits are zero
   42f34:	e03ffa85 	stb	zero,-22(fp)
                addr.bmParent = _parent.bmAddress;
   42f38:	e0bffa43 	ldbu	r2,-23(fp)
   42f3c:	108001cc 	andi	r2,r2,7
   42f40:	108001cc 	andi	r2,r2,7
   42f44:	100890fa 	slli	r4,r2,3
   42f48:	e0fffa83 	ldbu	r3,-22(fp)
   42f4c:	00bff1c4 	movi	r2,-57
   42f50:	1884703a 	and	r2,r3,r2
   42f54:	1007883a 	mov	r3,r2
   42f58:	2005883a 	mov	r2,r4
   42f5c:	1884b03a 	or	r2,r3,r2
   42f60:	e0bffa85 	stb	r2,-22(fp)
                if(is_hub) {
   42f64:	e0bffd03 	ldbu	r2,-12(fp)
   42f68:	10001526 	beq	r2,zero,42fc0 <_ZN15AddressPoolImplILh16EE12AllocAddressEhbh+0x1cc>
                        addr.bmHub = 1;
   42f6c:	e0bffa83 	ldbu	r2,-22(fp)
   42f70:	10801014 	ori	r2,r2,64
   42f74:	e0bffa85 	stb	r2,-22(fp)
                        addr.bmAddress = ++hubCounter;
   42f78:	e0bffb17 	ldw	r2,-20(fp)
   42f7c:	108001c3 	ldbu	r2,7(r2)
   42f80:	10800044 	addi	r2,r2,1
   42f84:	1007883a 	mov	r3,r2
   42f88:	e0bffb17 	ldw	r2,-20(fp)
   42f8c:	10c001c5 	stb	r3,7(r2)
   42f90:	e0bffb17 	ldw	r2,-20(fp)
   42f94:	108001c3 	ldbu	r2,7(r2)
   42f98:	108001cc 	andi	r2,r2,7
   42f9c:	110001cc 	andi	r4,r2,7
   42fa0:	e0fffa83 	ldbu	r3,-22(fp)
   42fa4:	00bffe04 	movi	r2,-8
   42fa8:	1884703a 	and	r2,r3,r2
   42fac:	1007883a 	mov	r3,r2
   42fb0:	2005883a 	mov	r2,r4
   42fb4:	1884b03a 	or	r2,r3,r2
   42fb8:	e0bffa85 	stb	r2,-22(fp)
   42fbc:	00000e06 	br	42ff8 <_ZN15AddressPoolImplILh16EE12AllocAddressEhbh+0x204>
                } else {
                        addr.bmHub = 0;
   42fc0:	e0fffa83 	ldbu	r3,-22(fp)
   42fc4:	00bfefc4 	movi	r2,-65
   42fc8:	1884703a 	and	r2,r3,r2
   42fcc:	e0bffa85 	stb	r2,-22(fp)
                        addr.bmAddress = port;
   42fd0:	e0bffe03 	ldbu	r2,-8(fp)
   42fd4:	108001cc 	andi	r2,r2,7
   42fd8:	110001cc 	andi	r4,r2,7
   42fdc:	e0fffa83 	ldbu	r3,-22(fp)
   42fe0:	00bffe04 	movi	r2,-8
   42fe4:	1884703a 	and	r2,r3,r2
   42fe8:	1007883a 	mov	r3,r2
   42fec:	2005883a 	mov	r2,r4
   42ff0:	1884b03a 	or	r2,r3,r2
   42ff4:	e0bffa85 	stb	r2,-22(fp)
                }
                thePool[index].address = addr;
   42ff8:	e0bffa03 	ldbu	r2,-24(fp)
   42ffc:	e43ffb17 	ldw	r16,-20(fp)
   43000:	014001c4 	movi	r5,7
   43004:	1009883a 	mov	r4,r2
   43008:	004dac40 	call	4dac4 <__mulsi3>
   4300c:	8085883a 	add	r2,r16,r2
   43010:	10800304 	addi	r2,r2,12
   43014:	e0fffa83 	ldbu	r3,-22(fp)
   43018:	10c00005 	stb	r3,0(r2)
                                USB_HOST_SERIAL.print(".");
                                USB_HOST_SERIAL.print(addr.bmParent, HEX);
                                USB_HOST_SERIAL.print(".");
                                USB_HOST_SERIAL.println(addr.bmAddress, HEX);
                 */
                return thePool[index].address.devAddress;
   4301c:	e0bffa03 	ldbu	r2,-24(fp)
   43020:	e43ffb17 	ldw	r16,-20(fp)
   43024:	014001c4 	movi	r5,7
   43028:	1009883a 	mov	r4,r2
   4302c:	004dac40 	call	4dac4 <__mulsi3>
   43030:	8085883a 	add	r2,r16,r2
   43034:	10800304 	addi	r2,r2,12
   43038:	10800003 	ldbu	r2,0(r2)
        };
   4303c:	e6ffff04 	addi	sp,fp,-4
   43040:	dfc00217 	ldw	ra,8(sp)
   43044:	df000117 	ldw	fp,4(sp)
   43048:	dc000017 	ldw	r16,0(sp)
   4304c:	dec00304 	addi	sp,sp,12
   43050:	f800283a 	ret

00043054 <_ZN15AddressPoolImplILh16EE11FreeAddressEh>:

        // Empties pool entry

        virtual void FreeAddress(uint8_t addr) {
   43054:	defffb04 	addi	sp,sp,-20
   43058:	dfc00415 	stw	ra,16(sp)
   4305c:	df000315 	stw	fp,12(sp)
   43060:	df000304 	addi	fp,sp,12
   43064:	e13ffe15 	stw	r4,-8(fp)
   43068:	2805883a 	mov	r2,r5
   4306c:	e0bfff05 	stb	r2,-4(fp)
                // if the root hub is disconnected all the addresses should be initialized
                if(addr == 0x41) {
   43070:	e0bfff03 	ldbu	r2,-4(fp)
   43074:	10801058 	cmpnei	r2,r2,65
   43078:	1000031e 	bne	r2,zero,43088 <_ZN15AddressPoolImplILh16EE11FreeAddressEh+0x34>
                        InitAllAddresses();
   4307c:	e13ffe17 	ldw	r4,-8(fp)
   43080:	00432040 	call	43204 <_ZN15AddressPoolImplILh16EE16InitAllAddressesEv>
                        return;
   43084:	00000906 	br	430ac <_ZN15AddressPoolImplILh16EE11FreeAddressEh+0x58>
                }
                uint8_t index = FindAddressIndex(addr);
   43088:	e0bfff03 	ldbu	r2,-4(fp)
   4308c:	100b883a 	mov	r5,r2
   43090:	e13ffe17 	ldw	r4,-8(fp)
   43094:	004326c0 	call	4326c <_ZN15AddressPoolImplILh16EE16FindAddressIndexEh>
   43098:	e0bffd05 	stb	r2,-12(fp)
                FreeAddressByIndex(index);
   4309c:	e0bffd03 	ldbu	r2,-12(fp)
   430a0:	100b883a 	mov	r5,r2
   430a4:	e13ffe17 	ldw	r4,-8(fp)
   430a8:	00433000 	call	43300 <_ZN15AddressPoolImplILh16EE18FreeAddressByIndexEh>
        };
   430ac:	e037883a 	mov	sp,fp
   430b0:	dfc00117 	ldw	ra,4(sp)
   430b4:	df000017 	ldw	fp,0(sp)
   430b8:	dec00204 	addi	sp,sp,8
   430bc:	f800283a 	ret

000430c0 <_ZN15AddressPoolImplILh16EE9InitEntryEh>:

        UsbDevice thePool[MAX_DEVICES_ALLOWED];

        // Initializes address pool entry

        void InitEntry(uint8_t index) {
   430c0:	defffa04 	addi	sp,sp,-24
   430c4:	dfc00515 	stw	ra,20(sp)
   430c8:	df000415 	stw	fp,16(sp)
   430cc:	dc400315 	stw	r17,12(sp)
   430d0:	dc000215 	stw	r16,8(sp)
   430d4:	df000404 	addi	fp,sp,16
   430d8:	e13ffc15 	stw	r4,-16(fp)
   430dc:	2805883a 	mov	r2,r5
   430e0:	e0bffd05 	stb	r2,-12(fp)
                thePool[index].address.devAddress = 0;
   430e4:	e0bffd03 	ldbu	r2,-12(fp)
   430e8:	e43ffc17 	ldw	r16,-16(fp)
   430ec:	014001c4 	movi	r5,7
   430f0:	1009883a 	mov	r4,r2
   430f4:	004dac40 	call	4dac4 <__mulsi3>
   430f8:	8085883a 	add	r2,r16,r2
   430fc:	10800304 	addi	r2,r2,12
   43100:	10000005 	stb	zero,0(r2)
                thePool[index].epcount = 1;
   43104:	e0bffd03 	ldbu	r2,-12(fp)
   43108:	e43ffc17 	ldw	r16,-16(fp)
   4310c:	014001c4 	movi	r5,7
   43110:	1009883a 	mov	r4,r2
   43114:	004dac40 	call	4dac4 <__mulsi3>
   43118:	8085883a 	add	r2,r16,r2
   4311c:	10800344 	addi	r2,r2,13
   43120:	00c00044 	movi	r3,1
   43124:	10c00005 	stb	r3,0(r2)
                thePool[index].lowspeed = 0;
   43128:	e0bffd03 	ldbu	r2,-12(fp)
   4312c:	e43ffc17 	ldw	r16,-16(fp)
   43130:	014001c4 	movi	r5,7
   43134:	1009883a 	mov	r4,r2
   43138:	004dac40 	call	4dac4 <__mulsi3>
   4313c:	8085883a 	add	r2,r16,r2
   43140:	10800384 	addi	r2,r2,14
   43144:	10000005 	stb	zero,0(r2)
                thePool[index].epinfo = &dev0ep;
   43148:	e0fffd03 	ldbu	r3,-12(fp)
   4314c:	e0bffc17 	ldw	r2,-16(fp)
   43150:	14000104 	addi	r16,r2,4
   43154:	e47ffc17 	ldw	r17,-16(fp)
   43158:	014001c4 	movi	r5,7
   4315c:	1809883a 	mov	r4,r3
   43160:	004dac40 	call	4dac4 <__mulsi3>
   43164:	8885883a 	add	r2,r17,r2
   43168:	10800204 	addi	r2,r2,8
   4316c:	81403fcc 	andi	r5,r16,255
   43170:	10c00003 	ldbu	r3,0(r2)
   43174:	1806703a 	and	r3,r3,zero
   43178:	1809883a 	mov	r4,r3
   4317c:	2807883a 	mov	r3,r5
   43180:	20c6b03a 	or	r3,r4,r3
   43184:	10c00005 	stb	r3,0(r2)
   43188:	8006d23a 	srli	r3,r16,8
   4318c:	19403fcc 	andi	r5,r3,255
   43190:	10c00043 	ldbu	r3,1(r2)
   43194:	1806703a 	and	r3,r3,zero
   43198:	1809883a 	mov	r4,r3
   4319c:	2807883a 	mov	r3,r5
   431a0:	20c6b03a 	or	r3,r4,r3
   431a4:	10c00045 	stb	r3,1(r2)
   431a8:	8006d43a 	srli	r3,r16,16
   431ac:	19403fcc 	andi	r5,r3,255
   431b0:	10c00083 	ldbu	r3,2(r2)
   431b4:	1806703a 	and	r3,r3,zero
   431b8:	1809883a 	mov	r4,r3
   431bc:	2807883a 	mov	r3,r5
   431c0:	20c6b03a 	or	r3,r4,r3
   431c4:	10c00085 	stb	r3,2(r2)
   431c8:	800ad63a 	srli	r5,r16,24
   431cc:	10c000c3 	ldbu	r3,3(r2)
   431d0:	1806703a 	and	r3,r3,zero
   431d4:	1809883a 	mov	r4,r3
   431d8:	2807883a 	mov	r3,r5
   431dc:	20c6b03a 	or	r3,r4,r3
   431e0:	10c000c5 	stb	r3,3(r2)
        };
   431e4:	0001883a 	nop
   431e8:	e6fffe04 	addi	sp,fp,-8
   431ec:	dfc00317 	ldw	ra,12(sp)
   431f0:	df000217 	ldw	fp,8(sp)
   431f4:	dc400117 	ldw	r17,4(sp)
   431f8:	dc000017 	ldw	r16,0(sp)
   431fc:	dec00404 	addi	sp,sp,16
   43200:	f800283a 	ret

00043204 <_ZN15AddressPoolImplILh16EE16InitAllAddressesEv>:
                InitEntry(index);
        }

        // Initializes the whole address pool at once

        void InitAllAddresses() {
   43204:	defffc04 	addi	sp,sp,-16
   43208:	dfc00315 	stw	ra,12(sp)
   4320c:	df000215 	stw	fp,8(sp)
   43210:	df000204 	addi	fp,sp,8
   43214:	e13fff15 	stw	r4,-4(fp)
                for(uint8_t i = 1; i < MAX_DEVICES_ALLOWED; i++)
   43218:	00800044 	movi	r2,1
   4321c:	e0bffe05 	stb	r2,-8(fp)
   43220:	e0bffe03 	ldbu	r2,-8(fp)
   43224:	10800428 	cmpgeui	r2,r2,16
   43228:	1000081e 	bne	r2,zero,4324c <_ZN15AddressPoolImplILh16EE16InitAllAddressesEv+0x48>
                        InitEntry(i);
   4322c:	e0bffe03 	ldbu	r2,-8(fp)
   43230:	100b883a 	mov	r5,r2
   43234:	e13fff17 	ldw	r4,-4(fp)
   43238:	00430c00 	call	430c0 <_ZN15AddressPoolImplILh16EE9InitEntryEh>
        }

        // Initializes the whole address pool at once

        void InitAllAddresses() {
                for(uint8_t i = 1; i < MAX_DEVICES_ALLOWED; i++)
   4323c:	e0bffe03 	ldbu	r2,-8(fp)
   43240:	10800044 	addi	r2,r2,1
   43244:	e0bffe05 	stb	r2,-8(fp)
   43248:	003ff506 	br	43220 <__alt_data_end+0xfffc3220>
                        InitEntry(i);

                hubCounter = 0;
   4324c:	e0bfff17 	ldw	r2,-4(fp)
   43250:	100001c5 	stb	zero,7(r2)
        };
   43254:	0001883a 	nop
   43258:	e037883a 	mov	sp,fp
   4325c:	dfc00117 	ldw	ra,4(sp)
   43260:	df000017 	ldw	fp,0(sp)
   43264:	dec00204 	addi	sp,sp,8
   43268:	f800283a 	ret

0004326c <_ZN15AddressPoolImplILh16EE16FindAddressIndexEh>:
                thePool[index].epinfo = &dev0ep;
        };

        // Returns thePool index for a given address

        uint8_t FindAddressIndex(uint8_t address = 0) {
   4326c:	defffa04 	addi	sp,sp,-24
   43270:	dfc00515 	stw	ra,20(sp)
   43274:	df000415 	stw	fp,16(sp)
   43278:	dc000315 	stw	r16,12(sp)
   4327c:	df000404 	addi	fp,sp,16
   43280:	e13ffd15 	stw	r4,-12(fp)
   43284:	2805883a 	mov	r2,r5
   43288:	e0bffe05 	stb	r2,-8(fp)
                for(uint8_t i = 1; i < MAX_DEVICES_ALLOWED; i++) {
   4328c:	00800044 	movi	r2,1
   43290:	e0bffc05 	stb	r2,-16(fp)
   43294:	e0bffc03 	ldbu	r2,-16(fp)
   43298:	10800428 	cmpgeui	r2,r2,16
   4329c:	1000111e 	bne	r2,zero,432e4 <_ZN15AddressPoolImplILh16EE16FindAddressIndexEh+0x78>
                        if(thePool[i].address.devAddress == address)
   432a0:	e0bffc03 	ldbu	r2,-16(fp)
   432a4:	e43ffd17 	ldw	r16,-12(fp)
   432a8:	014001c4 	movi	r5,7
   432ac:	1009883a 	mov	r4,r2
   432b0:	004dac40 	call	4dac4 <__mulsi3>
   432b4:	8085883a 	add	r2,r16,r2
   432b8:	10800304 	addi	r2,r2,12
   432bc:	10800003 	ldbu	r2,0(r2)
   432c0:	10c03fcc 	andi	r3,r2,255
   432c4:	e0bffe03 	ldbu	r2,-8(fp)
   432c8:	1880021e 	bne	r3,r2,432d4 <_ZN15AddressPoolImplILh16EE16FindAddressIndexEh+0x68>
                                return i;
   432cc:	e0bffc03 	ldbu	r2,-16(fp)
   432d0:	00000506 	br	432e8 <_ZN15AddressPoolImplILh16EE16FindAddressIndexEh+0x7c>
        };

        // Returns thePool index for a given address

        uint8_t FindAddressIndex(uint8_t address = 0) {
                for(uint8_t i = 1; i < MAX_DEVICES_ALLOWED; i++) {
   432d4:	e0bffc03 	ldbu	r2,-16(fp)
   432d8:	10800044 	addi	r2,r2,1
   432dc:	e0bffc05 	stb	r2,-16(fp)
   432e0:	003fec06 	br	43294 <__alt_data_end+0xfffc3294>
                        if(thePool[i].address.devAddress == address)
                                return i;
                }
                return 0;
   432e4:	0005883a 	mov	r2,zero
        };
   432e8:	e6ffff04 	addi	sp,fp,-4
   432ec:	dfc00217 	ldw	ra,8(sp)
   432f0:	df000117 	ldw	fp,4(sp)
   432f4:	dc000017 	ldw	r16,0(sp)
   432f8:	dec00304 	addi	sp,sp,12
   432fc:	f800283a 	ret

00043300 <_ZN15AddressPoolImplILh16EE18FreeAddressByIndexEh>:
                return 0;
        };

        // Frees address entry specified by index parameter

        void FreeAddressByIndex(uint8_t index) {
   43300:	defffa04 	addi	sp,sp,-24
   43304:	dfc00515 	stw	ra,20(sp)
   43308:	df000415 	stw	fp,16(sp)
   4330c:	dc000315 	stw	r16,12(sp)
   43310:	df000404 	addi	fp,sp,16
   43314:	e13ffd15 	stw	r4,-12(fp)
   43318:	2805883a 	mov	r2,r5
   4331c:	e0bffe05 	stb	r2,-8(fp)
                // Zero field is reserved and should not be affected
                if(index == 0)
   43320:	e0bffe03 	ldbu	r2,-8(fp)
   43324:	10003026 	beq	r2,zero,433e8 <_ZN15AddressPoolImplILh16EE18FreeAddressByIndexEh+0xe8>
                        return;

                UsbDeviceAddress uda = thePool[index].address;
   43328:	e0bffe03 	ldbu	r2,-8(fp)
   4332c:	e43ffd17 	ldw	r16,-12(fp)
   43330:	014001c4 	movi	r5,7
   43334:	1009883a 	mov	r4,r2
   43338:	004dac40 	call	4dac4 <__mulsi3>
   4333c:	8085883a 	add	r2,r16,r2
   43340:	10800304 	addi	r2,r2,12
   43344:	10800003 	ldbu	r2,0(r2)
   43348:	e0bffc45 	stb	r2,-15(fp)
                // If a hub was switched off all port addresses should be freed
                if(uda.bmHub == 1) {
   4334c:	e0bffc43 	ldbu	r2,-15(fp)
   43350:	1080100c 	andi	r2,r2,64
   43354:	10803fcc 	andi	r2,r2,255
   43358:	10001e26 	beq	r2,zero,433d4 <_ZN15AddressPoolImplILh16EE18FreeAddressByIndexEh+0xd4>
                        for(uint8_t i = 1; (i = FindChildIndex(uda, i));)
   4335c:	00800044 	movi	r2,1
   43360:	e0bffc05 	stb	r2,-16(fp)
   43364:	e0bffc03 	ldbu	r2,-16(fp)
   43368:	100d883a 	mov	r6,r2
   4336c:	e17ffc43 	ldbu	r5,-15(fp)
   43370:	e13ffd17 	ldw	r4,-12(fp)
   43374:	00434040 	call	43404 <_ZN15AddressPoolImplILh16EE14FindChildIndexE16UsbDeviceAddressh>
   43378:	e0bffc05 	stb	r2,-16(fp)
   4337c:	e0bffc03 	ldbu	r2,-16(fp)
   43380:	1004c03a 	cmpne	r2,r2,zero
   43384:	10803fcc 	andi	r2,r2,255
   43388:	10000526 	beq	r2,zero,433a0 <_ZN15AddressPoolImplILh16EE18FreeAddressByIndexEh+0xa0>
                                FreeAddressByIndex(i);
   4338c:	e0bffc03 	ldbu	r2,-16(fp)
   43390:	100b883a 	mov	r5,r2
   43394:	e13ffd17 	ldw	r4,-12(fp)
   43398:	00433000 	call	43300 <_ZN15AddressPoolImplILh16EE18FreeAddressByIndexEh>
                        return;

                UsbDeviceAddress uda = thePool[index].address;
                // If a hub was switched off all port addresses should be freed
                if(uda.bmHub == 1) {
                        for(uint8_t i = 1; (i = FindChildIndex(uda, i));)
   4339c:	003ff106 	br	43364 <__alt_data_end+0xfffc3364>
                                FreeAddressByIndex(i);

                        // If the hub had the last allocated address, hubCounter should be decremented
                        if(hubCounter == uda.bmAddress)
   433a0:	e0bffd17 	ldw	r2,-12(fp)
   433a4:	10c001c3 	ldbu	r3,7(r2)
   433a8:	e0bffc43 	ldbu	r2,-15(fp)
   433ac:	108001cc 	andi	r2,r2,7
   433b0:	18c03fcc 	andi	r3,r3,255
   433b4:	10803fcc 	andi	r2,r2,255
   433b8:	1880061e 	bne	r3,r2,433d4 <_ZN15AddressPoolImplILh16EE18FreeAddressByIndexEh+0xd4>
                                hubCounter--;
   433bc:	e0bffd17 	ldw	r2,-12(fp)
   433c0:	108001c3 	ldbu	r2,7(r2)
   433c4:	10bfffc4 	addi	r2,r2,-1
   433c8:	1007883a 	mov	r3,r2
   433cc:	e0bffd17 	ldw	r2,-12(fp)
   433d0:	10c001c5 	stb	r3,7(r2)
                }
                InitEntry(index);
   433d4:	e0bffe03 	ldbu	r2,-8(fp)
   433d8:	100b883a 	mov	r5,r2
   433dc:	e13ffd17 	ldw	r4,-12(fp)
   433e0:	00430c00 	call	430c0 <_ZN15AddressPoolImplILh16EE9InitEntryEh>
   433e4:	00000106 	br	433ec <_ZN15AddressPoolImplILh16EE18FreeAddressByIndexEh+0xec>
        // Frees address entry specified by index parameter

        void FreeAddressByIndex(uint8_t index) {
                // Zero field is reserved and should not be affected
                if(index == 0)
                        return;
   433e8:	0001883a 	nop
                        // If the hub had the last allocated address, hubCounter should be decremented
                        if(hubCounter == uda.bmAddress)
                                hubCounter--;
                }
                InitEntry(index);
        }
   433ec:	e6ffff04 	addi	sp,fp,-4
   433f0:	dfc00217 	ldw	ra,8(sp)
   433f4:	df000117 	ldw	fp,4(sp)
   433f8:	dc000017 	ldw	r16,0(sp)
   433fc:	dec00304 	addi	sp,sp,12
   43400:	f800283a 	ret

00043404 <_ZN15AddressPoolImplILh16EE14FindChildIndexE16UsbDeviceAddressh>:
                return 0;
        };

        // Returns thePool child index for a given parent

        uint8_t FindChildIndex(UsbDeviceAddress addr, uint8_t start = 1) {
   43404:	defff904 	addi	sp,sp,-28
   43408:	dfc00615 	stw	ra,24(sp)
   4340c:	df000515 	stw	fp,20(sp)
   43410:	dc000415 	stw	r16,16(sp)
   43414:	df000504 	addi	fp,sp,20
   43418:	e13ffc15 	stw	r4,-16(fp)
   4341c:	e17ffd05 	stb	r5,-12(fp)
   43420:	3005883a 	mov	r2,r6
   43424:	e0bffe05 	stb	r2,-8(fp)
                for(uint8_t i = (start < 1 || start >= MAX_DEVICES_ALLOWED) ? 1 : start; i < MAX_DEVICES_ALLOWED; i++) {
   43428:	e0bffe03 	ldbu	r2,-8(fp)
   4342c:	10000526 	beq	r2,zero,43444 <_ZN15AddressPoolImplILh16EE14FindChildIndexE16UsbDeviceAddressh+0x40>
   43430:	e0bffe03 	ldbu	r2,-8(fp)
   43434:	10800428 	cmpgeui	r2,r2,16
   43438:	1000021e 	bne	r2,zero,43444 <_ZN15AddressPoolImplILh16EE14FindChildIndexE16UsbDeviceAddressh+0x40>
   4343c:	e0bffe03 	ldbu	r2,-8(fp)
   43440:	00000106 	br	43448 <_ZN15AddressPoolImplILh16EE14FindChildIndexE16UsbDeviceAddressh+0x44>
   43444:	00800044 	movi	r2,1
   43448:	e0bffb05 	stb	r2,-20(fp)
   4344c:	e0bffb03 	ldbu	r2,-20(fp)
   43450:	10800428 	cmpgeui	r2,r2,16
   43454:	1000161e 	bne	r2,zero,434b0 <_ZN15AddressPoolImplILh16EE14FindChildIndexE16UsbDeviceAddressh+0xac>
                        if(thePool[i].address.bmParent == addr.bmAddress)
   43458:	e0bffb03 	ldbu	r2,-20(fp)
   4345c:	e43ffc17 	ldw	r16,-16(fp)
   43460:	014001c4 	movi	r5,7
   43464:	1009883a 	mov	r4,r2
   43468:	004dac40 	call	4dac4 <__mulsi3>
   4346c:	8085883a 	add	r2,r16,r2
   43470:	10800304 	addi	r2,r2,12
   43474:	10800003 	ldbu	r2,0(r2)
   43478:	1004d0fa 	srli	r2,r2,3
   4347c:	108001cc 	andi	r2,r2,7
   43480:	1007883a 	mov	r3,r2
   43484:	e0bffd03 	ldbu	r2,-12(fp)
   43488:	108001cc 	andi	r2,r2,7
   4348c:	18c03fcc 	andi	r3,r3,255
   43490:	10803fcc 	andi	r2,r2,255
   43494:	1880021e 	bne	r3,r2,434a0 <_ZN15AddressPoolImplILh16EE14FindChildIndexE16UsbDeviceAddressh+0x9c>
                                return i;
   43498:	e0bffb03 	ldbu	r2,-20(fp)
   4349c:	00000506 	br	434b4 <_ZN15AddressPoolImplILh16EE14FindChildIndexE16UsbDeviceAddressh+0xb0>
        };

        // Returns thePool child index for a given parent

        uint8_t FindChildIndex(UsbDeviceAddress addr, uint8_t start = 1) {
                for(uint8_t i = (start < 1 || start >= MAX_DEVICES_ALLOWED) ? 1 : start; i < MAX_DEVICES_ALLOWED; i++) {
   434a0:	e0bffb03 	ldbu	r2,-20(fp)
   434a4:	10800044 	addi	r2,r2,1
   434a8:	e0bffb05 	stb	r2,-20(fp)
   434ac:	003fe706 	br	4344c <__alt_data_end+0xfffc344c>
                        if(thePool[i].address.bmParent == addr.bmAddress)
                                return i;
                }
                return 0;
   434b0:	0005883a 	mov	r2,zero
        };
   434b4:	e6ffff04 	addi	sp,fp,-4
   434b8:	dfc00217 	ldw	ra,8(sp)
   434bc:	df000117 	ldw	fp,4(sp)
   434c0:	dc000017 	ldw	r16,0(sp)
   434c4:	dec00304 	addi	sp,sp,12
   434c8:	f800283a 	ret

000434cc <_ZN7XBOXONEC1EP3USB>:
#include "XBOXONE.h"
// To enable serial debugging see "settings.h"
//#define EXTRADEBUG // Uncomment to get even more debugging data
//#define PRINTREPORT // Uncomment to print the report send by the Xbox ONE Controller

XBOXONE::XBOXONE(USB *p) :
   434cc:	defffb04 	addi	sp,sp,-20
   434d0:	dfc00415 	stw	ra,16(sp)
   434d4:	df000315 	stw	fp,12(sp)
   434d8:	df000304 	addi	fp,sp,12
   434dc:	e13ffe15 	stw	r4,-8(fp)
   434e0:	e17fff15 	stw	r5,-4(fp)
pUsb(p), // pointer to USB class instance - mandatory
bAddress(0), // device address - mandatory
bNumEP(1), // If config descriptor needs to be parsed
qNextPollTime(0), // Reset NextPollTime
pollInterval(0),
bPollEnable(false) { // don't start polling before dongle is connected
   434e4:	e0bffe17 	ldw	r2,-8(fp)
   434e8:	1009883a 	mov	r4,r2
   434ec:	0044e880 	call	44e88 <_ZN15USBDeviceConfigC1Ev>
   434f0:	e0bffe17 	ldw	r2,-8(fp)
   434f4:	10800104 	addi	r2,r2,4
   434f8:	1009883a 	mov	r4,r2
   434fc:	0044ebc0 	call	44ebc <_ZN17UsbConfigXtracterC1Ev>
   43500:	008001b4 	movhi	r2,6
   43504:	10939204 	addi	r2,r2,20040
   43508:	e0fffe17 	ldw	r3,-8(fp)
   4350c:	18800015 	stw	r2,0(r3)
   43510:	008001b4 	movhi	r2,6
   43514:	10939f04 	addi	r2,r2,20092
   43518:	e0fffe17 	ldw	r3,-8(fp)
   4351c:	18800115 	stw	r2,4(r3)
   43520:	e0bffe17 	ldw	r2,-8(fp)
   43524:	e0ffff17 	ldw	r3,-4(fp)
   43528:	10c00315 	stw	r3,12(r2)
   4352c:	e0bffe17 	ldw	r2,-8(fp)
   43530:	10000405 	stb	zero,16(r2)
   43534:	e0bffe17 	ldw	r2,-8(fp)
   43538:	00c00044 	movi	r3,1
   4353c:	10c006c5 	stb	r3,27(r2)
   43540:	e0bffe17 	ldw	r2,-8(fp)
   43544:	10000715 	stw	zero,28(r2)
   43548:	e0bffe17 	ldw	r2,-8(fp)
   4354c:	10000905 	stb	zero,36(r2)
   43550:	e0bffe17 	ldw	r2,-8(fp)
   43554:	10000945 	stb	zero,37(r2)
        for(uint8_t i = 0; i < XBOX_ONE_MAX_ENDPOINTS; i++) {
   43558:	e03ffd05 	stb	zero,-12(fp)
   4355c:	e0bffd03 	ldbu	r2,-12(fp)
   43560:	108000e8 	cmpgeui	r2,r2,3
   43564:	1000431e 	bne	r2,zero,43674 <_ZN7XBOXONEC1EP3USB+0x1a8>
                epInfo[i].epAddr = 0;
   43568:	e0fffd03 	ldbu	r3,-12(fp)
   4356c:	e13ffe17 	ldw	r4,-8(fp)
   43570:	1805883a 	mov	r2,r3
   43574:	1085883a 	add	r2,r2,r2
   43578:	10c5883a 	add	r2,r2,r3
   4357c:	2085883a 	add	r2,r4,r2
   43580:	10800444 	addi	r2,r2,17
   43584:	10000005 	stb	zero,0(r2)
                epInfo[i].maxPktSize = (i) ? 0 : 8;
   43588:	e13ffd03 	ldbu	r4,-12(fp)
   4358c:	e0bffd03 	ldbu	r2,-12(fp)
   43590:	10000226 	beq	r2,zero,4359c <_ZN7XBOXONEC1EP3USB+0xd0>
   43594:	0007883a 	mov	r3,zero
   43598:	00000106 	br	435a0 <_ZN7XBOXONEC1EP3USB+0xd4>
   4359c:	00c00204 	movi	r3,8
   435a0:	e17ffe17 	ldw	r5,-8(fp)
   435a4:	2005883a 	mov	r2,r4
   435a8:	1085883a 	add	r2,r2,r2
   435ac:	1105883a 	add	r2,r2,r4
   435b0:	2885883a 	add	r2,r5,r2
   435b4:	10800484 	addi	r2,r2,18
   435b8:	10c00005 	stb	r3,0(r2)
                epInfo[i].bmSndToggle = 0;
   435bc:	e0fffd03 	ldbu	r3,-12(fp)
   435c0:	e13ffe17 	ldw	r4,-8(fp)
   435c4:	1805883a 	mov	r2,r3
   435c8:	1085883a 	add	r2,r2,r2
   435cc:	10c5883a 	add	r2,r2,r3
   435d0:	2085883a 	add	r2,r4,r2
   435d4:	10800404 	addi	r2,r2,16
   435d8:	110000c3 	ldbu	r4,3(r2)
   435dc:	00ffff84 	movi	r3,-2
   435e0:	20c6703a 	and	r3,r4,r3
   435e4:	10c000c5 	stb	r3,3(r2)
                epInfo[i].bmRcvToggle = 0;
   435e8:	e0fffd03 	ldbu	r3,-12(fp)
   435ec:	e13ffe17 	ldw	r4,-8(fp)
   435f0:	1805883a 	mov	r2,r3
   435f4:	1085883a 	add	r2,r2,r2
   435f8:	10c5883a 	add	r2,r2,r3
   435fc:	2085883a 	add	r2,r4,r2
   43600:	10800404 	addi	r2,r2,16
   43604:	110000c3 	ldbu	r4,3(r2)
   43608:	00ffff44 	movi	r3,-3
   4360c:	20c6703a 	and	r3,r4,r3
   43610:	10c000c5 	stb	r3,3(r2)
                epInfo[i].bmNakPower = (i) ? USB_NAK_NOWAIT : USB_NAK_MAX_POWER;
   43614:	e13ffd03 	ldbu	r4,-12(fp)
   43618:	e0bffd03 	ldbu	r2,-12(fp)
   4361c:	10000226 	beq	r2,zero,43628 <_ZN7XBOXONEC1EP3USB+0x15c>
   43620:	00c00044 	movi	r3,1
   43624:	00000106 	br	4362c <_ZN7XBOXONEC1EP3USB+0x160>
   43628:	00c003c4 	movi	r3,15
   4362c:	e17ffe17 	ldw	r5,-8(fp)
   43630:	2005883a 	mov	r2,r4
   43634:	1085883a 	add	r2,r2,r2
   43638:	1105883a 	add	r2,r2,r4
   4363c:	2885883a 	add	r2,r5,r2
   43640:	10800404 	addi	r2,r2,16
   43644:	18c7883a 	add	r3,r3,r3
   43648:	18cb883a 	add	r5,r3,r3
   4364c:	10c000c3 	ldbu	r3,3(r2)
   43650:	18c000cc 	andi	r3,r3,3
   43654:	1809883a 	mov	r4,r3
   43658:	2807883a 	mov	r3,r5
   4365c:	20c6b03a 	or	r3,r4,r3
   43660:	10c000c5 	stb	r3,3(r2)
bAddress(0), // device address - mandatory
bNumEP(1), // If config descriptor needs to be parsed
qNextPollTime(0), // Reset NextPollTime
pollInterval(0),
bPollEnable(false) { // don't start polling before dongle is connected
        for(uint8_t i = 0; i < XBOX_ONE_MAX_ENDPOINTS; i++) {
   43664:	e0bffd03 	ldbu	r2,-12(fp)
   43668:	10800044 	addi	r2,r2,1
   4366c:	e0bffd05 	stb	r2,-12(fp)
   43670:	003fba06 	br	4355c <__alt_data_end+0xfffc355c>
                epInfo[i].bmSndToggle = 0;
                epInfo[i].bmRcvToggle = 0;
                epInfo[i].bmNakPower = (i) ? USB_NAK_NOWAIT : USB_NAK_MAX_POWER;
        }

        if(pUsb) // register in USB subsystem
   43674:	e0bffe17 	ldw	r2,-8(fp)
   43678:	10800317 	ldw	r2,12(r2)
   4367c:	10000626 	beq	r2,zero,43698 <_ZN7XBOXONEC1EP3USB+0x1cc>
                pUsb->RegisterDeviceClass(this); //set devConfig[] entry
   43680:	e0bffe17 	ldw	r2,-8(fp)
   43684:	10800317 	ldw	r2,12(r2)
   43688:	e0fffe17 	ldw	r3,-8(fp)
   4368c:	180b883a 	mov	r5,r3
   43690:	1009883a 	mov	r4,r2
   43694:	0044c3c0 	call	44c3c <_ZN3USB19RegisterDeviceClassEP15USBDeviceConfig>
}
   43698:	0001883a 	nop
   4369c:	e037883a 	mov	sp,fp
   436a0:	dfc00117 	ldw	ra,4(sp)
   436a4:	df000017 	ldw	fp,0(sp)
   436a8:	dec00204 	addi	sp,sp,8
   436ac:	f800283a 	ret

000436b0 <_ZN7XBOXONE4InitEhhb>:

uint8_t XBOXONE::Init(uint8_t parent, uint8_t port, bool lowspeed) {
   436b0:	deffde04 	addi	sp,sp,-136
   436b4:	dfc02115 	stw	ra,132(sp)
   436b8:	df002015 	stw	fp,128(sp)
   436bc:	df002004 	addi	fp,sp,128
   436c0:	e13ffc15 	stw	r4,-16(fp)
   436c4:	2809883a 	mov	r4,r5
   436c8:	3007883a 	mov	r3,r6
   436cc:	3805883a 	mov	r2,r7
   436d0:	e13ffd05 	stb	r4,-12(fp)
   436d4:	e0fffe05 	stb	r3,-8(fp)
   436d8:	e0bfff05 	stb	r2,-4(fp)
        uint8_t buf[sizeof (USB_DEVICE_DESCRIPTOR)];
        USB_DEVICE_DESCRIPTOR * udd = reinterpret_cast<USB_DEVICE_DESCRIPTOR*>(buf);
   436dc:	e0bfe744 	addi	r2,fp,-99
   436e0:	e0bfe215 	stw	r2,-120(fp)
        uint8_t rcode;
        UsbDevice *p = NULL;
   436e4:	e03fe315 	stw	zero,-116(fp)
        EpInfo *oldep_ptr = NULL;
   436e8:	e03fe415 	stw	zero,-112(fp)
        uint16_t PID, VID;
        uint8_t num_of_conf; // Number of configurations

        // get memory address of USB device address pool
        AddressPool &addrPool = pUsb->GetAddressPool();
   436ec:	e0bffc17 	ldw	r2,-16(fp)
   436f0:	10800317 	ldw	r2,12(r2)
   436f4:	1009883a 	mov	r4,r2
   436f8:	0042c180 	call	42c18 <_ZN3USB14GetAddressPoolEv>
   436fc:	e0bfe515 	stw	r2,-108(fp)
#ifdef EXTRADEBUG
        Notify(PSTR("\r\nXBOXONE Init"), 0x80);
#endif
        // check if address has already been assigned to an instance
        if(bAddress) {
   43700:	e0bffc17 	ldw	r2,-16(fp)
   43704:	10800403 	ldbu	r2,16(r2)
   43708:	10803fcc 	andi	r2,r2,255
   4370c:	10000226 	beq	r2,zero,43718 <_ZN7XBOXONE4InitEhhb+0x68>
#ifdef DEBUG_USB_HOST
                Notify(PSTR("\r\nAddress in use"), 0x80);
#endif
                return USB_ERROR_CLASS_INSTANCE_ALREADY_IN_USE;
   43710:	00bff644 	movi	r2,-39
   43714:	00017606 	br	43cf0 <_ZN7XBOXONE4InitEhhb+0x640>
        }

        // Get pointer to pseudo device with address 0 assigned
        p = addrPool.GetUsbDevicePtr(0);
   43718:	e0bfe517 	ldw	r2,-108(fp)
   4371c:	10800017 	ldw	r2,0(r2)
   43720:	10800017 	ldw	r2,0(r2)
   43724:	000b883a 	mov	r5,zero
   43728:	e13fe517 	ldw	r4,-108(fp)
   4372c:	103ee83a 	callr	r2
   43730:	e0bfe315 	stw	r2,-116(fp)

        if(!p) {
   43734:	e0bfe317 	ldw	r2,-116(fp)
   43738:	1000021e 	bne	r2,zero,43744 <_ZN7XBOXONE4InitEhhb+0x94>
#ifdef DEBUG_USB_HOST
                Notify(PSTR("\r\nAddress not found"), 0x80);
#endif
                return USB_ERROR_ADDRESS_NOT_FOUND_IN_POOL;
   4373c:	00bff584 	movi	r2,-42
   43740:	00016b06 	br	43cf0 <_ZN7XBOXONE4InitEhhb+0x640>
        }

        if(!p->epinfo) {
   43744:	e0bfe317 	ldw	r2,-116(fp)
   43748:	10c00003 	ldbu	r3,0(r2)
   4374c:	11000043 	ldbu	r4,1(r2)
   43750:	2008923a 	slli	r4,r4,8
   43754:	20c6b03a 	or	r3,r4,r3
   43758:	11000083 	ldbu	r4,2(r2)
   4375c:	2008943a 	slli	r4,r4,16
   43760:	20c6b03a 	or	r3,r4,r3
   43764:	108000c3 	ldbu	r2,3(r2)
   43768:	1004963a 	slli	r2,r2,24
   4376c:	10c4b03a 	or	r2,r2,r3
   43770:	1000021e 	bne	r2,zero,4377c <_ZN7XBOXONE4InitEhhb+0xcc>
#ifdef DEBUG_USB_HOST
                Notify(PSTR("\r\nepinfo is null"), 0x80);
#endif
                return USB_ERROR_EPINFO_IS_NULL;
   43774:	00bff5c4 	movi	r2,-41
   43778:	00015d06 	br	43cf0 <_ZN7XBOXONE4InitEhhb+0x640>
        }

        // Save old pointer to EP_RECORD of address 0
        oldep_ptr = p->epinfo;
   4377c:	e0bfe317 	ldw	r2,-116(fp)
   43780:	10c00003 	ldbu	r3,0(r2)
   43784:	11000043 	ldbu	r4,1(r2)
   43788:	2008923a 	slli	r4,r4,8
   4378c:	20c6b03a 	or	r3,r4,r3
   43790:	11000083 	ldbu	r4,2(r2)
   43794:	2008943a 	slli	r4,r4,16
   43798:	20c6b03a 	or	r3,r4,r3
   4379c:	108000c3 	ldbu	r2,3(r2)
   437a0:	1004963a 	slli	r2,r2,24
   437a4:	10c4b03a 	or	r2,r2,r3
   437a8:	e0bfe415 	stw	r2,-112(fp)

        // Temporary assign new pointer to epInfo to p->epinfo in order to avoid toggle inconsistence
        p->epinfo = epInfo;
   437ac:	e0bffc17 	ldw	r2,-16(fp)
   437b0:	10c00444 	addi	r3,r2,17
   437b4:	e0bfe317 	ldw	r2,-116(fp)
   437b8:	19803fcc 	andi	r6,r3,255
   437bc:	11000003 	ldbu	r4,0(r2)
   437c0:	2008703a 	and	r4,r4,zero
   437c4:	200b883a 	mov	r5,r4
   437c8:	3009883a 	mov	r4,r6
   437cc:	2908b03a 	or	r4,r5,r4
   437d0:	11000005 	stb	r4,0(r2)
   437d4:	1808d23a 	srli	r4,r3,8
   437d8:	21803fcc 	andi	r6,r4,255
   437dc:	11000043 	ldbu	r4,1(r2)
   437e0:	2008703a 	and	r4,r4,zero
   437e4:	200b883a 	mov	r5,r4
   437e8:	3009883a 	mov	r4,r6
   437ec:	2908b03a 	or	r4,r5,r4
   437f0:	11000045 	stb	r4,1(r2)
   437f4:	1808d43a 	srli	r4,r3,16
   437f8:	21803fcc 	andi	r6,r4,255
   437fc:	11000083 	ldbu	r4,2(r2)
   43800:	2008703a 	and	r4,r4,zero
   43804:	200b883a 	mov	r5,r4
   43808:	3009883a 	mov	r4,r6
   4380c:	2908b03a 	or	r4,r5,r4
   43810:	11000085 	stb	r4,2(r2)
   43814:	180ad63a 	srli	r5,r3,24
   43818:	10c000c3 	ldbu	r3,3(r2)
   4381c:	1806703a 	and	r3,r3,zero
   43820:	1809883a 	mov	r4,r3
   43824:	2807883a 	mov	r3,r5
   43828:	20c6b03a 	or	r3,r4,r3
   4382c:	10c000c5 	stb	r3,3(r2)

        p->lowspeed = lowspeed;
   43830:	e0bfe317 	ldw	r2,-116(fp)
   43834:	e0ffff03 	ldbu	r3,-4(fp)
   43838:	10c00185 	stb	r3,6(r2)

        // Get device descriptor
        rcode = pUsb->getDevDescr(0, 0, sizeof (USB_DEVICE_DESCRIPTOR), (uint8_t*)buf); // Get device descriptor - addr, ep, nbytes, data
   4383c:	e0bffc17 	ldw	r2,-16(fp)
   43840:	10c00317 	ldw	r3,12(r2)
   43844:	00800484 	movi	r2,18
   43848:	113fffcc 	andi	r4,r2,65535
   4384c:	e0bfe744 	addi	r2,fp,-99
   43850:	d8800015 	stw	r2,0(sp)
   43854:	200f883a 	mov	r7,r4
   43858:	000d883a 	mov	r6,zero
   4385c:	000b883a 	mov	r5,zero
   43860:	1809883a 	mov	r4,r3
   43864:	00428440 	call	42844 <_ZN3USB11getDevDescrEhhtPh>
   43868:	e0bfe105 	stb	r2,-124(fp)
        // Restore p->epinfo
        p->epinfo = oldep_ptr;
   4386c:	e0bfe317 	ldw	r2,-116(fp)
   43870:	e0ffe417 	ldw	r3,-112(fp)
   43874:	19403fcc 	andi	r5,r3,255
   43878:	10c00003 	ldbu	r3,0(r2)
   4387c:	1806703a 	and	r3,r3,zero
   43880:	1809883a 	mov	r4,r3
   43884:	2807883a 	mov	r3,r5
   43888:	20c6b03a 	or	r3,r4,r3
   4388c:	10c00005 	stb	r3,0(r2)
   43890:	e0ffe417 	ldw	r3,-112(fp)
   43894:	1806d23a 	srli	r3,r3,8
   43898:	19403fcc 	andi	r5,r3,255
   4389c:	10c00043 	ldbu	r3,1(r2)
   438a0:	1806703a 	and	r3,r3,zero
   438a4:	1809883a 	mov	r4,r3
   438a8:	2807883a 	mov	r3,r5
   438ac:	20c6b03a 	or	r3,r4,r3
   438b0:	10c00045 	stb	r3,1(r2)
   438b4:	e0ffe417 	ldw	r3,-112(fp)
   438b8:	1806d43a 	srli	r3,r3,16
   438bc:	19403fcc 	andi	r5,r3,255
   438c0:	10c00083 	ldbu	r3,2(r2)
   438c4:	1806703a 	and	r3,r3,zero
   438c8:	1809883a 	mov	r4,r3
   438cc:	2807883a 	mov	r3,r5
   438d0:	20c6b03a 	or	r3,r4,r3
   438d4:	10c00085 	stb	r3,2(r2)
   438d8:	e0ffe417 	ldw	r3,-112(fp)
   438dc:	180ad63a 	srli	r5,r3,24
   438e0:	10c000c3 	ldbu	r3,3(r2)
   438e4:	1806703a 	and	r3,r3,zero
   438e8:	1809883a 	mov	r4,r3
   438ec:	2807883a 	mov	r3,r5
   438f0:	20c6b03a 	or	r3,r4,r3
   438f4:	10c000c5 	stb	r3,3(r2)

        if(rcode)
   438f8:	e0bfe103 	ldbu	r2,-124(fp)
   438fc:	1000e61e 	bne	r2,zero,43c98 <_ZN7XBOXONE4InitEhhb+0x5e8>
                goto FailGetDevDescr;

        VID = udd->idVendor;
   43900:	e0bfe217 	ldw	r2,-120(fp)
   43904:	10c00203 	ldbu	r3,8(r2)
   43908:	10800243 	ldbu	r2,9(r2)
   4390c:	1004923a 	slli	r2,r2,8
   43910:	10c4b03a 	or	r2,r2,r3
   43914:	e0bfe60d 	sth	r2,-104(fp)
        PID = udd->idProduct;
   43918:	e0bfe217 	ldw	r2,-120(fp)
   4391c:	10c00283 	ldbu	r3,10(r2)
   43920:	108002c3 	ldbu	r2,11(r2)
   43924:	1004923a 	slli	r2,r2,8
   43928:	10c4b03a 	or	r2,r2,r3
   4392c:	e0bfe68d 	sth	r2,-102(fp)

        if(!VIDPIDOK(VID, PID)) // Check VID
   43930:	e0bffc17 	ldw	r2,-16(fp)
   43934:	10800017 	ldw	r2,0(r2)
   43938:	10800604 	addi	r2,r2,24
   4393c:	10800017 	ldw	r2,0(r2)
   43940:	e0ffe60b 	ldhu	r3,-104(fp)
   43944:	e13fe68b 	ldhu	r4,-102(fp)
   43948:	200d883a 	mov	r6,r4
   4394c:	180b883a 	mov	r5,r3
   43950:	e13ffc17 	ldw	r4,-16(fp)
   43954:	103ee83a 	callr	r2
   43958:	1080005c 	xori	r2,r2,1
   4395c:	10803fcc 	andi	r2,r2,255
   43960:	1000d51e 	bne	r2,zero,43cb8 <_ZN7XBOXONE4InitEhhb+0x608>
                goto FailUnknownDevice;

        // Allocate new address according to device class
        bAddress = addrPool.AllocAddress(parent, false, port);
   43964:	e0bfe517 	ldw	r2,-108(fp)
   43968:	10800017 	ldw	r2,0(r2)
   4396c:	10800104 	addi	r2,r2,4
   43970:	10800017 	ldw	r2,0(r2)
   43974:	e0fffd03 	ldbu	r3,-12(fp)
   43978:	e13ffe03 	ldbu	r4,-8(fp)
   4397c:	200f883a 	mov	r7,r4
   43980:	000d883a 	mov	r6,zero
   43984:	180b883a 	mov	r5,r3
   43988:	e13fe517 	ldw	r4,-108(fp)
   4398c:	103ee83a 	callr	r2
   43990:	1007883a 	mov	r3,r2
   43994:	e0bffc17 	ldw	r2,-16(fp)
   43998:	10c00405 	stb	r3,16(r2)

        if(!bAddress)
   4399c:	e0bffc17 	ldw	r2,-16(fp)
   439a0:	10800403 	ldbu	r2,16(r2)
   439a4:	10803fcc 	andi	r2,r2,255
   439a8:	1000021e 	bne	r2,zero,439b4 <_ZN7XBOXONE4InitEhhb+0x304>
                return USB_ERROR_OUT_OF_ADDRESS_SPACE_IN_POOL;
   439ac:	00bff504 	movi	r2,-44
   439b0:	0000cf06 	br	43cf0 <_ZN7XBOXONE4InitEhhb+0x640>

        // Extract Max Packet Size from device descriptor
        epInfo[0].maxPktSize = udd->bMaxPacketSize0;
   439b4:	e0bfe217 	ldw	r2,-120(fp)
   439b8:	10c001c3 	ldbu	r3,7(r2)
   439bc:	e0bffc17 	ldw	r2,-16(fp)
   439c0:	10c00485 	stb	r3,18(r2)

        // Assign new address to the device
        rcode = pUsb->setAddr(0, 0, bAddress);
   439c4:	e0bffc17 	ldw	r2,-16(fp)
   439c8:	10c00317 	ldw	r3,12(r2)
   439cc:	e0bffc17 	ldw	r2,-16(fp)
   439d0:	10800403 	ldbu	r2,16(r2)
   439d4:	10803fcc 	andi	r2,r2,255
   439d8:	100f883a 	mov	r7,r2
   439dc:	000d883a 	mov	r6,zero
   439e0:	000b883a 	mov	r5,zero
   439e4:	1809883a 	mov	r4,r3
   439e8:	0042b000 	call	42b00 <_ZN3USB7setAddrEhhh>
   439ec:	e0bfe105 	stb	r2,-124(fp)
        if(rcode) {
   439f0:	e0bfe103 	ldbu	r2,-124(fp)
   439f4:	10001026 	beq	r2,zero,43a38 <_ZN7XBOXONE4InitEhhb+0x388>
                p->lowspeed = false;
   439f8:	e0bfe317 	ldw	r2,-116(fp)
   439fc:	10000185 	stb	zero,6(r2)
                addrPool.FreeAddress(bAddress);
   43a00:	e0bfe517 	ldw	r2,-108(fp)
   43a04:	10800017 	ldw	r2,0(r2)
   43a08:	10800204 	addi	r2,r2,8
   43a0c:	10800017 	ldw	r2,0(r2)
   43a10:	e0fffc17 	ldw	r3,-16(fp)
   43a14:	18c00403 	ldbu	r3,16(r3)
   43a18:	18c03fcc 	andi	r3,r3,255
   43a1c:	180b883a 	mov	r5,r3
   43a20:	e13fe517 	ldw	r4,-108(fp)
   43a24:	103ee83a 	callr	r2
                bAddress = 0;
   43a28:	e0bffc17 	ldw	r2,-16(fp)
   43a2c:	10000405 	stb	zero,16(r2)
#ifdef DEBUG_USB_HOST
                Notify(PSTR("\r\nsetAddr: "), 0x80);
                D_PrintHex<uint8_t > (rcode, 0x80);
#endif
                return rcode;
   43a30:	e0bfe103 	ldbu	r2,-124(fp)
   43a34:	0000ae06 	br	43cf0 <_ZN7XBOXONE4InitEhhb+0x640>
        Notify(PSTR("\r\nAddr: "), 0x80);
        D_PrintHex<uint8_t > (bAddress, 0x80);
#endif
        //delay(300); // Spec says you should wait at least 200ms

        p->lowspeed = false;
   43a38:	e0bfe317 	ldw	r2,-116(fp)
   43a3c:	10000185 	stb	zero,6(r2)

        //get pointer to assigned address record
        p = addrPool.GetUsbDevicePtr(bAddress);
   43a40:	e0bfe517 	ldw	r2,-108(fp)
   43a44:	10800017 	ldw	r2,0(r2)
   43a48:	10800017 	ldw	r2,0(r2)
   43a4c:	e0fffc17 	ldw	r3,-16(fp)
   43a50:	18c00403 	ldbu	r3,16(r3)
   43a54:	18c03fcc 	andi	r3,r3,255
   43a58:	180b883a 	mov	r5,r3
   43a5c:	e13fe517 	ldw	r4,-108(fp)
   43a60:	103ee83a 	callr	r2
   43a64:	e0bfe315 	stw	r2,-116(fp)
        if(!p)
   43a68:	e0bfe317 	ldw	r2,-116(fp)
   43a6c:	1000021e 	bne	r2,zero,43a78 <_ZN7XBOXONE4InitEhhb+0x3c8>
                return USB_ERROR_ADDRESS_NOT_FOUND_IN_POOL;
   43a70:	00bff584 	movi	r2,-42
   43a74:	00009e06 	br	43cf0 <_ZN7XBOXONE4InitEhhb+0x640>

        p->lowspeed = lowspeed;
   43a78:	e0bfe317 	ldw	r2,-116(fp)
   43a7c:	e0ffff03 	ldbu	r3,-4(fp)
   43a80:	10c00185 	stb	r3,6(r2)

        // Assign epInfo to epinfo pointer - only EP0 is known
        rcode = pUsb->setEpInfoEntry(bAddress, 1, epInfo);
   43a84:	e0bffc17 	ldw	r2,-16(fp)
   43a88:	10c00317 	ldw	r3,12(r2)
   43a8c:	e0bffc17 	ldw	r2,-16(fp)
   43a90:	10800403 	ldbu	r2,16(r2)
   43a94:	11003fcc 	andi	r4,r2,255
   43a98:	e0bffc17 	ldw	r2,-16(fp)
   43a9c:	10800444 	addi	r2,r2,17
   43aa0:	100f883a 	mov	r7,r2
   43aa4:	01800044 	movi	r6,1
   43aa8:	200b883a 	mov	r5,r4
   43aac:	1809883a 	mov	r4,r3
   43ab0:	00408f40 	call	408f4 <_ZN3USB14setEpInfoEntryEhhP6EpInfo>
   43ab4:	e0bfe105 	stb	r2,-124(fp)
        if(rcode)
   43ab8:	e0bfe103 	ldbu	r2,-124(fp)
   43abc:	1000781e 	bne	r2,zero,43ca0 <_ZN7XBOXONE4InitEhhb+0x5f0>
                goto FailSetDevTblEntry;

        num_of_conf = udd->bNumConfigurations; // Number of configurations
   43ac0:	e0bfe217 	ldw	r2,-120(fp)
   43ac4:	10800443 	ldbu	r2,17(r2)
   43ac8:	e0bfe705 	stb	r2,-100(fp)

        USBTRACE2("NC:", num_of_conf);
   43acc:	e0bfe703 	ldbu	r2,-100(fp)
   43ad0:	01402004 	movi	r5,128
   43ad4:	1009883a 	mov	r4,r2
   43ad8:	0042dc80 	call	42dc8 <_Z10D_PrintHexIhEvT_i>

        // Check if attached device is a Xbox One controller and fill endpoint data structure
        for(uint8_t i = 0; i < num_of_conf; i++) {
   43adc:	e03fe145 	stb	zero,-123(fp)
   43ae0:	e0ffe143 	ldbu	r3,-123(fp)
   43ae4:	e0bfe703 	ldbu	r2,-100(fp)
   43ae8:	1880222e 	bgeu	r3,r2,43b74 <_ZN7XBOXONE4InitEhhb+0x4c4>
                ConfigDescParser<0, 0, 0, 0> confDescrParser(this); // Allow all devices, as we have already verified that it is a Xbox One controller from the VID and PID
   43aec:	e0bffc17 	ldw	r2,-16(fp)
   43af0:	10c00104 	addi	r3,r2,4
   43af4:	e0bfed04 	addi	r2,fp,-76
   43af8:	180b883a 	mov	r5,r3
   43afc:	1009883a 	mov	r4,r2
   43b00:	0044f240 	call	44f24 <_ZN16ConfigDescParserILh0ELh0ELh0ELh0EEC1EP17UsbConfigXtracter>
                rcode = pUsb->getConfDescr(bAddress, 0, i, &confDescrParser);
   43b04:	e0bffc17 	ldw	r2,-16(fp)
   43b08:	10c00317 	ldw	r3,12(r2)
   43b0c:	e0bffc17 	ldw	r2,-16(fp)
   43b10:	10800403 	ldbu	r2,16(r2)
   43b14:	11003fcc 	andi	r4,r2,255
   43b18:	e17fe143 	ldbu	r5,-123(fp)
   43b1c:	e0bfed04 	addi	r2,fp,-76
   43b20:	d8800015 	stw	r2,0(sp)
   43b24:	280f883a 	mov	r7,r5
   43b28:	000d883a 	mov	r6,zero
   43b2c:	200b883a 	mov	r5,r4
   43b30:	1809883a 	mov	r4,r3
   43b34:	00429600 	call	42960 <_ZN3USB12getConfDescrEhhhP13USBReadParser>
   43b38:	e0bfe105 	stb	r2,-124(fp)
                if(rcode) // Check error code
   43b3c:	e0bfe103 	ldbu	r2,-124(fp)
   43b40:	10000226 	beq	r2,zero,43b4c <_ZN7XBOXONE4InitEhhb+0x49c>
                        goto FailGetConfDescr;
   43b44:	0001883a 	nop

FailSetConfDescr:
#ifdef DEBUG_USB_HOST
        NotifyFailSetConfDescr();
#endif
        goto Fail;
   43b48:	00006206 	br	43cd4 <_ZN7XBOXONE4InitEhhb+0x624>
        for(uint8_t i = 0; i < num_of_conf; i++) {
                ConfigDescParser<0, 0, 0, 0> confDescrParser(this); // Allow all devices, as we have already verified that it is a Xbox One controller from the VID and PID
                rcode = pUsb->getConfDescr(bAddress, 0, i, &confDescrParser);
                if(rcode) // Check error code
                        goto FailGetConfDescr;
                if(bNumEP >= XBOX_ONE_MAX_ENDPOINTS) // All endpoints extracted
   43b4c:	e0bffc17 	ldw	r2,-16(fp)
   43b50:	108006c3 	ldbu	r2,27(r2)
   43b54:	10803fcc 	andi	r2,r2,255
   43b58:	108000f0 	cmpltui	r2,r2,3
   43b5c:	10000426 	beq	r2,zero,43b70 <_ZN7XBOXONE4InitEhhb+0x4c0>
        num_of_conf = udd->bNumConfigurations; // Number of configurations

        USBTRACE2("NC:", num_of_conf);

        // Check if attached device is a Xbox One controller and fill endpoint data structure
        for(uint8_t i = 0; i < num_of_conf; i++) {
   43b60:	e0bfe143 	ldbu	r2,-123(fp)
   43b64:	10800044 	addi	r2,r2,1
   43b68:	e0bfe145 	stb	r2,-123(fp)
   43b6c:	003fdc06 	br	43ae0 <__alt_data_end+0xfffc3ae0>
                ConfigDescParser<0, 0, 0, 0> confDescrParser(this); // Allow all devices, as we have already verified that it is a Xbox One controller from the VID and PID
                rcode = pUsb->getConfDescr(bAddress, 0, i, &confDescrParser);
                if(rcode) // Check error code
                        goto FailGetConfDescr;
                if(bNumEP >= XBOX_ONE_MAX_ENDPOINTS) // All endpoints extracted
                        break;
   43b70:	0001883a 	nop
        }

        if(bNumEP < XBOX_ONE_MAX_ENDPOINTS)
   43b74:	e0bffc17 	ldw	r2,-16(fp)
   43b78:	108006c3 	ldbu	r2,27(r2)
   43b7c:	10803fcc 	andi	r2,r2,255
   43b80:	108000e8 	cmpgeui	r2,r2,3
   43b84:	10004e26 	beq	r2,zero,43cc0 <_ZN7XBOXONE4InitEhhb+0x610>
                goto FailUnknownDevice;

        rcode = pUsb->setEpInfoEntry(bAddress, bNumEP, epInfo);
   43b88:	e0bffc17 	ldw	r2,-16(fp)
   43b8c:	10c00317 	ldw	r3,12(r2)
   43b90:	e0bffc17 	ldw	r2,-16(fp)
   43b94:	10800403 	ldbu	r2,16(r2)
   43b98:	11003fcc 	andi	r4,r2,255
   43b9c:	e0bffc17 	ldw	r2,-16(fp)
   43ba0:	108006c3 	ldbu	r2,27(r2)
   43ba4:	11403fcc 	andi	r5,r2,255
   43ba8:	e0bffc17 	ldw	r2,-16(fp)
   43bac:	10800444 	addi	r2,r2,17
   43bb0:	100f883a 	mov	r7,r2
   43bb4:	280d883a 	mov	r6,r5
   43bb8:	200b883a 	mov	r5,r4
   43bbc:	1809883a 	mov	r4,r3
   43bc0:	00408f40 	call	408f4 <_ZN3USB14setEpInfoEntryEhhP6EpInfo>
   43bc4:	e0bfe105 	stb	r2,-124(fp)
        if(rcode)
   43bc8:	e0bfe103 	ldbu	r2,-124(fp)
   43bcc:	1000361e 	bne	r2,zero,43ca8 <_ZN7XBOXONE4InitEhhb+0x5f8>
                goto FailSetDevTblEntry;

        delay(200); // Give time for address change
   43bd0:	01003204 	movi	r4,200
   43bd4:	00406840 	call	40684 <_Z5delaym>

        rcode = pUsb->setConf(bAddress, epInfo[ XBOX_ONE_CONTROL_PIPE ].epAddr, bConfNum);
   43bd8:	e0bffc17 	ldw	r2,-16(fp)
   43bdc:	10c00317 	ldw	r3,12(r2)
   43be0:	e0bffc17 	ldw	r2,-16(fp)
   43be4:	10800403 	ldbu	r2,16(r2)
   43be8:	11003fcc 	andi	r4,r2,255
   43bec:	e0bffc17 	ldw	r2,-16(fp)
   43bf0:	10800443 	ldbu	r2,17(r2)
   43bf4:	11403fcc 	andi	r5,r2,255
   43bf8:	e0bffc17 	ldw	r2,-16(fp)
   43bfc:	10800683 	ldbu	r2,26(r2)
   43c00:	10803fcc 	andi	r2,r2,255
   43c04:	100f883a 	mov	r7,r2
   43c08:	280d883a 	mov	r6,r5
   43c0c:	200b883a 	mov	r5,r4
   43c10:	1809883a 	mov	r4,r3
   43c14:	0042b940 	call	42b94 <_ZN3USB7setConfEhhh>
   43c18:	e0bfe105 	stb	r2,-124(fp)
        if(rcode)
   43c1c:	e0bfe103 	ldbu	r2,-124(fp)
   43c20:	1000231e 	bne	r2,zero,43cb0 <_ZN7XBOXONE4InitEhhb+0x600>

#ifdef DEBUG_USB_HOST
        Notify(PSTR("\r\nXbox One Controller Connected\r\n"), 0x80);
#endif

        delay(200); // let things settle
   43c24:	01003204 	movi	r4,200
   43c28:	00406840 	call	40684 <_Z5delaym>

        // Initialize the controller for input
        cmdCounter = 0; // Reset the counter used when sending out the commands
   43c2c:	e0bffc17 	ldw	r2,-16(fp)
   43c30:	10001f85 	stb	zero,126(r2)
        uint8_t writeBuf[5];
        writeBuf[0] = 0x05;
   43c34:	00800144 	movi	r2,5
   43c38:	e0bfebc5 	stb	r2,-81(fp)
        writeBuf[1] = 0x20;
   43c3c:	00800804 	movi	r2,32
   43c40:	e0bfec05 	stb	r2,-80(fp)
        // Byte 2 is set in "XboxCommand"
        writeBuf[3] = 0x01;
   43c44:	00800044 	movi	r2,1
   43c48:	e0bfec85 	stb	r2,-78(fp)
        writeBuf[4] = 0x00;
   43c4c:	e03fecc5 	stb	zero,-77(fp)
        rcode = XboxCommand(writeBuf, 5);
   43c50:	e0bfebc4 	addi	r2,fp,-81
   43c54:	01800144 	movi	r6,5
   43c58:	100b883a 	mov	r5,r2
   43c5c:	e13ffc17 	ldw	r4,-16(fp)
   43c60:	00445780 	call	44578 <_ZN7XBOXONE11XboxCommandEPht>
   43c64:	e0bfe105 	stb	r2,-124(fp)
        if (rcode)
   43c68:	e0bfe103 	ldbu	r2,-124(fp)
   43c6c:	1000181e 	bne	r2,zero,43cd0 <_ZN7XBOXONE4InitEhhb+0x620>
                goto Fail;

        onInit();
   43c70:	e13ffc17 	ldw	r4,-16(fp)
   43c74:	00446180 	call	44618 <_ZN7XBOXONE6onInitEv>
        XboxOneConnected = true;
   43c78:	e0bffc17 	ldw	r2,-16(fp)
   43c7c:	00c00044 	movi	r3,1
   43c80:	10c00205 	stb	r3,8(r2)
        bPollEnable = true;
   43c84:	e0bffc17 	ldw	r2,-16(fp)
   43c88:	00c00044 	movi	r3,1
   43c8c:	10c00945 	stb	r3,37(r2)
        return 0; // Successful configuration
   43c90:	0005883a 	mov	r2,zero
   43c94:	00001606 	br	43cf0 <_ZN7XBOXONE4InitEhhb+0x640>
        rcode = pUsb->getDevDescr(0, 0, sizeof (USB_DEVICE_DESCRIPTOR), (uint8_t*)buf); // Get device descriptor - addr, ep, nbytes, data
        // Restore p->epinfo
        p->epinfo = oldep_ptr;

        if(rcode)
                goto FailGetDevDescr;
   43c98:	0001883a 	nop
   43c9c:	00000d06 	br	43cd4 <_ZN7XBOXONE4InitEhhb+0x624>
        p->lowspeed = lowspeed;

        // Assign epInfo to epinfo pointer - only EP0 is known
        rcode = pUsb->setEpInfoEntry(bAddress, 1, epInfo);
        if(rcode)
                goto FailSetDevTblEntry;
   43ca0:	0001883a 	nop
   43ca4:	00000b06 	br	43cd4 <_ZN7XBOXONE4InitEhhb+0x624>
        if(bNumEP < XBOX_ONE_MAX_ENDPOINTS)
                goto FailUnknownDevice;

        rcode = pUsb->setEpInfoEntry(bAddress, bNumEP, epInfo);
        if(rcode)
                goto FailSetDevTblEntry;
   43ca8:	0001883a 	nop
   43cac:	00000906 	br	43cd4 <_ZN7XBOXONE4InitEhhb+0x624>

        delay(200); // Give time for address change

        rcode = pUsb->setConf(bAddress, epInfo[ XBOX_ONE_CONTROL_PIPE ].epAddr, bConfNum);
        if(rcode)
                goto FailSetConfDescr;
   43cb0:	0001883a 	nop

FailSetConfDescr:
#ifdef DEBUG_USB_HOST
        NotifyFailSetConfDescr();
#endif
        goto Fail;
   43cb4:	00000706 	br	43cd4 <_ZN7XBOXONE4InitEhhb+0x624>

        VID = udd->idVendor;
        PID = udd->idProduct;

        if(!VIDPIDOK(VID, PID)) // Check VID
                goto FailUnknownDevice;
   43cb8:	0001883a 	nop
   43cbc:	00000106 	br	43cc4 <_ZN7XBOXONE4InitEhhb+0x614>
                if(bNumEP >= XBOX_ONE_MAX_ENDPOINTS) // All endpoints extracted
                        break;
        }

        if(bNumEP < XBOX_ONE_MAX_ENDPOINTS)
                goto FailUnknownDevice;
   43cc0:	0001883a 	nop

FailUnknownDevice:
#ifdef DEBUG_USB_HOST
        NotifyFailUnknownDevice(VID, PID);
#endif
        rcode = USB_DEV_CONFIG_ERROR_DEVICE_NOT_SUPPORTED;
   43cc4:	00bff444 	movi	r2,-47
   43cc8:	e0bfe105 	stb	r2,-124(fp)
   43ccc:	00000106 	br	43cd4 <_ZN7XBOXONE4InitEhhb+0x624>
        // Byte 2 is set in "XboxCommand"
        writeBuf[3] = 0x01;
        writeBuf[4] = 0x00;
        rcode = XboxCommand(writeBuf, 5);
        if (rcode)
                goto Fail;
   43cd0:	0001883a 	nop
Fail:
#ifdef DEBUG_USB_HOST
        Notify(PSTR("\r\nXbox One Init Failed, error code: "), 0x80);
        NotifyFail(rcode);
#endif
        Release();
   43cd4:	e0bffc17 	ldw	r2,-16(fp)
   43cd8:	10800017 	ldw	r2,0(r2)
   43cdc:	10800204 	addi	r2,r2,8
   43ce0:	10800017 	ldw	r2,0(r2)
   43ce4:	e13ffc17 	ldw	r4,-16(fp)
   43ce8:	103ee83a 	callr	r2
        return rcode;
   43cec:	e0bfe103 	ldbu	r2,-124(fp)
}
   43cf0:	e037883a 	mov	sp,fp
   43cf4:	dfc00117 	ldw	ra,4(sp)
   43cf8:	df000017 	ldw	fp,0(sp)
   43cfc:	dec00204 	addi	sp,sp,8
   43d00:	f800283a 	ret

00043d04 <_ZN7XBOXONE14EndpointXtractEhhhhPK23USB_ENDPOINT_DESCRIPTOR>:
void XBOXONE::EndpointXtract(uint8_t conf,
        uint8_t iface __attribute__((unused)),
        uint8_t alt __attribute__((unused)),
        uint8_t proto __attribute__((unused)),
        const USB_ENDPOINT_DESCRIPTOR *pep)
{
   43d04:	defff904 	addi	sp,sp,-28
   43d08:	df000615 	stw	fp,24(sp)
   43d0c:	df000604 	addi	fp,sp,24
   43d10:	e13ffb15 	stw	r4,-20(fp)
   43d14:	3009883a 	mov	r4,r6
   43d18:	3807883a 	mov	r3,r7
   43d1c:	e0800117 	ldw	r2,4(fp)
   43d20:	e17ffc05 	stb	r5,-16(fp)
   43d24:	e13ffd05 	stb	r4,-12(fp)
   43d28:	e0fffe05 	stb	r3,-8(fp)
   43d2c:	e0bfff05 	stb	r2,-4(fp)
        
    bConfNum = conf;
   43d30:	e0bffb17 	ldw	r2,-20(fp)
   43d34:	e0fffc03 	ldbu	r3,-16(fp)
   43d38:	10c00685 	stb	r3,26(r2)
        uint8_t index;

        if((pep->bmAttributes & bmUSB_TRANSFER_TYPE) == USB_TRANSFER_TYPE_INTERRUPT) { // Interrupt endpoint
   43d3c:	e0800217 	ldw	r2,8(fp)
   43d40:	108000c3 	ldbu	r2,3(r2)
   43d44:	10803fcc 	andi	r2,r2,255
   43d48:	108000cc 	andi	r2,r2,3
   43d4c:	108000d8 	cmpnei	r2,r2,3
   43d50:	1000361e 	bne	r2,zero,43e2c <_ZN7XBOXONE14EndpointXtractEhhhhPK23USB_ENDPOINT_DESCRIPTOR+0x128>
                index = (pep->bEndpointAddress & 0x80) == 0x80 ? XBOX_ONE_INPUT_PIPE : XBOX_ONE_OUTPUT_PIPE; // Set the endpoint index
   43d54:	e0800217 	ldw	r2,8(fp)
   43d58:	10800083 	ldbu	r2,2(r2)
   43d5c:	10803fcc 	andi	r2,r2,255
   43d60:	1080201c 	xori	r2,r2,128
   43d64:	10bfe004 	addi	r2,r2,-128
   43d68:	1000020e 	bge	r2,zero,43d74 <_ZN7XBOXONE14EndpointXtractEhhhhPK23USB_ENDPOINT_DESCRIPTOR+0x70>
   43d6c:	00800084 	movi	r2,2
   43d70:	00000106 	br	43d78 <_ZN7XBOXONE14EndpointXtractEhhhhPK23USB_ENDPOINT_DESCRIPTOR+0x74>
   43d74:	00800044 	movi	r2,1
   43d78:	e0bffa05 	stb	r2,-24(fp)
        } else
                return;

        // Fill the rest of endpoint data structure
        epInfo[index].epAddr = (pep->bEndpointAddress & 0x0F);
   43d7c:	e0fffa03 	ldbu	r3,-24(fp)
   43d80:	e0800217 	ldw	r2,8(fp)
   43d84:	10800083 	ldbu	r2,2(r2)
   43d88:	108003cc 	andi	r2,r2,15
   43d8c:	100b883a 	mov	r5,r2
   43d90:	e13ffb17 	ldw	r4,-20(fp)
   43d94:	1805883a 	mov	r2,r3
   43d98:	1085883a 	add	r2,r2,r2
   43d9c:	10c5883a 	add	r2,r2,r3
   43da0:	2085883a 	add	r2,r4,r2
   43da4:	10800444 	addi	r2,r2,17
   43da8:	11400005 	stb	r5,0(r2)
        epInfo[index].maxPktSize = (uint8_t)pep->wMaxPacketSize;
   43dac:	e0fffa03 	ldbu	r3,-24(fp)
   43db0:	e0800217 	ldw	r2,8(fp)
   43db4:	11000103 	ldbu	r4,4(r2)
   43db8:	10800143 	ldbu	r2,5(r2)
   43dbc:	1004923a 	slli	r2,r2,8
   43dc0:	1104b03a 	or	r2,r2,r4
   43dc4:	100b883a 	mov	r5,r2
   43dc8:	e13ffb17 	ldw	r4,-20(fp)
   43dcc:	1805883a 	mov	r2,r3
   43dd0:	1085883a 	add	r2,r2,r2
   43dd4:	10c5883a 	add	r2,r2,r3
   43dd8:	2085883a 	add	r2,r4,r2
   43ddc:	10800484 	addi	r2,r2,18
   43de0:	11400005 	stb	r5,0(r2)
#ifdef EXTRADEBUG
        PrintEndpointDescriptor(pep);
#endif
        if(pollInterval < pep->bInterval) // Set the polling interval as the largest polling interval obtained from endpoints
   43de4:	e0bffb17 	ldw	r2,-20(fp)
   43de8:	10c00903 	ldbu	r3,36(r2)
   43dec:	e0800217 	ldw	r2,8(fp)
   43df0:	10800183 	ldbu	r2,6(r2)
   43df4:	18c03fcc 	andi	r3,r3,255
   43df8:	10803fcc 	andi	r2,r2,255
   43dfc:	1880042e 	bgeu	r3,r2,43e10 <_ZN7XBOXONE14EndpointXtractEhhhhPK23USB_ENDPOINT_DESCRIPTOR+0x10c>
                pollInterval = pep->bInterval;
   43e00:	e0800217 	ldw	r2,8(fp)
   43e04:	10c00183 	ldbu	r3,6(r2)
   43e08:	e0bffb17 	ldw	r2,-20(fp)
   43e0c:	10c00905 	stb	r3,36(r2)
        bNumEP++;
   43e10:	e0bffb17 	ldw	r2,-20(fp)
   43e14:	108006c3 	ldbu	r2,27(r2)
   43e18:	10800044 	addi	r2,r2,1
   43e1c:	1007883a 	mov	r3,r2
   43e20:	e0bffb17 	ldw	r2,-20(fp)
   43e24:	10c006c5 	stb	r3,27(r2)
   43e28:	00000106 	br	43e30 <_ZN7XBOXONE14EndpointXtractEhhhhPK23USB_ENDPOINT_DESCRIPTOR+0x12c>
        uint8_t index;

        if((pep->bmAttributes & bmUSB_TRANSFER_TYPE) == USB_TRANSFER_TYPE_INTERRUPT) { // Interrupt endpoint
                index = (pep->bEndpointAddress & 0x80) == 0x80 ? XBOX_ONE_INPUT_PIPE : XBOX_ONE_OUTPUT_PIPE; // Set the endpoint index
        } else
                return;
   43e2c:	0001883a 	nop
        PrintEndpointDescriptor(pep);
#endif
        if(pollInterval < pep->bInterval) // Set the polling interval as the largest polling interval obtained from endpoints
                pollInterval = pep->bInterval;
        bNumEP++;
}
   43e30:	e037883a 	mov	sp,fp
   43e34:	df000017 	ldw	fp,0(sp)
   43e38:	dec00104 	addi	sp,sp,4
   43e3c:	f800283a 	ret

00043e40 <_ZThn4_N7XBOXONE14EndpointXtractEhhhhPK23USB_ENDPOINT_DESCRIPTOR>:
         * @param iface Interface number.
         * @param alt   Alternate setting.
         * @param proto Interface Protocol.
         * @param ep    Endpoint Descriptor.
         */
        void EndpointXtract(uint8_t conf, uint8_t iface, uint8_t alt, uint8_t proto, const USB_ENDPOINT_DESCRIPTOR *ep);
   43e40:	213fff04 	addi	r4,r4,-4
   43e44:	0043d041 	jmpi	43d04 <_ZN7XBOXONE14EndpointXtractEhhhhPK23USB_ENDPOINT_DESCRIPTOR>

00043e48 <_ZN7XBOXONE23PrintEndpointDescriptorEPK23USB_ENDPOINT_DESCRIPTOR>:

void XBOXONE::PrintEndpointDescriptor(const USB_ENDPOINT_DESCRIPTOR* ep_ptr
    __attribute__((unused)))
{
   43e48:	defffd04 	addi	sp,sp,-12
   43e4c:	df000215 	stw	fp,8(sp)
   43e50:	df000204 	addi	fp,sp,8
   43e54:	e13ffe15 	stw	r4,-8(fp)
   43e58:	e17fff15 	stw	r5,-4(fp)
        Notify(PSTR("\r\nMaxPktSize:\t"), 0x80);
        D_PrintHex<uint16_t > (ep_ptr->wMaxPacketSize, 0x80);
        Notify(PSTR("\r\nPoll Intrv:\t"), 0x80);
        D_PrintHex<uint8_t > (ep_ptr->bInterval, 0x80);
#endif
}
   43e5c:	0001883a 	nop
   43e60:	e037883a 	mov	sp,fp
   43e64:	df000017 	ldw	fp,0(sp)
   43e68:	dec00104 	addi	sp,sp,4
   43e6c:	f800283a 	ret

00043e70 <_ZN7XBOXONE7ReleaseEv>:

/* Performs a cleanup after failed Init() attempt */
uint8_t XBOXONE::Release() {
   43e70:	defffd04 	addi	sp,sp,-12
   43e74:	dfc00215 	stw	ra,8(sp)
   43e78:	df000115 	stw	fp,4(sp)
   43e7c:	df000104 	addi	fp,sp,4
   43e80:	e13fff15 	stw	r4,-4(fp)
        XboxOneConnected = false;
   43e84:	e0bfff17 	ldw	r2,-4(fp)
   43e88:	10000205 	stb	zero,8(r2)
        pUsb->GetAddressPool().FreeAddress(bAddress);
   43e8c:	e0bfff17 	ldw	r2,-4(fp)
   43e90:	10800317 	ldw	r2,12(r2)
   43e94:	1009883a 	mov	r4,r2
   43e98:	0042c180 	call	42c18 <_ZN3USB14GetAddressPoolEv>
   43e9c:	1009883a 	mov	r4,r2
   43ea0:	20800017 	ldw	r2,0(r4)
   43ea4:	10800204 	addi	r2,r2,8
   43ea8:	10800017 	ldw	r2,0(r2)
   43eac:	e0ffff17 	ldw	r3,-4(fp)
   43eb0:	18c00403 	ldbu	r3,16(r3)
   43eb4:	18c03fcc 	andi	r3,r3,255
   43eb8:	180b883a 	mov	r5,r3
   43ebc:	103ee83a 	callr	r2
        bAddress = 0; // Clear device address
   43ec0:	e0bfff17 	ldw	r2,-4(fp)
   43ec4:	10000405 	stb	zero,16(r2)
        bNumEP = 1; // Must have to be reset to 1
   43ec8:	e0bfff17 	ldw	r2,-4(fp)
   43ecc:	00c00044 	movi	r3,1
   43ed0:	10c006c5 	stb	r3,27(r2)
        qNextPollTime = 0; // Reset next poll time
   43ed4:	e0bfff17 	ldw	r2,-4(fp)
   43ed8:	10000715 	stw	zero,28(r2)
        pollInterval = 0;
   43edc:	e0bfff17 	ldw	r2,-4(fp)
   43ee0:	10000905 	stb	zero,36(r2)
        bPollEnable = false;
   43ee4:	e0bfff17 	ldw	r2,-4(fp)
   43ee8:	10000945 	stb	zero,37(r2)
#ifdef DEBUG_USB_HOST
        Notify(PSTR("\r\nXbox One Controller Disconnected\r\n"), 0x80);
#endif
        return 0;
   43eec:	0005883a 	mov	r2,zero
}
   43ef0:	e037883a 	mov	sp,fp
   43ef4:	dfc00117 	ldw	ra,4(sp)
   43ef8:	df000017 	ldw	fp,0(sp)
   43efc:	dec00204 	addi	sp,sp,8
   43f00:	f800283a 	ret

00043f04 <_ZN7XBOXONE4PollEv>:

uint8_t XBOXONE::Poll() {
   43f04:	defffa04 	addi	sp,sp,-24
   43f08:	dfc00515 	stw	ra,20(sp)
   43f0c:	df000415 	stw	fp,16(sp)
   43f10:	df000404 	addi	fp,sp,16
   43f14:	e13fff15 	stw	r4,-4(fp)
        uint8_t rcode = 0;
   43f18:	e03ffe05 	stb	zero,-8(fp)

        if(!bPollEnable)
   43f1c:	e0bfff17 	ldw	r2,-4(fp)
   43f20:	10800943 	ldbu	r2,37(r2)
   43f24:	1080005c 	xori	r2,r2,1
   43f28:	10803fcc 	andi	r2,r2,255
   43f2c:	10000226 	beq	r2,zero,43f38 <_ZN7XBOXONE4PollEv+0x34>
                return 0;
   43f30:	0005883a 	mov	r2,zero
   43f34:	00002c06 	br	43fe8 <_ZN7XBOXONE4PollEv+0xe4>

        if((int32_t)((uint32_t)millis() - qNextPollTime) >= 0L) { // Do not poll if shorter than polling interval
   43f38:	00406dc0 	call	406dc <_Z6millisv>
   43f3c:	1007883a 	mov	r3,r2
   43f40:	e0bfff17 	ldw	r2,-4(fp)
   43f44:	10800717 	ldw	r2,28(r2)
   43f48:	1885c83a 	sub	r2,r3,r2
   43f4c:	0084303a 	nor	r2,zero,r2
   43f50:	1004d7fa 	srli	r2,r2,31
   43f54:	10803fcc 	andi	r2,r2,255
   43f58:	10002226 	beq	r2,zero,43fe4 <_ZN7XBOXONE4PollEv+0xe0>
                qNextPollTime = (uint32_t)millis() + pollInterval; // Set new poll time
   43f5c:	00406dc0 	call	406dc <_Z6millisv>
   43f60:	1007883a 	mov	r3,r2
   43f64:	e0bfff17 	ldw	r2,-4(fp)
   43f68:	10800903 	ldbu	r2,36(r2)
   43f6c:	10803fcc 	andi	r2,r2,255
   43f70:	1887883a 	add	r3,r3,r2
   43f74:	e0bfff17 	ldw	r2,-4(fp)
   43f78:	10c00715 	stw	r3,28(r2)
                uint16_t length =  (uint16_t)epInfo[ XBOX_ONE_INPUT_PIPE ].maxPktSize; // Read the maximum packet size from the endpoint
   43f7c:	e0bfff17 	ldw	r2,-4(fp)
   43f80:	10800603 	ldbu	r2,24(r2)
   43f84:	10803fcc 	andi	r2,r2,255
   43f88:	e0bffe8d 	sth	r2,-6(fp)
                uint8_t rcode = pUsb->inTransfer(bAddress, epInfo[ XBOX_ONE_INPUT_PIPE ].epAddr, &length, readBuf, pollInterval);
   43f8c:	e0bfff17 	ldw	r2,-4(fp)
   43f90:	11000317 	ldw	r4,12(r2)
   43f94:	e0bfff17 	ldw	r2,-4(fp)
   43f98:	10800403 	ldbu	r2,16(r2)
   43f9c:	11403fcc 	andi	r5,r2,255
   43fa0:	e0bfff17 	ldw	r2,-4(fp)
   43fa4:	108005c3 	ldbu	r2,23(r2)
   43fa8:	11803fcc 	andi	r6,r2,255
   43fac:	e0bfff17 	ldw	r2,-4(fp)
   43fb0:	10800f84 	addi	r2,r2,62
   43fb4:	e0ffff17 	ldw	r3,-4(fp)
   43fb8:	18c00903 	ldbu	r3,36(r3)
   43fbc:	18c03fcc 	andi	r3,r3,255
   43fc0:	e1fffe84 	addi	r7,fp,-6
   43fc4:	d8c00115 	stw	r3,4(sp)
   43fc8:	d8800015 	stw	r2,0(sp)
   43fcc:	0040eac0 	call	40eac <_ZN3USB10inTransferEhhPtPhh>
   43fd0:	e0bffe45 	stb	r2,-7(fp)
                if(!rcode) {
   43fd4:	e0bffe43 	ldbu	r2,-7(fp)
   43fd8:	1000021e 	bne	r2,zero,43fe4 <_ZN7XBOXONE4PollEv+0xe0>
                        readReport();
   43fdc:	e13fff17 	ldw	r4,-4(fp)
   43fe0:	0043ffc0 	call	43ffc <_ZN7XBOXONE10readReportEv>
                        Notify(PSTR("\r\nXbox One Poll Failed, error code: "), 0x80);
                        NotifyFail(rcode);
                }
#endif
    }
    return rcode;
   43fe4:	e0bffe03 	ldbu	r2,-8(fp)
}
   43fe8:	e037883a 	mov	sp,fp
   43fec:	dfc00117 	ldw	ra,4(sp)
   43ff0:	df000017 	ldw	fp,0(sp)
   43ff4:	dec00204 	addi	sp,sp,8
   43ff8:	f800283a 	ret

00043ffc <_ZN7XBOXONE10readReportEv>:

void XBOXONE::readReport() {
   43ffc:	defffd04 	addi	sp,sp,-12
   44000:	df000215 	stw	fp,8(sp)
   44004:	df000204 	addi	fp,sp,8
   44008:	e13fff15 	stw	r4,-4(fp)
        if(readBuf[0] == 0x07) {
   4400c:	e0bfff17 	ldw	r2,-4(fp)
   44010:	10800f83 	ldbu	r2,62(r2)
   44014:	10803fcc 	andi	r2,r2,255
   44018:	108001d8 	cmpnei	r2,r2,7
   4401c:	10002f1e 	bne	r2,zero,440dc <_ZN7XBOXONE10readReportEv+0xe0>
                // The XBOX button has a separate message
                if(readBuf[4] == 1)
   44020:	e0bfff17 	ldw	r2,-4(fp)
   44024:	10801083 	ldbu	r2,66(r2)
   44028:	10803fcc 	andi	r2,r2,255
   4402c:	10800058 	cmpnei	r2,r2,1
   44030:	10000a1e 	bne	r2,zero,4405c <_ZN7XBOXONE10readReportEv+0x60>
                        ButtonState |= pgm_read_word(&XBOX_BUTTONS[XBOX]);
   44034:	e0bfff17 	ldw	r2,-4(fp)
   44038:	10c0098b 	ldhu	r3,38(r2)
   4403c:	008001b4 	movhi	r2,6
   44040:	10938e84 	addi	r2,r2,20026
   44044:	1080000b 	ldhu	r2,0(r2)
   44048:	1884b03a 	or	r2,r3,r2
   4404c:	1007883a 	mov	r3,r2
   44050:	e0bfff17 	ldw	r2,-4(fp)
   44054:	10c0098d 	sth	r3,38(r2)
   44058:	00000b06 	br	44088 <_ZN7XBOXONE10readReportEv+0x8c>
                else
                        ButtonState &= ~pgm_read_word(&XBOX_BUTTONS[XBOX]);
   4405c:	e0bfff17 	ldw	r2,-4(fp)
   44060:	1080098b 	ldhu	r2,38(r2)
   44064:	1007883a 	mov	r3,r2
   44068:	008001b4 	movhi	r2,6
   4406c:	10938e84 	addi	r2,r2,20026
   44070:	1080000b 	ldhu	r2,0(r2)
   44074:	0084303a 	nor	r2,zero,r2
   44078:	1884703a 	and	r2,r3,r2
   4407c:	1007883a 	mov	r3,r2
   44080:	e0bfff17 	ldw	r2,-4(fp)
   44084:	10c0098d 	sth	r3,38(r2)

                if(ButtonState != OldButtonState) {
   44088:	e0bfff17 	ldw	r2,-4(fp)
   4408c:	10c0098b 	ldhu	r3,38(r2)
   44090:	e0bfff17 	ldw	r2,-4(fp)
   44094:	10800a0b 	ldhu	r2,40(r2)
   44098:	18ffffcc 	andi	r3,r3,65535
   4409c:	10bfffcc 	andi	r2,r2,65535
   440a0:	18800e26 	beq	r3,r2,440dc <_ZN7XBOXONE10readReportEv+0xe0>
                    ButtonClickState = ButtonState & ~OldButtonState; // Update click state variable
   440a4:	e0bfff17 	ldw	r2,-4(fp)
   440a8:	1080098b 	ldhu	r2,38(r2)
   440ac:	1007883a 	mov	r3,r2
   440b0:	e0bfff17 	ldw	r2,-4(fp)
   440b4:	10800a0b 	ldhu	r2,40(r2)
   440b8:	0084303a 	nor	r2,zero,r2
   440bc:	1884703a 	and	r2,r3,r2
   440c0:	1007883a 	mov	r3,r2
   440c4:	e0bfff17 	ldw	r2,-4(fp)
   440c8:	10c00a8d 	sth	r3,42(r2)
                    OldButtonState = ButtonState;
   440cc:	e0bfff17 	ldw	r2,-4(fp)
   440d0:	10c0098b 	ldhu	r3,38(r2)
   440d4:	e0bfff17 	ldw	r2,-4(fp)
   440d8:	10c00a0d 	sth	r3,40(r2)
                }
        }
        if(readBuf[0] != 0x20) { // Check if it's the correct report, otherwise return - the controller also sends different status reports
   440dc:	e0bfff17 	ldw	r2,-4(fp)
   440e0:	10800f83 	ldbu	r2,62(r2)
   440e4:	10803fcc 	andi	r2,r2,255
   440e8:	10800820 	cmpeqi	r2,r2,32
   440ec:	1000b026 	beq	r2,zero,443b0 <_ZN7XBOXONE10readReportEv+0x3b4>
                D_PrintHex<uint8_t > (readBuf[0], 0x80); // 0x03 is a heart beat report!
#endif
                return;
        }

        uint16_t xbox = ButtonState & pgm_read_word(&XBOX_BUTTONS[XBOX]); // Since the XBOX button is separate, save it and add it back in
   440f0:	e0bfff17 	ldw	r2,-4(fp)
   440f4:	10c0098b 	ldhu	r3,38(r2)
   440f8:	008001b4 	movhi	r2,6
   440fc:	10938e84 	addi	r2,r2,20026
   44100:	1080000b 	ldhu	r2,0(r2)
   44104:	1884703a 	and	r2,r3,r2
   44108:	e0bffe0d 	sth	r2,-8(fp)
        // xbox button from before, dpad, abxy, start/back, sync, stick click, shoulder buttons
        ButtonState = xbox | (((uint16_t)readBuf[5] & 0xF) << 8) | (readBuf[4] & 0xF0)  | (((uint16_t)readBuf[4] & 0x0C) << 10) | ((readBuf[4] & 0x01) << 3) | (((uint16_t)readBuf[5] & 0xC0) << 8) | ((readBuf[5] & 0x30) >> 4);
   4410c:	e0bfff17 	ldw	r2,-4(fp)
   44110:	108010c3 	ldbu	r2,67(r2)
   44114:	10803fcc 	andi	r2,r2,255
   44118:	108003cc 	andi	r2,r2,15
   4411c:	1004923a 	slli	r2,r2,8
   44120:	1007883a 	mov	r3,r2
   44124:	e0bffe0b 	ldhu	r2,-8(fp)
   44128:	1884b03a 	or	r2,r3,r2
   4412c:	1007883a 	mov	r3,r2
   44130:	e0bfff17 	ldw	r2,-4(fp)
   44134:	10801083 	ldbu	r2,66(r2)
   44138:	10803fcc 	andi	r2,r2,255
   4413c:	10803c0c 	andi	r2,r2,240
   44140:	1884b03a 	or	r2,r3,r2
   44144:	1007883a 	mov	r3,r2
   44148:	e0bfff17 	ldw	r2,-4(fp)
   4414c:	10801083 	ldbu	r2,66(r2)
   44150:	10803fcc 	andi	r2,r2,255
   44154:	1080030c 	andi	r2,r2,12
   44158:	100492ba 	slli	r2,r2,10
   4415c:	1884b03a 	or	r2,r3,r2
   44160:	1007883a 	mov	r3,r2
   44164:	e0bfff17 	ldw	r2,-4(fp)
   44168:	10801083 	ldbu	r2,66(r2)
   4416c:	10803fcc 	andi	r2,r2,255
   44170:	1080004c 	andi	r2,r2,1
   44174:	100490fa 	slli	r2,r2,3
   44178:	1884b03a 	or	r2,r3,r2
   4417c:	1007883a 	mov	r3,r2
   44180:	e0bfff17 	ldw	r2,-4(fp)
   44184:	108010c3 	ldbu	r2,67(r2)
   44188:	10803fcc 	andi	r2,r2,255
   4418c:	1080300c 	andi	r2,r2,192
   44190:	1004923a 	slli	r2,r2,8
   44194:	1884b03a 	or	r2,r3,r2
   44198:	1007883a 	mov	r3,r2
   4419c:	e0bfff17 	ldw	r2,-4(fp)
   441a0:	108010c3 	ldbu	r2,67(r2)
   441a4:	10803fcc 	andi	r2,r2,255
   441a8:	10800c0c 	andi	r2,r2,48
   441ac:	1005d13a 	srai	r2,r2,4
   441b0:	1884b03a 	or	r2,r3,r2
   441b4:	1007883a 	mov	r3,r2
   441b8:	e0bfff17 	ldw	r2,-4(fp)
   441bc:	10c0098d 	sth	r3,38(r2)

        triggerValue[0] = (uint16_t)(((uint16_t)readBuf[7] << 8) | readBuf[6]);
   441c0:	e0bfff17 	ldw	r2,-4(fp)
   441c4:	10801143 	ldbu	r2,69(r2)
   441c8:	10803fcc 	andi	r2,r2,255
   441cc:	1004923a 	slli	r2,r2,8
   441d0:	1007883a 	mov	r3,r2
   441d4:	e0bfff17 	ldw	r2,-4(fp)
   441d8:	10801103 	ldbu	r2,68(r2)
   441dc:	10803fcc 	andi	r2,r2,255
   441e0:	1884b03a 	or	r2,r3,r2
   441e4:	1007883a 	mov	r3,r2
   441e8:	e0bfff17 	ldw	r2,-4(fp)
   441ec:	10c00d0d 	sth	r3,52(r2)
        triggerValue[1] = (uint16_t)(((uint16_t)readBuf[9] << 8) | readBuf[8]);
   441f0:	e0bfff17 	ldw	r2,-4(fp)
   441f4:	108011c3 	ldbu	r2,71(r2)
   441f8:	10803fcc 	andi	r2,r2,255
   441fc:	1004923a 	slli	r2,r2,8
   44200:	1007883a 	mov	r3,r2
   44204:	e0bfff17 	ldw	r2,-4(fp)
   44208:	10801183 	ldbu	r2,70(r2)
   4420c:	10803fcc 	andi	r2,r2,255
   44210:	1884b03a 	or	r2,r3,r2
   44214:	1007883a 	mov	r3,r2
   44218:	e0bfff17 	ldw	r2,-4(fp)
   4421c:	10c00d8d 	sth	r3,54(r2)

        hatValue[LeftHatX] = (int16_t)(((uint16_t)readBuf[11] << 8) | readBuf[10]);
   44220:	e0bfff17 	ldw	r2,-4(fp)
   44224:	10801243 	ldbu	r2,73(r2)
   44228:	10803fcc 	andi	r2,r2,255
   4422c:	1004923a 	slli	r2,r2,8
   44230:	1007883a 	mov	r3,r2
   44234:	e0bfff17 	ldw	r2,-4(fp)
   44238:	10801203 	ldbu	r2,72(r2)
   4423c:	10803fcc 	andi	r2,r2,255
   44240:	1884b03a 	or	r2,r3,r2
   44244:	1007883a 	mov	r3,r2
   44248:	e0bfff17 	ldw	r2,-4(fp)
   4424c:	10c00b0d 	sth	r3,44(r2)
        hatValue[LeftHatY] = (int16_t)(((uint16_t)readBuf[13] << 8) | readBuf[12]);
   44250:	e0bfff17 	ldw	r2,-4(fp)
   44254:	108012c3 	ldbu	r2,75(r2)
   44258:	10803fcc 	andi	r2,r2,255
   4425c:	1004923a 	slli	r2,r2,8
   44260:	1007883a 	mov	r3,r2
   44264:	e0bfff17 	ldw	r2,-4(fp)
   44268:	10801283 	ldbu	r2,74(r2)
   4426c:	10803fcc 	andi	r2,r2,255
   44270:	1884b03a 	or	r2,r3,r2
   44274:	1007883a 	mov	r3,r2
   44278:	e0bfff17 	ldw	r2,-4(fp)
   4427c:	10c00b8d 	sth	r3,46(r2)
        hatValue[RightHatX] = (int16_t)(((uint16_t)readBuf[15] << 8) | readBuf[14]);
   44280:	e0bfff17 	ldw	r2,-4(fp)
   44284:	10801343 	ldbu	r2,77(r2)
   44288:	10803fcc 	andi	r2,r2,255
   4428c:	1004923a 	slli	r2,r2,8
   44290:	1007883a 	mov	r3,r2
   44294:	e0bfff17 	ldw	r2,-4(fp)
   44298:	10801303 	ldbu	r2,76(r2)
   4429c:	10803fcc 	andi	r2,r2,255
   442a0:	1884b03a 	or	r2,r3,r2
   442a4:	1007883a 	mov	r3,r2
   442a8:	e0bfff17 	ldw	r2,-4(fp)
   442ac:	10c00c0d 	sth	r3,48(r2)
        hatValue[RightHatY] = (int16_t)(((uint16_t)readBuf[17] << 8) | readBuf[16]);
   442b0:	e0bfff17 	ldw	r2,-4(fp)
   442b4:	108013c3 	ldbu	r2,79(r2)
   442b8:	10803fcc 	andi	r2,r2,255
   442bc:	1004923a 	slli	r2,r2,8
   442c0:	1007883a 	mov	r3,r2
   442c4:	e0bfff17 	ldw	r2,-4(fp)
   442c8:	10801383 	ldbu	r2,78(r2)
   442cc:	10803fcc 	andi	r2,r2,255
   442d0:	1884b03a 	or	r2,r3,r2
   442d4:	1007883a 	mov	r3,r2
   442d8:	e0bfff17 	ldw	r2,-4(fp)
   442dc:	10c00c8d 	sth	r3,50(r2)

        //Notify(PSTR("\r\nButtonState"), 0x80);
        //PrintHex<uint16_t>(ButtonState, 0x80);

        if(ButtonState != OldButtonState) {
   442e0:	e0bfff17 	ldw	r2,-4(fp)
   442e4:	10c0098b 	ldhu	r3,38(r2)
   442e8:	e0bfff17 	ldw	r2,-4(fp)
   442ec:	10800a0b 	ldhu	r2,40(r2)
   442f0:	18ffffcc 	andi	r3,r3,65535
   442f4:	10bfffcc 	andi	r2,r2,65535
   442f8:	18800e26 	beq	r3,r2,44334 <_ZN7XBOXONE10readReportEv+0x338>
                ButtonClickState = ButtonState & ~OldButtonState; // Update click state variable
   442fc:	e0bfff17 	ldw	r2,-4(fp)
   44300:	1080098b 	ldhu	r2,38(r2)
   44304:	1007883a 	mov	r3,r2
   44308:	e0bfff17 	ldw	r2,-4(fp)
   4430c:	10800a0b 	ldhu	r2,40(r2)
   44310:	0084303a 	nor	r2,zero,r2
   44314:	1884703a 	and	r2,r3,r2
   44318:	1007883a 	mov	r3,r2
   4431c:	e0bfff17 	ldw	r2,-4(fp)
   44320:	10c00a8d 	sth	r3,42(r2)
                OldButtonState = ButtonState;
   44324:	e0bfff17 	ldw	r2,-4(fp)
   44328:	10c0098b 	ldhu	r3,38(r2)
   4432c:	e0bfff17 	ldw	r2,-4(fp)
   44330:	10c00a0d 	sth	r3,40(r2)
        }

        // Handle click detection for triggers
        if(triggerValue[0] != 0 && triggerValueOld[0] == 0)
   44334:	e0bfff17 	ldw	r2,-4(fp)
   44338:	10800d0b 	ldhu	r2,52(r2)
   4433c:	10bfffcc 	andi	r2,r2,65535
   44340:	10000726 	beq	r2,zero,44360 <_ZN7XBOXONE10readReportEv+0x364>
   44344:	e0bfff17 	ldw	r2,-4(fp)
   44348:	10800e0b 	ldhu	r2,56(r2)
   4434c:	10bfffcc 	andi	r2,r2,65535
   44350:	1000031e 	bne	r2,zero,44360 <_ZN7XBOXONE10readReportEv+0x364>
                L2Clicked = true;
   44354:	e0bfff17 	ldw	r2,-4(fp)
   44358:	00c00044 	movi	r3,1
   4435c:	10c00f05 	stb	r3,60(r2)
        triggerValueOld[0] = triggerValue[0];
   44360:	e0bfff17 	ldw	r2,-4(fp)
   44364:	10c00d0b 	ldhu	r3,52(r2)
   44368:	e0bfff17 	ldw	r2,-4(fp)
   4436c:	10c00e0d 	sth	r3,56(r2)
        if(triggerValue[1] != 0 && triggerValueOld[1] == 0)
   44370:	e0bfff17 	ldw	r2,-4(fp)
   44374:	10800d8b 	ldhu	r2,54(r2)
   44378:	10bfffcc 	andi	r2,r2,65535
   4437c:	10000726 	beq	r2,zero,4439c <_ZN7XBOXONE10readReportEv+0x3a0>
   44380:	e0bfff17 	ldw	r2,-4(fp)
   44384:	10800e8b 	ldhu	r2,58(r2)
   44388:	10bfffcc 	andi	r2,r2,65535
   4438c:	1000031e 	bne	r2,zero,4439c <_ZN7XBOXONE10readReportEv+0x3a0>
                R2Clicked = true;
   44390:	e0bfff17 	ldw	r2,-4(fp)
   44394:	00c00044 	movi	r3,1
   44398:	10c00f45 	stb	r3,61(r2)
        triggerValueOld[1] = triggerValue[1];
   4439c:	e0bfff17 	ldw	r2,-4(fp)
   443a0:	10c00d8b 	ldhu	r3,54(r2)
   443a4:	e0bfff17 	ldw	r2,-4(fp)
   443a8:	10c00e8d 	sth	r3,58(r2)
   443ac:	00000106 	br	443b4 <_ZN7XBOXONE10readReportEv+0x3b8>
        if(readBuf[0] != 0x20) { // Check if it's the correct report, otherwise return - the controller also sends different status reports
#ifdef EXTRADEBUG
                Notify(PSTR("\r\nXbox Poll: "), 0x80);
                D_PrintHex<uint8_t > (readBuf[0], 0x80); // 0x03 is a heart beat report!
#endif
                return;
   443b0:	0001883a 	nop
                L2Clicked = true;
        triggerValueOld[0] = triggerValue[0];
        if(triggerValue[1] != 0 && triggerValueOld[1] == 0)
                R2Clicked = true;
        triggerValueOld[1] = triggerValue[1];
}
   443b4:	e037883a 	mov	sp,fp
   443b8:	df000017 	ldw	fp,0(sp)
   443bc:	dec00104 	addi	sp,sp,4
   443c0:	f800283a 	ret

000443c4 <_ZN7XBOXONE14getButtonPressE10ButtonEnum>:

uint16_t XBOXONE::getButtonPress(ButtonEnum b) {
   443c4:	defffd04 	addi	sp,sp,-12
   443c8:	df000215 	stw	fp,8(sp)
   443cc:	df000204 	addi	fp,sp,8
   443d0:	e13ffe15 	stw	r4,-8(fp)
   443d4:	e17fff15 	stw	r5,-4(fp)
        if(b == L2) // These are analog buttons
   443d8:	e0bfff17 	ldw	r2,-4(fp)
   443dc:	10800218 	cmpnei	r2,r2,8
   443e0:	1000031e 	bne	r2,zero,443f0 <_ZN7XBOXONE14getButtonPressE10ButtonEnum+0x2c>
                return triggerValue[0];
   443e4:	e0bffe17 	ldw	r2,-8(fp)
   443e8:	10800d0b 	ldhu	r2,52(r2)
   443ec:	00001306 	br	4443c <_ZN7XBOXONE14getButtonPressE10ButtonEnum+0x78>
        else if(b == R2)
   443f0:	e0bfff17 	ldw	r2,-4(fp)
   443f4:	10800258 	cmpnei	r2,r2,9
   443f8:	1000031e 	bne	r2,zero,44408 <_ZN7XBOXONE14getButtonPressE10ButtonEnum+0x44>
                return triggerValue[1];
   443fc:	e0bffe17 	ldw	r2,-8(fp)
   44400:	10800d8b 	ldhu	r2,54(r2)
   44404:	00000d06 	br	4443c <_ZN7XBOXONE14getButtonPressE10ButtonEnum+0x78>
        return (bool)(ButtonState & ((uint16_t)pgm_read_word(&XBOX_BUTTONS[(uint8_t)b])));
   44408:	e0bffe17 	ldw	r2,-8(fp)
   4440c:	10c0098b 	ldhu	r3,38(r2)
   44410:	e0bfff17 	ldw	r2,-4(fp)
   44414:	10803fcc 	andi	r2,r2,255
   44418:	1089883a 	add	r4,r2,r2
   4441c:	008001b4 	movhi	r2,6
   44420:	10938684 	addi	r2,r2,19994
   44424:	2085883a 	add	r2,r4,r2
   44428:	1080000b 	ldhu	r2,0(r2)
   4442c:	1884703a 	and	r2,r3,r2
   44430:	10bfffcc 	andi	r2,r2,65535
   44434:	1004c03a 	cmpne	r2,r2,zero
   44438:	10803fcc 	andi	r2,r2,255
}
   4443c:	e037883a 	mov	sp,fp
   44440:	df000017 	ldw	fp,0(sp)
   44444:	dec00104 	addi	sp,sp,4
   44448:	f800283a 	ret

0004444c <_ZN7XBOXONE14getButtonClickE10ButtonEnum>:

bool XBOXONE::getButtonClick(ButtonEnum b) {
   4444c:	defffc04 	addi	sp,sp,-16
   44450:	df000315 	stw	fp,12(sp)
   44454:	df000304 	addi	fp,sp,12
   44458:	e13ffe15 	stw	r4,-8(fp)
   4445c:	e17fff15 	stw	r5,-4(fp)
        if(b == L2) {
   44460:	e0bfff17 	ldw	r2,-4(fp)
   44464:	10800218 	cmpnei	r2,r2,8
   44468:	10000a1e 	bne	r2,zero,44494 <_ZN7XBOXONE14getButtonClickE10ButtonEnum+0x48>
                if(L2Clicked) {
   4446c:	e0bffe17 	ldw	r2,-8(fp)
   44470:	10800f03 	ldbu	r2,60(r2)
   44474:	10803fcc 	andi	r2,r2,255
   44478:	10000426 	beq	r2,zero,4448c <_ZN7XBOXONE14getButtonClickE10ButtonEnum+0x40>
                        L2Clicked = false;
   4447c:	e0bffe17 	ldw	r2,-8(fp)
   44480:	10000f05 	stb	zero,60(r2)
                        return true;
   44484:	00800044 	movi	r2,1
   44488:	00002806 	br	4452c <_ZN7XBOXONE14getButtonClickE10ButtonEnum+0xe0>
                }
                return false;
   4448c:	0005883a 	mov	r2,zero
   44490:	00002606 	br	4452c <_ZN7XBOXONE14getButtonClickE10ButtonEnum+0xe0>
        } else if(b == R2) {
   44494:	e0bfff17 	ldw	r2,-4(fp)
   44498:	10800258 	cmpnei	r2,r2,9
   4449c:	10000a1e 	bne	r2,zero,444c8 <_ZN7XBOXONE14getButtonClickE10ButtonEnum+0x7c>
                if(R2Clicked) {
   444a0:	e0bffe17 	ldw	r2,-8(fp)
   444a4:	10800f43 	ldbu	r2,61(r2)
   444a8:	10803fcc 	andi	r2,r2,255
   444ac:	10000426 	beq	r2,zero,444c0 <_ZN7XBOXONE14getButtonClickE10ButtonEnum+0x74>
                        R2Clicked = false;
   444b0:	e0bffe17 	ldw	r2,-8(fp)
   444b4:	10000f45 	stb	zero,61(r2)
                        return true;
   444b8:	00800044 	movi	r2,1
   444bc:	00001b06 	br	4452c <_ZN7XBOXONE14getButtonClickE10ButtonEnum+0xe0>
                }
                return false;
   444c0:	0005883a 	mov	r2,zero
   444c4:	00001906 	br	4452c <_ZN7XBOXONE14getButtonClickE10ButtonEnum+0xe0>
        }
        uint16_t button = pgm_read_word(&XBOX_BUTTONS[(uint8_t)b]);
   444c8:	e0bfff17 	ldw	r2,-4(fp)
   444cc:	10803fcc 	andi	r2,r2,255
   444d0:	1087883a 	add	r3,r2,r2
   444d4:	008001b4 	movhi	r2,6
   444d8:	10938684 	addi	r2,r2,19994
   444dc:	1885883a 	add	r2,r3,r2
   444e0:	1080000b 	ldhu	r2,0(r2)
   444e4:	e0bffd0d 	sth	r2,-12(fp)
        bool click = (ButtonClickState & button);
   444e8:	e0bffe17 	ldw	r2,-8(fp)
   444ec:	10c00a8b 	ldhu	r3,42(r2)
   444f0:	e0bffd0b 	ldhu	r2,-12(fp)
   444f4:	1884703a 	and	r2,r3,r2
   444f8:	10bfffcc 	andi	r2,r2,65535
   444fc:	1004c03a 	cmpne	r2,r2,zero
   44500:	e0bffd85 	stb	r2,-10(fp)
        ButtonClickState &= ~button; // Clear "click" event
   44504:	e0bffe17 	ldw	r2,-8(fp)
   44508:	10800a8b 	ldhu	r2,42(r2)
   4450c:	1007883a 	mov	r3,r2
   44510:	e0bffd0b 	ldhu	r2,-12(fp)
   44514:	0084303a 	nor	r2,zero,r2
   44518:	1884703a 	and	r2,r3,r2
   4451c:	1007883a 	mov	r3,r2
   44520:	e0bffe17 	ldw	r2,-8(fp)
   44524:	10c00a8d 	sth	r3,42(r2)
        return click;
   44528:	e0bffd83 	ldbu	r2,-10(fp)
}
   4452c:	e037883a 	mov	sp,fp
   44530:	df000017 	ldw	fp,0(sp)
   44534:	dec00104 	addi	sp,sp,4
   44538:	f800283a 	ret

0004453c <_ZN7XBOXONE12getAnalogHatE13AnalogHatEnum>:

int16_t XBOXONE::getAnalogHat(AnalogHatEnum a) {
   4453c:	defffd04 	addi	sp,sp,-12
   44540:	df000215 	stw	fp,8(sp)
   44544:	df000204 	addi	fp,sp,8
   44548:	e13ffe15 	stw	r4,-8(fp)
   4454c:	e17fff15 	stw	r5,-4(fp)
        return hatValue[a];
   44550:	e0bfff17 	ldw	r2,-4(fp)
   44554:	e0fffe17 	ldw	r3,-8(fp)
   44558:	10800584 	addi	r2,r2,22
   4455c:	1085883a 	add	r2,r2,r2
   44560:	1885883a 	add	r2,r3,r2
   44564:	1080000b 	ldhu	r2,0(r2)
}
   44568:	e037883a 	mov	sp,fp
   4456c:	df000017 	ldw	fp,0(sp)
   44570:	dec00104 	addi	sp,sp,4
   44574:	f800283a 	ret

00044578 <_ZN7XBOXONE11XboxCommandEPht>:

/* Xbox Controller commands */
uint8_t XBOXONE::XboxCommand(uint8_t* data, uint16_t nbytes) {
   44578:	defff904 	addi	sp,sp,-28
   4457c:	dfc00615 	stw	ra,24(sp)
   44580:	df000515 	stw	fp,20(sp)
   44584:	df000504 	addi	fp,sp,20
   44588:	e13ffd15 	stw	r4,-12(fp)
   4458c:	e17ffe15 	stw	r5,-8(fp)
   44590:	3005883a 	mov	r2,r6
   44594:	e0bfff0d 	sth	r2,-4(fp)
        data[2] = cmdCounter++; // Increment the output command counter
   44598:	e0bffe17 	ldw	r2,-8(fp)
   4459c:	10c00084 	addi	r3,r2,2
   445a0:	e0bffd17 	ldw	r2,-12(fp)
   445a4:	10801f83 	ldbu	r2,126(r2)
   445a8:	11000044 	addi	r4,r2,1
   445ac:	200b883a 	mov	r5,r4
   445b0:	e13ffd17 	ldw	r4,-12(fp)
   445b4:	21401f85 	stb	r5,126(r4)
   445b8:	18800005 	stb	r2,0(r3)
        uint8_t rcode = pUsb->outTransfer(bAddress, epInfo[ XBOX_ONE_OUTPUT_PIPE ].epAddr, nbytes, data);
   445bc:	e0bffd17 	ldw	r2,-12(fp)
   445c0:	10c00317 	ldw	r3,12(r2)
   445c4:	e0bffd17 	ldw	r2,-12(fp)
   445c8:	10800403 	ldbu	r2,16(r2)
   445cc:	11003fcc 	andi	r4,r2,255
   445d0:	e0bffd17 	ldw	r2,-12(fp)
   445d4:	10800503 	ldbu	r2,20(r2)
   445d8:	11403fcc 	andi	r5,r2,255
   445dc:	e1bfff0b 	ldhu	r6,-4(fp)
   445e0:	e0bffe17 	ldw	r2,-8(fp)
   445e4:	d8800015 	stw	r2,0(sp)
   445e8:	300f883a 	mov	r7,r6
   445ec:	280d883a 	mov	r6,r5
   445f0:	200b883a 	mov	r5,r4
   445f4:	1809883a 	mov	r4,r3
   445f8:	00412400 	call	41240 <_ZN3USB11outTransferEhhtPh>
   445fc:	e0bffc05 	stb	r2,-16(fp)
#ifdef DEBUG_USB_HOST
        Notify(PSTR("\r\nXboxCommand, Return: "), 0x80);
        D_PrintHex<uint8_t > (rcode, 0x80);
#endif
        return rcode;
   44600:	e0bffc03 	ldbu	r2,-16(fp)
}
   44604:	e037883a 	mov	sp,fp
   44608:	dfc00117 	ldw	ra,4(sp)
   4460c:	df000017 	ldw	fp,0(sp)
   44610:	dec00204 	addi	sp,sp,8
   44614:	f800283a 	ret

00044618 <_ZN7XBOXONE6onInitEv>:

// The Xbox One packets are described at: https://github.com/quantus/xbox-one-controller-protocol
void XBOXONE::onInit() {
   44618:	defff904 	addi	sp,sp,-28
   4461c:	dfc00615 	stw	ra,24(sp)
   44620:	df000515 	stw	fp,20(sp)
   44624:	df000504 	addi	fp,sp,20
   44628:	e13fff15 	stw	r4,-4(fp)
        // A short buzz to show the controller is active
        uint8_t writeBuf[13];

        // Activate rumble
        writeBuf[0] = 0x09;
   4462c:	00800244 	movi	r2,9
   44630:	e0bffb05 	stb	r2,-20(fp)
        writeBuf[1] = 0x00;
   44634:	e03ffb45 	stb	zero,-19(fp)
        // Byte 2 is set in "XboxCommand"

        // Single rumble effect
        writeBuf[3] = 0x09; // Substructure (what substructure rest of this packet has)
   44638:	00800244 	movi	r2,9
   4463c:	e0bffbc5 	stb	r2,-17(fp)
        writeBuf[4] = 0x00; // Mode
   44640:	e03ffc05 	stb	zero,-16(fp)
        writeBuf[5] = 0x0F; // Rumble mask (what motors are activated) (0000 lT rT L R)
   44644:	008003c4 	movi	r2,15
   44648:	e0bffc45 	stb	r2,-15(fp)
        writeBuf[6] = 0x04; // lT force
   4464c:	00800104 	movi	r2,4
   44650:	e0bffc85 	stb	r2,-14(fp)
        writeBuf[7] = 0x04; // rT force
   44654:	00800104 	movi	r2,4
   44658:	e0bffcc5 	stb	r2,-13(fp)
        writeBuf[8] = 0x20; // L force
   4465c:	00800804 	movi	r2,32
   44660:	e0bffd05 	stb	r2,-12(fp)
        writeBuf[9] = 0x20; // R force
   44664:	00800804 	movi	r2,32
   44668:	e0bffd45 	stb	r2,-11(fp)
        writeBuf[10] = 0x80; // Length of pulse
   4466c:	00bfe004 	movi	r2,-128
   44670:	e0bffd85 	stb	r2,-10(fp)
        writeBuf[11] = 0x00; // Off period
   44674:	e03ffdc5 	stb	zero,-9(fp)
        writeBuf[12] = 0x00; // Repeat count
   44678:	e03ffe05 	stb	zero,-8(fp)
        XboxCommand(writeBuf, 13);
   4467c:	01800344 	movi	r6,13
   44680:	e17ffb04 	addi	r5,fp,-20
   44684:	e13fff17 	ldw	r4,-4(fp)
   44688:	00445780 	call	44578 <_ZN7XBOXONE11XboxCommandEPht>

        if(pFuncOnInit)
   4468c:	e0bfff17 	ldw	r2,-4(fp)
   44690:	10800817 	ldw	r2,32(r2)
   44694:	10000326 	beq	r2,zero,446a4 <_ZN7XBOXONE6onInitEv+0x8c>
                pFuncOnInit(); // Call the user function
   44698:	e0bfff17 	ldw	r2,-4(fp)
   4469c:	10800817 	ldw	r2,32(r2)
   446a0:	103ee83a 	callr	r2
}
   446a4:	0001883a 	nop
   446a8:	e037883a 	mov	sp,fp
   446ac:	dfc00117 	ldw	ra,4(sp)
   446b0:	df000017 	ldw	fp,0(sp)
   446b4:	dec00204 	addi	sp,sp,8
   446b8:	f800283a 	ret

000446bc <_ZN7XBOXONE12setRumbleOffEv>:

void XBOXONE::setRumbleOff() {
   446bc:	defff904 	addi	sp,sp,-28
   446c0:	dfc00615 	stw	ra,24(sp)
   446c4:	df000515 	stw	fp,20(sp)
   446c8:	df000504 	addi	fp,sp,20
   446cc:	e13fff15 	stw	r4,-4(fp)
        uint8_t writeBuf[13];

        // Activate rumble
        writeBuf[0] = 0x09;
   446d0:	00800244 	movi	r2,9
   446d4:	e0bffb05 	stb	r2,-20(fp)
        writeBuf[1] = 0x00;
   446d8:	e03ffb45 	stb	zero,-19(fp)
        // Byte 2 is set in "XboxCommand"

        // Continuous rumble effect
        writeBuf[3] = 0x09; // Substructure (what substructure rest of this packet has)
   446dc:	00800244 	movi	r2,9
   446e0:	e0bffbc5 	stb	r2,-17(fp)
        writeBuf[4] = 0x00; // Mode
   446e4:	e03ffc05 	stb	zero,-16(fp)
        writeBuf[5] = 0x0F; // Rumble mask (what motors are activated) (0000 lT rT L R)
   446e8:	008003c4 	movi	r2,15
   446ec:	e0bffc45 	stb	r2,-15(fp)
        writeBuf[6] = 0x00; // lT force
   446f0:	e03ffc85 	stb	zero,-14(fp)
        writeBuf[7] = 0x00; // rT force
   446f4:	e03ffcc5 	stb	zero,-13(fp)
        writeBuf[8] = 0x00; // L force
   446f8:	e03ffd05 	stb	zero,-12(fp)
        writeBuf[9] = 0x00; // R force
   446fc:	e03ffd45 	stb	zero,-11(fp)
        writeBuf[10] = 0x00; // On period
   44700:	e03ffd85 	stb	zero,-10(fp)
        writeBuf[11] = 0x00; // Off period
   44704:	e03ffdc5 	stb	zero,-9(fp)
        writeBuf[12] = 0x00; // Repeat count
   44708:	e03ffe05 	stb	zero,-8(fp)
        XboxCommand(writeBuf, 13);
   4470c:	01800344 	movi	r6,13
   44710:	e17ffb04 	addi	r5,fp,-20
   44714:	e13fff17 	ldw	r4,-4(fp)
   44718:	00445780 	call	44578 <_ZN7XBOXONE11XboxCommandEPht>
}
   4471c:	0001883a 	nop
   44720:	e037883a 	mov	sp,fp
   44724:	dfc00117 	ldw	ra,4(sp)
   44728:	df000017 	ldw	fp,0(sp)
   4472c:	dec00204 	addi	sp,sp,8
   44730:	f800283a 	ret

00044734 <_ZN7XBOXONE11setRumbleOnEhhhh>:

void XBOXONE::setRumbleOn(uint8_t leftTrigger, uint8_t rightTrigger, uint8_t leftMotor, uint8_t rightMotor) {
   44734:	defff504 	addi	sp,sp,-44
   44738:	dfc00a15 	stw	ra,40(sp)
   4473c:	df000915 	stw	fp,36(sp)
   44740:	df000904 	addi	fp,sp,36
   44744:	e13ffb15 	stw	r4,-20(fp)
   44748:	3009883a 	mov	r4,r6
   4474c:	3807883a 	mov	r3,r7
   44750:	e0800217 	ldw	r2,8(fp)
   44754:	e17ffc05 	stb	r5,-16(fp)
   44758:	e13ffd05 	stb	r4,-12(fp)
   4475c:	e0fffe05 	stb	r3,-8(fp)
   44760:	e0bfff05 	stb	r2,-4(fp)
        uint8_t writeBuf[13];

        // Activate rumble
        writeBuf[0] = 0x09;
   44764:	00800244 	movi	r2,9
   44768:	e0bff705 	stb	r2,-36(fp)
        writeBuf[1] = 0x00;
   4476c:	e03ff745 	stb	zero,-35(fp)
        // Byte 2 is set in "XboxCommand"

        // Continuous rumble effect
        writeBuf[3] = 0x09; // Substructure (what substructure rest of this packet has)
   44770:	00800244 	movi	r2,9
   44774:	e0bff7c5 	stb	r2,-33(fp)
        writeBuf[4] = 0x00; // Mode
   44778:	e03ff805 	stb	zero,-32(fp)
        writeBuf[5] = 0x0F; // Rumble mask (what motors are activated) (0000 lT rT L R)
   4477c:	008003c4 	movi	r2,15
   44780:	e0bff845 	stb	r2,-31(fp)
        writeBuf[6] = leftTrigger; // lT force
   44784:	e0bffc03 	ldbu	r2,-16(fp)
   44788:	e0bff885 	stb	r2,-30(fp)
        writeBuf[7] = rightTrigger; // rT force
   4478c:	e0bffd03 	ldbu	r2,-12(fp)
   44790:	e0bff8c5 	stb	r2,-29(fp)
        writeBuf[8] = leftMotor; // L force
   44794:	e0bffe03 	ldbu	r2,-8(fp)
   44798:	e0bff905 	stb	r2,-28(fp)
        writeBuf[9] = rightMotor; // R force
   4479c:	e0bfff03 	ldbu	r2,-4(fp)
   447a0:	e0bff945 	stb	r2,-27(fp)
        writeBuf[10] = 0xFF; // On period
   447a4:	00bfffc4 	movi	r2,-1
   447a8:	e0bff985 	stb	r2,-26(fp)
        writeBuf[11] = 0x00; // Off period
   447ac:	e03ff9c5 	stb	zero,-25(fp)
        writeBuf[12] = 0xFF; // Repeat count
   447b0:	00bfffc4 	movi	r2,-1
   447b4:	e0bffa05 	stb	r2,-24(fp)
        XboxCommand(writeBuf, 13);
   447b8:	01800344 	movi	r6,13
   447bc:	e17ff704 	addi	r5,fp,-36
   447c0:	e13ffb17 	ldw	r4,-20(fp)
   447c4:	00445780 	call	44578 <_ZN7XBOXONE11XboxCommandEPht>
}
   447c8:	0001883a 	nop
   447cc:	e037883a 	mov	sp,fp
   447d0:	dfc00117 	ldw	ra,4(sp)
   447d4:	df000017 	ldw	fp,0(sp)
   447d8:	dec00204 	addi	sp,sp,8
   447dc:	f800283a 	ret

000447e0 <_ZN16MultiValueBufferC1Ev>:
        uint8_t valueSize;
        void *pValue;

public:

        MultiValueBuffer() : valueSize(0), pValue(NULL) {
   447e0:	defffe04 	addi	sp,sp,-8
   447e4:	df000115 	stw	fp,4(sp)
   447e8:	df000104 	addi	fp,sp,4
   447ec:	e13fff15 	stw	r4,-4(fp)
   447f0:	e0bfff17 	ldw	r2,-4(fp)
   447f4:	10000005 	stb	zero,0(r2)
   447f8:	e0bfff17 	ldw	r2,-4(fp)
   447fc:	10c00043 	ldbu	r3,1(r2)
   44800:	1806703a 	and	r3,r3,zero
   44804:	10c00045 	stb	r3,1(r2)
   44808:	10c00083 	ldbu	r3,2(r2)
   4480c:	1806703a 	and	r3,r3,zero
   44810:	10c00085 	stb	r3,2(r2)
   44814:	10c000c3 	ldbu	r3,3(r2)
   44818:	1806703a 	and	r3,r3,zero
   4481c:	10c000c5 	stb	r3,3(r2)
   44820:	10c00103 	ldbu	r3,4(r2)
   44824:	1806703a 	and	r3,r3,zero
   44828:	10c00105 	stb	r3,4(r2)
        };
   4482c:	0001883a 	nop
   44830:	e037883a 	mov	sp,fp
   44834:	df000017 	ldw	fp,0(sp)
   44838:	dec00104 	addi	sp,sp,4
   4483c:	f800283a 	ret

00044840 <_ZN20MultiByteValueParserC1Ev>:
        uint8_t countDown;
        uint8_t valueSize;

public:

        MultiByteValueParser() : pBuf(NULL), countDown(0), valueSize(0) {
   44840:	defffe04 	addi	sp,sp,-8
   44844:	df000115 	stw	fp,4(sp)
   44848:	df000104 	addi	fp,sp,4
   4484c:	e13fff15 	stw	r4,-4(fp)
   44850:	e0bfff17 	ldw	r2,-4(fp)
   44854:	10000015 	stw	zero,0(r2)
   44858:	e0bfff17 	ldw	r2,-4(fp)
   4485c:	10000105 	stb	zero,4(r2)
   44860:	e0bfff17 	ldw	r2,-4(fp)
   44864:	10000145 	stb	zero,5(r2)
        };
   44868:	0001883a 	nop
   4486c:	e037883a 	mov	sp,fp
   44870:	df000017 	ldw	fp,0(sp)
   44874:	dec00104 	addi	sp,sp,4
   44878:	f800283a 	ret

0004487c <_ZN20MultiByteValueParser10InitializeEP16MultiValueBuffer>:

        const uint8_t* GetBuffer() {
                return pBuf;
        };

        void Initialize(MultiValueBuffer * const pbuf) {
   4487c:	defffd04 	addi	sp,sp,-12
   44880:	df000215 	stw	fp,8(sp)
   44884:	df000204 	addi	fp,sp,8
   44888:	e13ffe15 	stw	r4,-8(fp)
   4488c:	e17fff15 	stw	r5,-4(fp)
                pBuf = (uint8_t*)pbuf->pValue;
   44890:	e0bfff17 	ldw	r2,-4(fp)
   44894:	10c00043 	ldbu	r3,1(r2)
   44898:	11000083 	ldbu	r4,2(r2)
   4489c:	2008923a 	slli	r4,r4,8
   448a0:	20c6b03a 	or	r3,r4,r3
   448a4:	110000c3 	ldbu	r4,3(r2)
   448a8:	2008943a 	slli	r4,r4,16
   448ac:	20c6b03a 	or	r3,r4,r3
   448b0:	10800103 	ldbu	r2,4(r2)
   448b4:	1004963a 	slli	r2,r2,24
   448b8:	10c4b03a 	or	r2,r2,r3
   448bc:	1007883a 	mov	r3,r2
   448c0:	e0bffe17 	ldw	r2,-8(fp)
   448c4:	10c00015 	stw	r3,0(r2)
                countDown = valueSize = pbuf->valueSize;
   448c8:	e0bfff17 	ldw	r2,-4(fp)
   448cc:	10c00003 	ldbu	r3,0(r2)
   448d0:	e0bffe17 	ldw	r2,-8(fp)
   448d4:	10c00145 	stb	r3,5(r2)
   448d8:	e0bffe17 	ldw	r2,-8(fp)
   448dc:	10c00143 	ldbu	r3,5(r2)
   448e0:	e0bffe17 	ldw	r2,-8(fp)
   448e4:	10c00105 	stb	r3,4(r2)
        };
   448e8:	0001883a 	nop
   448ec:	e037883a 	mov	sp,fp
   448f0:	df000017 	ldw	fp,0(sp)
   448f4:	dec00104 	addi	sp,sp,4
   448f8:	f800283a 	ret

000448fc <_ZN11ByteSkipperC1Ev>:
        uint8_t nStage;
        uint16_t countDown;

public:

        ByteSkipper() : pBuf(NULL), nStage(0), countDown(0) {
   448fc:	defffe04 	addi	sp,sp,-8
   44900:	df000115 	stw	fp,4(sp)
   44904:	df000104 	addi	fp,sp,4
   44908:	e13fff15 	stw	r4,-4(fp)
   4490c:	e0bfff17 	ldw	r2,-4(fp)
   44910:	10000015 	stw	zero,0(r2)
   44914:	e0bfff17 	ldw	r2,-4(fp)
   44918:	10000105 	stb	zero,4(r2)
   4491c:	e0bfff17 	ldw	r2,-4(fp)
   44920:	1000018d 	sth	zero,6(r2)
        };
   44924:	0001883a 	nop
   44928:	e037883a 	mov	sp,fp
   4492c:	df000017 	ldw	fp,0(sp)
   44930:	dec00104 	addi	sp,sp,4
   44934:	f800283a 	ret

00044938 <_ZN11ByteSkipper10InitializeEP16MultiValueBuffer>:

        void Initialize(MultiValueBuffer *pbuf) {
   44938:	defffd04 	addi	sp,sp,-12
   4493c:	df000215 	stw	fp,8(sp)
   44940:	df000204 	addi	fp,sp,8
   44944:	e13ffe15 	stw	r4,-8(fp)
   44948:	e17fff15 	stw	r5,-4(fp)
                pBuf = (uint8_t*)pbuf->pValue;
   4494c:	e0bfff17 	ldw	r2,-4(fp)
   44950:	10c00043 	ldbu	r3,1(r2)
   44954:	11000083 	ldbu	r4,2(r2)
   44958:	2008923a 	slli	r4,r4,8
   4495c:	20c6b03a 	or	r3,r4,r3
   44960:	110000c3 	ldbu	r4,3(r2)
   44964:	2008943a 	slli	r4,r4,16
   44968:	20c6b03a 	or	r3,r4,r3
   4496c:	10800103 	ldbu	r2,4(r2)
   44970:	1004963a 	slli	r2,r2,24
   44974:	10c4b03a 	or	r2,r2,r3
   44978:	1007883a 	mov	r3,r2
   4497c:	e0bffe17 	ldw	r2,-8(fp)
   44980:	10c00015 	stw	r3,0(r2)
                countDown = 0;
   44984:	e0bffe17 	ldw	r2,-8(fp)
   44988:	1000018d 	sth	zero,6(r2)
        };
   4498c:	0001883a 	nop
   44990:	e037883a 	mov	sp,fp
   44994:	df000017 	ldw	fp,0(sp)
   44998:	dec00104 	addi	sp,sp,4
   4499c:	f800283a 	ret

000449a0 <_ZN11ByteSkipper4SkipEPPhPtt>:

        bool Skip(uint8_t **pp, uint16_t *pcntdn, uint16_t bytes_to_skip) {
   449a0:	defffb04 	addi	sp,sp,-20
   449a4:	df000415 	stw	fp,16(sp)
   449a8:	df000404 	addi	fp,sp,16
   449ac:	e13ffc15 	stw	r4,-16(fp)
   449b0:	e17ffd15 	stw	r5,-12(fp)
   449b4:	e1bffe15 	stw	r6,-8(fp)
   449b8:	3805883a 	mov	r2,r7
   449bc:	e0bfff0d 	sth	r2,-4(fp)
                switch(nStage) {
   449c0:	e0bffc17 	ldw	r2,-16(fp)
   449c4:	10800103 	ldbu	r2,4(r2)
   449c8:	10803fcc 	andi	r2,r2,255
   449cc:	10000326 	beq	r2,zero,449dc <_ZN11ByteSkipper4SkipEPPhPtt+0x3c>
   449d0:	10800060 	cmpeqi	r2,r2,1
   449d4:	10000a1e 	bne	r2,zero,44a00 <_ZN11ByteSkipper4SkipEPPhPtt+0x60>
   449d8:	00002906 	br	44a80 <_ZN11ByteSkipper4SkipEPPhPtt+0xe0>
                        case 0:
                                countDown = bytes_to_skip;
   449dc:	e0bffc17 	ldw	r2,-16(fp)
   449e0:	e0ffff0b 	ldhu	r3,-4(fp)
   449e4:	10c0018d 	sth	r3,6(r2)
                                nStage++;
   449e8:	e0bffc17 	ldw	r2,-16(fp)
   449ec:	10800103 	ldbu	r2,4(r2)
   449f0:	10800044 	addi	r2,r2,1
   449f4:	1007883a 	mov	r3,r2
   449f8:	e0bffc17 	ldw	r2,-16(fp)
   449fc:	10c00105 	stb	r3,4(r2)
                        case 1:
                                for(; countDown && (*pcntdn); countDown--, (*pp)++, (*pcntdn)--);
   44a00:	e0bffc17 	ldw	r2,-16(fp)
   44a04:	1080018b 	ldhu	r2,6(r2)
   44a08:	10bfffcc 	andi	r2,r2,65535
   44a0c:	10001626 	beq	r2,zero,44a68 <_ZN11ByteSkipper4SkipEPPhPtt+0xc8>
   44a10:	e0bffe17 	ldw	r2,-8(fp)
   44a14:	1080000b 	ldhu	r2,0(r2)
   44a18:	10bfffcc 	andi	r2,r2,65535
   44a1c:	10001226 	beq	r2,zero,44a68 <_ZN11ByteSkipper4SkipEPPhPtt+0xc8>
   44a20:	e0bffc17 	ldw	r2,-16(fp)
   44a24:	1080018b 	ldhu	r2,6(r2)
   44a28:	10bfffc4 	addi	r2,r2,-1
   44a2c:	1007883a 	mov	r3,r2
   44a30:	e0bffc17 	ldw	r2,-16(fp)
   44a34:	10c0018d 	sth	r3,6(r2)
   44a38:	e0bffd17 	ldw	r2,-12(fp)
   44a3c:	10800017 	ldw	r2,0(r2)
   44a40:	10c00044 	addi	r3,r2,1
   44a44:	e0bffd17 	ldw	r2,-12(fp)
   44a48:	10c00015 	stw	r3,0(r2)
   44a4c:	e0bffe17 	ldw	r2,-8(fp)
   44a50:	1080000b 	ldhu	r2,0(r2)
   44a54:	10bfffc4 	addi	r2,r2,-1
   44a58:	1007883a 	mov	r3,r2
   44a5c:	e0bffe17 	ldw	r2,-8(fp)
   44a60:	10c0000d 	sth	r3,0(r2)
   44a64:	003fe606 	br	44a00 <__alt_data_end+0xfffc4a00>

                                if(!countDown)
   44a68:	e0bffc17 	ldw	r2,-16(fp)
   44a6c:	1080018b 	ldhu	r2,6(r2)
   44a70:	10bfffcc 	andi	r2,r2,65535
   44a74:	1000021e 	bne	r2,zero,44a80 <_ZN11ByteSkipper4SkipEPPhPtt+0xe0>
                                        nStage = 0;
   44a78:	e0bffc17 	ldw	r2,-16(fp)
   44a7c:	10000105 	stb	zero,4(r2)
                };
                return (!countDown);
   44a80:	e0bffc17 	ldw	r2,-16(fp)
   44a84:	1080018b 	ldhu	r2,6(r2)
   44a88:	10bfffcc 	andi	r2,r2,65535
   44a8c:	1005003a 	cmpeq	r2,r2,zero
        };
   44a90:	e037883a 	mov	sp,fp
   44a94:	df000017 	ldw	fp,0(sp)
   44a98:	dec00104 	addi	sp,sp,4
   44a9c:	f800283a 	ret

00044aa0 <_ZN15USBDeviceConfig4InitEhhb>:
#define USB_STATE_ERROR                                     0xa0

class USBDeviceConfig {
public:

        virtual uint8_t Init(uint8_t parent __attribute__((unused)), uint8_t port __attribute__((unused)), bool lowspeed __attribute__((unused))) {
   44aa0:	defffb04 	addi	sp,sp,-20
   44aa4:	df000415 	stw	fp,16(sp)
   44aa8:	df000404 	addi	fp,sp,16
   44aac:	e13ffc15 	stw	r4,-16(fp)
   44ab0:	2809883a 	mov	r4,r5
   44ab4:	3007883a 	mov	r3,r6
   44ab8:	3805883a 	mov	r2,r7
   44abc:	e13ffd05 	stb	r4,-12(fp)
   44ac0:	e0fffe05 	stb	r3,-8(fp)
   44ac4:	e0bfff05 	stb	r2,-4(fp)
                return 0;
   44ac8:	0005883a 	mov	r2,zero
        }
   44acc:	e037883a 	mov	sp,fp
   44ad0:	df000017 	ldw	fp,0(sp)
   44ad4:	dec00104 	addi	sp,sp,4
   44ad8:	f800283a 	ret

00044adc <_ZN15USBDeviceConfig15ConfigureDeviceEhhb>:

        virtual uint8_t ConfigureDevice(uint8_t parent __attribute__((unused)), uint8_t port __attribute__((unused)), bool lowspeed __attribute__((unused))) {
   44adc:	defffb04 	addi	sp,sp,-20
   44ae0:	df000415 	stw	fp,16(sp)
   44ae4:	df000404 	addi	fp,sp,16
   44ae8:	e13ffc15 	stw	r4,-16(fp)
   44aec:	2809883a 	mov	r4,r5
   44af0:	3007883a 	mov	r3,r6
   44af4:	3805883a 	mov	r2,r7
   44af8:	e13ffd05 	stb	r4,-12(fp)
   44afc:	e0fffe05 	stb	r3,-8(fp)
   44b00:	e0bfff05 	stb	r2,-4(fp)
                return 0;
   44b04:	0005883a 	mov	r2,zero
        }
   44b08:	e037883a 	mov	sp,fp
   44b0c:	df000017 	ldw	fp,0(sp)
   44b10:	dec00104 	addi	sp,sp,4
   44b14:	f800283a 	ret

00044b18 <_ZN15USBDeviceConfig7ReleaseEv>:

        virtual uint8_t Release() {
   44b18:	defffe04 	addi	sp,sp,-8
   44b1c:	df000115 	stw	fp,4(sp)
   44b20:	df000104 	addi	fp,sp,4
   44b24:	e13fff15 	stw	r4,-4(fp)
                return 0;
   44b28:	0005883a 	mov	r2,zero
        }
   44b2c:	e037883a 	mov	sp,fp
   44b30:	df000017 	ldw	fp,0(sp)
   44b34:	dec00104 	addi	sp,sp,4
   44b38:	f800283a 	ret

00044b3c <_ZN15USBDeviceConfig4PollEv>:

        virtual uint8_t Poll() {
   44b3c:	defffe04 	addi	sp,sp,-8
   44b40:	df000115 	stw	fp,4(sp)
   44b44:	df000104 	addi	fp,sp,4
   44b48:	e13fff15 	stw	r4,-4(fp)
                return 0;
   44b4c:	0005883a 	mov	r2,zero
        }
   44b50:	e037883a 	mov	sp,fp
   44b54:	df000017 	ldw	fp,0(sp)
   44b58:	dec00104 	addi	sp,sp,4
   44b5c:	f800283a 	ret

00044b60 <_ZN15USBDeviceConfig10GetAddressEv>:

        virtual uint8_t GetAddress() {
   44b60:	defffe04 	addi	sp,sp,-8
   44b64:	df000115 	stw	fp,4(sp)
   44b68:	df000104 	addi	fp,sp,4
   44b6c:	e13fff15 	stw	r4,-4(fp)
                return 0;
   44b70:	0005883a 	mov	r2,zero
        }
   44b74:	e037883a 	mov	sp,fp
   44b78:	df000017 	ldw	fp,0(sp)
   44b7c:	dec00104 	addi	sp,sp,4
   44b80:	f800283a 	ret

00044b84 <_ZN15USBDeviceConfig12ResetHubPortEh>:

        virtual void ResetHubPort(uint8_t port __attribute__((unused))) {
   44b84:	defffd04 	addi	sp,sp,-12
   44b88:	df000215 	stw	fp,8(sp)
   44b8c:	df000204 	addi	fp,sp,8
   44b90:	e13ffe15 	stw	r4,-8(fp)
   44b94:	2805883a 	mov	r2,r5
   44b98:	e0bfff05 	stb	r2,-4(fp)
                return;
   44b9c:	0001883a 	nop
        } // Note used for hubs only!
   44ba0:	e037883a 	mov	sp,fp
   44ba4:	df000017 	ldw	fp,0(sp)
   44ba8:	dec00104 	addi	sp,sp,4
   44bac:	f800283a 	ret

00044bb0 <_ZN15USBDeviceConfig8VIDPIDOKEtt>:

        virtual bool VIDPIDOK(uint16_t vid __attribute__((unused)), uint16_t pid __attribute__((unused))) {
   44bb0:	defffc04 	addi	sp,sp,-16
   44bb4:	df000315 	stw	fp,12(sp)
   44bb8:	df000304 	addi	fp,sp,12
   44bbc:	e13ffd15 	stw	r4,-12(fp)
   44bc0:	2807883a 	mov	r3,r5
   44bc4:	3005883a 	mov	r2,r6
   44bc8:	e0fffe0d 	sth	r3,-8(fp)
   44bcc:	e0bfff0d 	sth	r2,-4(fp)
                return false;
   44bd0:	0005883a 	mov	r2,zero
        }
   44bd4:	e037883a 	mov	sp,fp
   44bd8:	df000017 	ldw	fp,0(sp)
   44bdc:	dec00104 	addi	sp,sp,4
   44be0:	f800283a 	ret

00044be4 <_ZN15USBDeviceConfig10DEVCLASSOKEh>:

        virtual bool DEVCLASSOK(uint8_t klass __attribute__((unused))) {
   44be4:	defffd04 	addi	sp,sp,-12
   44be8:	df000215 	stw	fp,8(sp)
   44bec:	df000204 	addi	fp,sp,8
   44bf0:	e13ffe15 	stw	r4,-8(fp)
   44bf4:	2805883a 	mov	r2,r5
   44bf8:	e0bfff05 	stb	r2,-4(fp)
                return false;
   44bfc:	0005883a 	mov	r2,zero
        }
   44c00:	e037883a 	mov	sp,fp
   44c04:	df000017 	ldw	fp,0(sp)
   44c08:	dec00104 	addi	sp,sp,4
   44c0c:	f800283a 	ret

00044c10 <_ZN15USBDeviceConfig13DEVSUBCLASSOKEh>:

        virtual bool DEVSUBCLASSOK(uint8_t subklass __attribute__((unused))) {
   44c10:	defffd04 	addi	sp,sp,-12
   44c14:	df000215 	stw	fp,8(sp)
   44c18:	df000204 	addi	fp,sp,8
   44c1c:	e13ffe15 	stw	r4,-8(fp)
   44c20:	2805883a 	mov	r2,r5
   44c24:	e0bfff05 	stb	r2,-4(fp)
                return true;
   44c28:	00800044 	movi	r2,1
        }
   44c2c:	e037883a 	mov	sp,fp
   44c30:	df000017 	ldw	fp,0(sp)
   44c34:	dec00104 	addi	sp,sp,4
   44c38:	f800283a 	ret

00044c3c <_ZN3USB19RegisterDeviceClassEP15USBDeviceConfig>:

        AddressPool& GetAddressPool() {
                return (AddressPool&)addrPool;
        };

        uint8_t RegisterDeviceClass(USBDeviceConfig *pdev) {
   44c3c:	defffc04 	addi	sp,sp,-16
   44c40:	df000315 	stw	fp,12(sp)
   44c44:	df000304 	addi	fp,sp,12
   44c48:	e13ffe15 	stw	r4,-8(fp)
   44c4c:	e17fff15 	stw	r5,-4(fp)
                for(uint8_t i = 0; i < USB_NUMDEVICES; i++) {
   44c50:	e03ffd05 	stb	zero,-12(fp)
   44c54:	e0bffd03 	ldbu	r2,-12(fp)
   44c58:	10800428 	cmpgeui	r2,r2,16
   44c5c:	1000161e 	bne	r2,zero,44cb8 <_ZN3USB19RegisterDeviceClassEP15USBDeviceConfig+0x7c>
                        if(!devConfig[i]) {
   44c60:	e0bffd03 	ldbu	r2,-12(fp)
   44c64:	e0fffe17 	ldw	r3,-8(fp)
   44c68:	10800784 	addi	r2,r2,30
   44c6c:	1085883a 	add	r2,r2,r2
   44c70:	1085883a 	add	r2,r2,r2
   44c74:	1885883a 	add	r2,r3,r2
   44c78:	10800017 	ldw	r2,0(r2)
   44c7c:	10000a1e 	bne	r2,zero,44ca8 <_ZN3USB19RegisterDeviceClassEP15USBDeviceConfig+0x6c>
                                devConfig[i] = pdev;
   44c80:	e0bffd03 	ldbu	r2,-12(fp)
   44c84:	e0fffe17 	ldw	r3,-8(fp)
   44c88:	10800784 	addi	r2,r2,30
   44c8c:	1085883a 	add	r2,r2,r2
   44c90:	1085883a 	add	r2,r2,r2
   44c94:	1885883a 	add	r2,r3,r2
   44c98:	e0ffff17 	ldw	r3,-4(fp)
   44c9c:	10c00015 	stw	r3,0(r2)
                                return 0;
   44ca0:	0005883a 	mov	r2,zero
   44ca4:	00000506 	br	44cbc <_ZN3USB19RegisterDeviceClassEP15USBDeviceConfig+0x80>
        AddressPool& GetAddressPool() {
                return (AddressPool&)addrPool;
        };

        uint8_t RegisterDeviceClass(USBDeviceConfig *pdev) {
                for(uint8_t i = 0; i < USB_NUMDEVICES; i++) {
   44ca8:	e0bffd03 	ldbu	r2,-12(fp)
   44cac:	10800044 	addi	r2,r2,1
   44cb0:	e0bffd05 	stb	r2,-12(fp)
   44cb4:	003fe706 	br	44c54 <__alt_data_end+0xfffc4c54>
                        if(!devConfig[i]) {
                                devConfig[i] = pdev;
                                return 0;
                        }
                }
                return USB_ERROR_UNABLE_TO_REGISTER_DEVICE_CLASS;
   44cb8:	00bff4c4 	movi	r2,-45
        };
   44cbc:	e037883a 	mov	sp,fp
   44cc0:	df000017 	ldw	fp,0(sp)
   44cc4:	dec00104 	addi	sp,sp,4
   44cc8:	f800283a 	ret

00044ccc <_ZN17UsbConfigXtracter14EndpointXtractEhhhhPK23USB_ENDPOINT_DESCRIPTOR>:
class UsbConfigXtracter {
public:
        //virtual void ConfigXtract(const USB_CONFIGURATION_DESCRIPTOR *conf) = 0;
        //virtual void InterfaceXtract(uint8_t conf, const USB_INTERFACE_DESCRIPTOR *iface) = 0;

        virtual void EndpointXtract(uint8_t conf __attribute__((unused)), uint8_t iface __attribute__((unused)), uint8_t alt __attribute__((unused)), uint8_t proto __attribute__((unused)), const USB_ENDPOINT_DESCRIPTOR *ep __attribute__((unused))) {
   44ccc:	defffa04 	addi	sp,sp,-24
   44cd0:	df000515 	stw	fp,20(sp)
   44cd4:	df000504 	addi	fp,sp,20
   44cd8:	e13ffb15 	stw	r4,-20(fp)
   44cdc:	3009883a 	mov	r4,r6
   44ce0:	3807883a 	mov	r3,r7
   44ce4:	e0800117 	ldw	r2,4(fp)
   44ce8:	e17ffc05 	stb	r5,-16(fp)
   44cec:	e13ffd05 	stb	r4,-12(fp)
   44cf0:	e0fffe05 	stb	r3,-8(fp)
   44cf4:	e0bfff05 	stb	r2,-4(fp)
        };
   44cf8:	0001883a 	nop
   44cfc:	e037883a 	mov	sp,fp
   44d00:	df000017 	ldw	fp,0(sp)
   44d04:	dec00104 	addi	sp,sp,4
   44d08:	f800283a 	ret

00044d0c <_ZN7XBOXONE10GetAddressEv>:

        /**
         * Get the device address.
         * @return The device address.
         */
        virtual uint8_t GetAddress() {
   44d0c:	defffe04 	addi	sp,sp,-8
   44d10:	df000115 	stw	fp,4(sp)
   44d14:	df000104 	addi	fp,sp,4
   44d18:	e13fff15 	stw	r4,-4(fp)
                return bAddress;
   44d1c:	e0bfff17 	ldw	r2,-4(fp)
   44d20:	10800403 	ldbu	r2,16(r2)
        };
   44d24:	e037883a 	mov	sp,fp
   44d28:	df000017 	ldw	fp,0(sp)
   44d2c:	dec00104 	addi	sp,sp,4
   44d30:	f800283a 	ret

00044d34 <_ZN7XBOXONE7isReadyEv>:

        /**
         * Used to check if the controller has been initialized.
         * @return True if it's ready.
         */
        virtual bool isReady() {
   44d34:	defffe04 	addi	sp,sp,-8
   44d38:	df000115 	stw	fp,4(sp)
   44d3c:	df000104 	addi	fp,sp,4
   44d40:	e13fff15 	stw	r4,-4(fp)
                return bPollEnable;
   44d44:	e0bfff17 	ldw	r2,-4(fp)
   44d48:	10800943 	ldbu	r2,37(r2)
        };
   44d4c:	e037883a 	mov	sp,fp
   44d50:	df000017 	ldw	fp,0(sp)
   44d54:	dec00104 	addi	sp,sp,4
   44d58:	f800283a 	ret

00044d5c <_ZN7XBOXONE8VIDPIDOKEtt>:
         * Used by the USB core to check what this driver support.
         * @param  vid The device's VID.
         * @param  pid The device's PID.
         * @return     Returns true if the device's VID and PID matches this driver.
         */
        virtual bool VIDPIDOK(uint16_t vid, uint16_t pid) {
   44d5c:	defffc04 	addi	sp,sp,-16
   44d60:	df000315 	stw	fp,12(sp)
   44d64:	df000304 	addi	fp,sp,12
   44d68:	e13ffd15 	stw	r4,-12(fp)
   44d6c:	2807883a 	mov	r3,r5
   44d70:	3005883a 	mov	r2,r6
   44d74:	e0fffe0d 	sth	r3,-8(fp)
   44d78:	e0bfff0d 	sth	r2,-4(fp)
                return ((vid == XBOX_VID1 || vid == XBOX_VID2 || vid == XBOX_VID3 || vid == XBOX_VID4 || vid == XBOX_VID5 || vid == XBOX_VID6) &&
   44d7c:	e0bffe0b 	ldhu	r2,-8(fp)
   44d80:	108117a0 	cmpeqi	r2,r2,1118
   44d84:	10000f1e 	bne	r2,zero,44dc4 <_ZN7XBOXONE8VIDPIDOKEtt+0x68>
   44d88:	e0bffe0b 	ldhu	r2,-8(fp)
   44d8c:	1081ce20 	cmpeqi	r2,r2,1848
   44d90:	10000c1e 	bne	r2,zero,44dc4 <_ZN7XBOXONE8VIDPIDOKEtt+0x68>
   44d94:	e0bffe0b 	ldhu	r2,-8(fp)
   44d98:	10839be0 	cmpeqi	r2,r2,3695
   44d9c:	1000091e 	bne	r2,zero,44dc4 <_ZN7XBOXONE8VIDPIDOKEtt+0x68>
   44da0:	e0bffe0b 	ldhu	r2,-8(fp)
   44da4:	1083c360 	cmpeqi	r2,r2,3853
   44da8:	1000061e 	bne	r2,zero,44dc4 <_ZN7XBOXONE8VIDPIDOKEtt+0x68>
   44dac:	e0bffe0b 	ldhu	r2,-8(fp)
   44db0:	10854ca0 	cmpeqi	r2,r2,5426
   44db4:	1000031e 	bne	r2,zero,44dc4 <_ZN7XBOXONE8VIDPIDOKEtt+0x68>
   44db8:	e0bffe0b 	ldhu	r2,-8(fp)
   44dbc:	10893198 	cmpnei	r2,r2,9414
   44dc0:	10002c1e 	bne	r2,zero,44e74 <_ZN7XBOXONE8VIDPIDOKEtt+0x118>
   44dc4:	e0bfff0b 	ldhu	r2,-4(fp)
   44dc8:	1080b460 	cmpeqi	r2,r2,721
   44dcc:	1000271e 	bne	r2,zero,44e6c <_ZN7XBOXONE8VIDPIDOKEtt+0x110>
                       (pid == XBOX_ONE_PID1 || pid == XBOX_ONE_PID2 || pid == XBOX_ONE_PID3 || pid == XBOX_ONE_PID4 ||
   44dd0:	e0bfff0b 	ldhu	r2,-4(fp)
   44dd4:	1080b760 	cmpeqi	r2,r2,733
   44dd8:	1000241e 	bne	r2,zero,44e6c <_ZN7XBOXONE8VIDPIDOKEtt+0x110>
   44ddc:	e0bfff0b 	ldhu	r2,-4(fp)
   44de0:	1080b8e0 	cmpeqi	r2,r2,739
   44de4:	1000211e 	bne	r2,zero,44e6c <_ZN7XBOXONE8VIDPIDOKEtt+0x110>
   44de8:	e0bfff0b 	ldhu	r2,-4(fp)
   44dec:	1080baa0 	cmpeqi	r2,r2,746
   44df0:	10001e1e 	bne	r2,zero,44e6c <_ZN7XBOXONE8VIDPIDOKEtt+0x110>
   44df4:	e0bfff0b 	ldhu	r2,-4(fp)
   44df8:	10928060 	cmpeqi	r2,r2,18945
   44dfc:	10001b1e 	bne	r2,zero,44e6c <_ZN7XBOXONE8VIDPIDOKEtt+0x110>
                        pid == XBOX_ONE_PID5 || pid == XBOX_ONE_PID6 || pid == XBOX_ONE_PID7 || pid == XBOX_ONE_PID8 ||
   44e00:	e0bfff0b 	ldhu	r2,-4(fp)
   44e04:	10804e60 	cmpeqi	r2,r2,313
   44e08:	1000181e 	bne	r2,zero,44e6c <_ZN7XBOXONE8VIDPIDOKEtt+0x110>
   44e0c:	e0bfff0b 	ldhu	r2,-4(fp)
   44e10:	108051a0 	cmpeqi	r2,r2,326
   44e14:	1000151e 	bne	r2,zero,44e6c <_ZN7XBOXONE8VIDPIDOKEtt+0x110>
   44e18:	e0bfff0b 	ldhu	r2,-4(fp)
   44e1c:	108019e0 	cmpeqi	r2,r2,103
   44e20:	1000121e 	bne	r2,zero,44e6c <_ZN7XBOXONE8VIDPIDOKEtt+0x110>
   44e24:	e0bfff0b 	ldhu	r2,-4(fp)
   44e28:	108280e0 	cmpeqi	r2,r2,2563
   44e2c:	10000f1e 	bne	r2,zero,44e6c <_ZN7XBOXONE8VIDPIDOKEtt+0x110>
                        pid == XBOX_ONE_PID9 || pid == XBOX_ONE_PID10 || pid == XBOX_ONE_PID11 || pid == XBOX_ONE_PID12 || 
   44e30:	e0bfff0b 	ldhu	r2,-4(fp)
   44e34:	109506a0 	cmpeqi	r2,r2,21530
   44e38:	10000c1e 	bne	r2,zero,44e6c <_ZN7XBOXONE8VIDPIDOKEtt+0x110>
   44e3c:	e0bfff0b 	ldhu	r2,-4(fp)
   44e40:	10950aa0 	cmpeqi	r2,r2,21546
   44e44:	1000091e 	bne	r2,zero,44e6c <_ZN7XBOXONE8VIDPIDOKEtt+0x110>
   44e48:	e0bfff0b 	ldhu	r2,-4(fp)
   44e4c:	10950ea0 	cmpeqi	r2,r2,21562
   44e50:	1000061e 	bne	r2,zero,44e6c <_ZN7XBOXONE8VIDPIDOKEtt+0x110>
   44e54:	e0bfff0b 	ldhu	r2,-4(fp)
   44e58:	1082c2a0 	cmpeqi	r2,r2,2826
   44e5c:	1000031e 	bne	r2,zero,44e6c <_ZN7XBOXONE8VIDPIDOKEtt+0x110>
                        pid == XBOX_ONE_PID13 || pid == XBOX_ONE_PID14));
   44e60:	e0bfff0b 	ldhu	r2,-4(fp)
   44e64:	1082c498 	cmpnei	r2,r2,2834
   44e68:	1000021e 	bne	r2,zero,44e74 <_ZN7XBOXONE8VIDPIDOKEtt+0x118>
         * @param  vid The device's VID.
         * @param  pid The device's PID.
         * @return     Returns true if the device's VID and PID matches this driver.
         */
        virtual bool VIDPIDOK(uint16_t vid, uint16_t pid) {
                return ((vid == XBOX_VID1 || vid == XBOX_VID2 || vid == XBOX_VID3 || vid == XBOX_VID4 || vid == XBOX_VID5 || vid == XBOX_VID6) &&
   44e6c:	00800044 	movi	r2,1
   44e70:	00000106 	br	44e78 <_ZN7XBOXONE8VIDPIDOKEtt+0x11c>
   44e74:	0005883a 	mov	r2,zero
                       (pid == XBOX_ONE_PID1 || pid == XBOX_ONE_PID2 || pid == XBOX_ONE_PID3 || pid == XBOX_ONE_PID4 ||
                        pid == XBOX_ONE_PID5 || pid == XBOX_ONE_PID6 || pid == XBOX_ONE_PID7 || pid == XBOX_ONE_PID8 ||
                        pid == XBOX_ONE_PID9 || pid == XBOX_ONE_PID10 || pid == XBOX_ONE_PID11 || pid == XBOX_ONE_PID12 || 
                        pid == XBOX_ONE_PID13 || pid == XBOX_ONE_PID14));
        };
   44e78:	e037883a 	mov	sp,fp
   44e7c:	df000017 	ldw	fp,0(sp)
   44e80:	dec00104 	addi	sp,sp,4
   44e84:	f800283a 	ret

00044e88 <_ZN15USBDeviceConfigC1Ev>:
#define USB_STATE_ADDRESSING                                0x70
#define USB_STATE_CONFIGURING                               0x80
#define USB_STATE_RUNNING                                   0x90
#define USB_STATE_ERROR                                     0xa0

class USBDeviceConfig {
   44e88:	defffe04 	addi	sp,sp,-8
   44e8c:	df000115 	stw	fp,4(sp)
   44e90:	df000104 	addi	fp,sp,4
   44e94:	e13fff15 	stw	r4,-4(fp)
   44e98:	008001b4 	movhi	r2,6
   44e9c:	1093ab04 	addi	r2,r2,20140
   44ea0:	e0ffff17 	ldw	r3,-4(fp)
   44ea4:	18800015 	stw	r2,0(r3)
   44ea8:	0001883a 	nop
   44eac:	e037883a 	mov	sp,fp
   44eb0:	df000017 	ldw	fp,0(sp)
   44eb4:	dec00104 	addi	sp,sp,4
   44eb8:	f800283a 	ret

00044ebc <_ZN17UsbConfigXtracterC1Ev>:
#error "Never include confdescparser.h directly; include Usb.h instead"
#else

#define __CONFDESCPARSER_H__

class UsbConfigXtracter {
   44ebc:	defffe04 	addi	sp,sp,-8
   44ec0:	df000115 	stw	fp,4(sp)
   44ec4:	df000104 	addi	fp,sp,4
   44ec8:	e13fff15 	stw	r4,-4(fp)
   44ecc:	008001b4 	movhi	r2,6
   44ed0:	1093a504 	addi	r2,r2,20116
   44ed4:	e0ffff17 	ldw	r3,-4(fp)
   44ed8:	18800015 	stw	r2,0(r3)
   44edc:	0001883a 	nop
   44ee0:	e037883a 	mov	sp,fp
   44ee4:	df000017 	ldw	fp,0(sp)
   44ee8:	dec00104 	addi	sp,sp,4
   44eec:	f800283a 	ret

00044ef0 <_ZN13USBReadParserC1Ev>:



// Base class for incoming data parser

class USBReadParser {
   44ef0:	defffe04 	addi	sp,sp,-8
   44ef4:	df000115 	stw	fp,4(sp)
   44ef8:	df000104 	addi	fp,sp,4
   44efc:	e13fff15 	stw	r4,-4(fp)
   44f00:	008001b4 	movhi	r2,6
   44f04:	1093a804 	addi	r2,r2,20128
   44f08:	e0ffff17 	ldw	r3,-4(fp)
   44f0c:	18800015 	stw	r2,0(r3)
   44f10:	0001883a 	nop
   44f14:	e037883a 	mov	sp,fp
   44f18:	df000017 	ldw	fp,0(sp)
   44f1c:	dec00104 	addi	sp,sp,4
   44f20:	f800283a 	ret

00044f24 <_ZN16ConfigDescParserILh0ELh0ELh0ELh0EEC1EP17UsbConfigXtracter>:
        ConfigDescParser(UsbConfigXtracter *xtractor);
        void Parse(const uint16_t len, const uint8_t *pbuf, const uint16_t &offset);
};

template <const uint8_t CLASS_ID, const uint8_t SUBCLASS_ID, const uint8_t PROTOCOL_ID, const uint8_t MASK>
ConfigDescParser<CLASS_ID, SUBCLASS_ID, PROTOCOL_ID, MASK>::ConfigDescParser(UsbConfigXtracter *xtractor) :
   44f24:	defffc04 	addi	sp,sp,-16
   44f28:	dfc00315 	stw	ra,12(sp)
   44f2c:	df000215 	stw	fp,8(sp)
   44f30:	df000204 	addi	fp,sp,8
   44f34:	e13ffe15 	stw	r4,-8(fp)
   44f38:	e17fff15 	stw	r5,-4(fp)
theXtractor(xtractor),
stateParseDescr(0),
dscrLen(0),
dscrType(0),
UseOr(false) {
   44f3c:	e0bffe17 	ldw	r2,-8(fp)
   44f40:	1009883a 	mov	r4,r2
   44f44:	0044ef00 	call	44ef0 <_ZN13USBReadParserC1Ev>
   44f48:	008001b4 	movhi	r2,6
   44f4c:	1093a204 	addi	r2,r2,20104
   44f50:	e0fffe17 	ldw	r3,-8(fp)
   44f54:	18800015 	stw	r2,0(r3)
   44f58:	e0bffe17 	ldw	r2,-8(fp)
   44f5c:	e0ffff17 	ldw	r3,-4(fp)
   44f60:	10c00115 	stw	r3,4(r2)
   44f64:	e0bffe17 	ldw	r2,-8(fp)
   44f68:	10800204 	addi	r2,r2,8
   44f6c:	1009883a 	mov	r4,r2
   44f70:	00447e00 	call	447e0 <_ZN16MultiValueBufferC1Ev>
   44f74:	e0bffe17 	ldw	r2,-8(fp)
   44f78:	10800404 	addi	r2,r2,16
   44f7c:	1009883a 	mov	r4,r2
   44f80:	00448400 	call	44840 <_ZN20MultiByteValueParserC1Ev>
   44f84:	e0bffe17 	ldw	r2,-8(fp)
   44f88:	10800604 	addi	r2,r2,24
   44f8c:	1009883a 	mov	r4,r2
   44f90:	00448fc0 	call	448fc <_ZN11ByteSkipperC1Ev>
   44f94:	e0bffe17 	ldw	r2,-8(fp)
   44f98:	10000c05 	stb	zero,48(r2)
   44f9c:	e0bffe17 	ldw	r2,-8(fp)
   44fa0:	10000c45 	stb	zero,49(r2)
   44fa4:	e0bffe17 	ldw	r2,-8(fp)
   44fa8:	10000c85 	stb	zero,50(r2)
   44fac:	e0bffe17 	ldw	r2,-8(fp)
   44fb0:	10000e05 	stb	zero,56(r2)
        theBuffer.pValue = varBuffer;
   44fb4:	e0bffe17 	ldw	r2,-8(fp)
   44fb8:	10c00804 	addi	r3,r2,32
   44fbc:	e0bffe17 	ldw	r2,-8(fp)
   44fc0:	19803fcc 	andi	r6,r3,255
   44fc4:	11000243 	ldbu	r4,9(r2)
   44fc8:	2008703a 	and	r4,r4,zero
   44fcc:	200b883a 	mov	r5,r4
   44fd0:	3009883a 	mov	r4,r6
   44fd4:	2908b03a 	or	r4,r5,r4
   44fd8:	11000245 	stb	r4,9(r2)
   44fdc:	1808d23a 	srli	r4,r3,8
   44fe0:	21803fcc 	andi	r6,r4,255
   44fe4:	11000283 	ldbu	r4,10(r2)
   44fe8:	2008703a 	and	r4,r4,zero
   44fec:	200b883a 	mov	r5,r4
   44ff0:	3009883a 	mov	r4,r6
   44ff4:	2908b03a 	or	r4,r5,r4
   44ff8:	11000285 	stb	r4,10(r2)
   44ffc:	1808d43a 	srli	r4,r3,16
   45000:	21803fcc 	andi	r6,r4,255
   45004:	110002c3 	ldbu	r4,11(r2)
   45008:	2008703a 	and	r4,r4,zero
   4500c:	200b883a 	mov	r5,r4
   45010:	3009883a 	mov	r4,r6
   45014:	2908b03a 	or	r4,r5,r4
   45018:	110002c5 	stb	r4,11(r2)
   4501c:	180ad63a 	srli	r5,r3,24
   45020:	10c00303 	ldbu	r3,12(r2)
   45024:	1806703a 	and	r3,r3,zero
   45028:	1809883a 	mov	r4,r3
   4502c:	2807883a 	mov	r3,r5
   45030:	20c6b03a 	or	r3,r4,r3
   45034:	10c00305 	stb	r3,12(r2)
        valParser.Initialize(&theBuffer);
   45038:	e0bffe17 	ldw	r2,-8(fp)
   4503c:	10c00404 	addi	r3,r2,16
   45040:	e0bffe17 	ldw	r2,-8(fp)
   45044:	10800204 	addi	r2,r2,8
   45048:	100b883a 	mov	r5,r2
   4504c:	1809883a 	mov	r4,r3
   45050:	004487c0 	call	4487c <_ZN20MultiByteValueParser10InitializeEP16MultiValueBuffer>
        theSkipper.Initialize(&theBuffer);
   45054:	e0bffe17 	ldw	r2,-8(fp)
   45058:	10c00604 	addi	r3,r2,24
   4505c:	e0bffe17 	ldw	r2,-8(fp)
   45060:	10800204 	addi	r2,r2,8
   45064:	100b883a 	mov	r5,r2
   45068:	1809883a 	mov	r4,r3
   4506c:	00449380 	call	44938 <_ZN11ByteSkipper10InitializeEP16MultiValueBuffer>
};
   45070:	0001883a 	nop
   45074:	e037883a 	mov	sp,fp
   45078:	dfc00117 	ldw	ra,4(sp)
   4507c:	df000017 	ldw	fp,0(sp)
   45080:	dec00204 	addi	sp,sp,8
   45084:	f800283a 	ret

00045088 <_ZN16ConfigDescParserILh0ELh0ELh0ELh0EE5ParseEtPKhRKt>:

template <const uint8_t CLASS_ID, const uint8_t SUBCLASS_ID, const uint8_t PROTOCOL_ID, const uint8_t MASK>
void ConfigDescParser<CLASS_ID, SUBCLASS_ID, PROTOCOL_ID, MASK>::Parse(const uint16_t len, const uint8_t *pbuf, const uint16_t &offset __attribute__((unused))) {
   45088:	defff804 	addi	sp,sp,-32
   4508c:	dfc00715 	stw	ra,28(sp)
   45090:	df000615 	stw	fp,24(sp)
   45094:	df000604 	addi	fp,sp,24
   45098:	e13ffc15 	stw	r4,-16(fp)
   4509c:	2805883a 	mov	r2,r5
   450a0:	e1bffe15 	stw	r6,-8(fp)
   450a4:	e1ffff15 	stw	r7,-4(fp)
   450a8:	e0bffd0d 	sth	r2,-12(fp)
        uint16_t cntdn = (uint16_t)len;
   450ac:	e0bffd0b 	ldhu	r2,-12(fp)
   450b0:	e0bffa0d 	sth	r2,-24(fp)
        uint8_t *p = (uint8_t*)pbuf;
   450b4:	e0bffe17 	ldw	r2,-8(fp)
   450b8:	e0bffb15 	stw	r2,-20(fp)

        while(cntdn)
   450bc:	e0bffa0b 	ldhu	r2,-24(fp)
   450c0:	10bfffcc 	andi	r2,r2,65535
   450c4:	10000a26 	beq	r2,zero,450f0 <_ZN16ConfigDescParserILh0ELh0ELh0ELh0EE5ParseEtPKhRKt+0x68>
                if(!ParseDescriptor(&p, &cntdn))
   450c8:	e0bffb04 	addi	r2,fp,-20
   450cc:	e1bffa04 	addi	r6,fp,-24
   450d0:	100b883a 	mov	r5,r2
   450d4:	e13ffc17 	ldw	r4,-16(fp)
   450d8:	00451040 	call	45104 <_ZN16ConfigDescParserILh0ELh0ELh0ELh0EE15ParseDescriptorEPPhPt>
   450dc:	1080005c 	xori	r2,r2,1
   450e0:	10803fcc 	andi	r2,r2,255
   450e4:	1000011e 	bne	r2,zero,450ec <_ZN16ConfigDescParserILh0ELh0ELh0ELh0EE5ParseEtPKhRKt+0x64>
template <const uint8_t CLASS_ID, const uint8_t SUBCLASS_ID, const uint8_t PROTOCOL_ID, const uint8_t MASK>
void ConfigDescParser<CLASS_ID, SUBCLASS_ID, PROTOCOL_ID, MASK>::Parse(const uint16_t len, const uint8_t *pbuf, const uint16_t &offset __attribute__((unused))) {
        uint16_t cntdn = (uint16_t)len;
        uint8_t *p = (uint8_t*)pbuf;

        while(cntdn)
   450e8:	003ff406 	br	450bc <__alt_data_end+0xfffc50bc>
                if(!ParseDescriptor(&p, &cntdn))
                        return;
   450ec:	0001883a 	nop
}
   450f0:	e037883a 	mov	sp,fp
   450f4:	dfc00117 	ldw	ra,4(sp)
   450f8:	df000017 	ldw	fp,0(sp)
   450fc:	dec00204 	addi	sp,sp,8
   45100:	f800283a 	ret

00045104 <_ZN16ConfigDescParserILh0ELh0ELh0ELh0EE15ParseDescriptorEPPhPt>:

